---
triple:          'arm64-apple-darwin'
binary-path:     './build/Debug/outDebug'
relocations:
  - { offsetInCU: 0x3F, offset: 0x3F, size: 0x8, addend: 0x0, symName: _infoBitacora, symObjAddr: 0x7CFF0, symBinAddr: 0x100030000, symSize: 0x0 }
  - { offsetInCU: 0x4577, offset: 0x4577, size: 0x8, addend: 0x0, symName: __ZNSt3__124__put_character_sequenceB7v160006IcNS_11char_traitsIcEEEERNS_13basic_ostreamIT_T0_EES7_PKS4_m, symObjAddr: 0x4630, symBinAddr: 0x1000086C0, symSize: 0x1F4 }
  - { offsetInCU: 0xE05E, offset: 0xE05E, size: 0x8, addend: 0x0, symName: __ZNSt3__1lsB7v160006INS_11char_traitsIcEEEERNS_13basic_ostreamIcT_EES6_PKc, symObjAddr: 0xA1C, symBinAddr: 0x100004AAC, symSize: 0x48 }
  - { offsetInCU: 0xE0A4, offset: 0xE0A4, size: 0x8, addend: 0x0, symName: __ZNSt3__14endlB7v160006IcNS_11char_traitsIcEEEERNS_13basic_ostreamIT_T0_EES7_, symObjAddr: 0xA90, symBinAddr: 0x100004B20, symSize: 0x58 }
  - { offsetInCU: 0xE0E4, offset: 0xE0E4, size: 0x8, addend: 0x0, symName: __ZNSt3__17getlineB7v160006IcNS_11char_traitsIcEENS_9allocatorIcEEEERNS_13basic_istreamIT_T0_EES9_RNS_12basic_stringIS6_S7_T1_EE, symObjAddr: 0xB14, symBinAddr: 0x100004BA4, symSize: 0x5C }
  - { offsetInCU: 0xE47F, offset: 0xE47F, size: 0x8, addend: 0x0, symName: __ZNSt3__17getlineB7v160006IcNS_11char_traitsIcEENS_9allocatorIcEEEERNS_13basic_istreamIT_T0_EES9_RNS_12basic_stringIS6_S7_T1_EES6_, symObjAddr: 0xCC4, symBinAddr: 0x100004D54, symSize: 0x238 }
  - { offsetInCU: 0xE553, offset: 0xE553, size: 0x8, addend: 0x0, symName: __ZNSt3__1ltB7v160006IcNS_11char_traitsIcEENS_9allocatorIcEEEEbRKNS_12basic_stringIT_T0_T1_EESB_, symObjAddr: 0x1404, symBinAddr: 0x100005494, symSize: 0x38 }
  - { offsetInCU: 0xE5AB, offset: 0xE5AB, size: 0x8, addend: 0x0, symName: __ZNSt3__1neB7v160006IcNS_11char_traitsIcEENS_9allocatorIcEEEEbRKNS_12basic_stringIT_T0_T1_EESB_, symObjAddr: 0x187C, symBinAddr: 0x10000590C, symSize: 0x34 }
  - { offsetInCU: 0xE603, offset: 0xE603, size: 0x8, addend: 0x0, symName: __ZNSt3__1eqB7v160006INS_9allocatorIcEEEEbRKNS_12basic_stringIcNS_11char_traitsIcEET_EES9_, symObjAddr: 0x18E0, symBinAddr: 0x100005970, symSize: 0x148 }
  - { offsetInCU: 0xE676, offset: 0xE676, size: 0x8, addend: 0x0, symName: __ZNSt3__1lsB7v160006IcNS_11char_traitsIcEENS_9allocatorIcEEEERNS_13basic_ostreamIT_T0_EES9_RKNS_12basic_stringIS6_S7_T1_EE, symObjAddr: 0x1A28, symBinAddr: 0x100005AB8, symSize: 0x4C }
  - { offsetInCU: 0xED69, offset: 0xED69, size: 0x8, addend: 0x0, symName: __ZNSt3__1eqB7v160006IcNS_11char_traitsIcEENS_9allocatorIcEEEEbRKNS_12basic_stringIT_T0_T1_EEPKS6_, symObjAddr: 0x1CE4, symBinAddr: 0x100005D74, symSize: 0xC0 }
  - { offsetInCU: 0xF44D, offset: 0xF44D, size: 0x8, addend: 0x0, symName: __ZNSt3__1eqB7v160006ERKNS_21__hash_const_iteratorIPNS_11__hash_nodeINS_12basic_stringIcNS_11char_traitsIcEENS_9allocatorIcEEEEPvEEEESD_, symObjAddr: 0x2524, symBinAddr: 0x1000065B4, symSize: 0x30 }
  - { offsetInCU: 0xF48A, offset: 0xF48A, size: 0x8, addend: 0x0, symName: __ZNSt3__1neB7v160006IcNS_11char_traitsIcEENS_9allocatorIcEEEEbRKNS_12basic_stringIT_T0_T1_EEPKS6_, symObjAddr: 0x2B78, symBinAddr: 0x100006C08, symSize: 0x34 }
  - { offsetInCU: 0xF4E2, offset: 0xF4E2, size: 0x8, addend: 0x0, symName: __ZNSt3__1neB7v160006ERKNS_21__hash_const_iteratorIPNS_11__hash_nodeINS_12basic_stringIcNS_11char_traitsIcEENS_9allocatorIcEEEEPvEEEESD_, symObjAddr: 0x2BE4, symBinAddr: 0x100006C74, symSize: 0x34 }
  - { offsetInCU: 0xF543, offset: 0xF543, size: 0x8, addend: 0x0, symName: __ZNSt3__13minB7v160006ImEERKT_S3_S3_, symObjAddr: 0x3514, symBinAddr: 0x1000075A4, symSize: 0x2C }
  - { offsetInCU: 0xF586, offset: 0xF586, size: 0x8, addend: 0x0, symName: __ZNSt3__130__libcpp_is_constant_evaluatedB7v160006Ev, symObjAddr: 0x3610, symBinAddr: 0x1000076A0, symSize: 0xC }
  - { offsetInCU: 0xF5A3, offset: 0xF5A3, size: 0x8, addend: 0x0, symName: __ZNSt3__118__constexpr_memcmpB7v160006IcEEiPKT_S3_m, symObjAddr: 0x3654, symBinAddr: 0x1000076E4, symSize: 0x34 }
  - { offsetInCU: 0xF5F4, offset: 0xF5F4, size: 0x8, addend: 0x0, symName: __ZNSt3__112__to_addressB7v160006IKcEEPT_S3_, symObjAddr: 0x3688, symBinAddr: 0x100007718, symSize: 0x14 }
  - { offsetInCU: 0xF65C, offset: 0xF65C, size: 0x8, addend: 0x0, symName: __ZNSt3__13minB7v160006ImNS_6__lessImmEEEERKT_S5_S5_T0_, symObjAddr: 0x3754, symBinAddr: 0x1000077E4, symSize: 0x54 }
  - { offsetInCU: 0xF6F1, offset: 0xF6F1, size: 0x8, addend: 0x0, symName: __ZNSt3__119__debug_db_insert_cB7v160006INS_12basic_stringIcNS_11char_traitsIcEENS_9allocatorIcEEEEEEvPT_, symObjAddr: 0x38C4, symBinAddr: 0x100007954, symSize: 0x10 }
  - { offsetInCU: 0xF722, offset: 0xF722, size: 0x8, addend: 0x0, symName: __ZNSt3__117__libcpp_allocateB7v160006Emm, symObjAddr: 0x3D50, symBinAddr: 0x100007DE0, symSize: 0x28 }
  - { offsetInCU: 0xF75F, offset: 0xF75F, size: 0x8, addend: 0x0, symName: __ZNSt3__121__libcpp_operator_newB7v160006IJmEEEPvDpT_, symObjAddr: 0x3D8C, symBinAddr: 0x100007E1C, symSize: 0x24 }
  - { offsetInCU: 0xF798, offset: 0xF798, size: 0x8, addend: 0x0, symName: __ZNSt3__119__debug_db_insert_cB7v160006INS_6vectorI13BitacoraLineaNS_9allocatorIS2_EEEEEEvPT_, symObjAddr: 0x3E70, symBinAddr: 0x100007F00, symSize: 0x10 }
  - { offsetInCU: 0xF7C9, offset: 0xF7C9, size: 0x8, addend: 0x0, symName: __ZNSt3__118__debug_db_erase_cB7v160006INS_6vectorI13BitacoraLineaNS_9allocatorIS2_EEEEEEvPT_, symObjAddr: 0x4148, symBinAddr: 0x1000081D8, symSize: 0x10 }
  - { offsetInCU: 0xF7FA, offset: 0xF7FA, size: 0x8, addend: 0x0, symName: __ZNSt3__112__to_addressB7v160006I13BitacoraLineaEEPT_S3_, symObjAddr: 0x4264, symBinAddr: 0x1000082F4, symSize: 0x14 }
  - { offsetInCU: 0xF82F, offset: 0xF82F, size: 0x8, addend: 0x0, symName: __ZNSt3__119__libcpp_deallocateB7v160006EPvmm, symObjAddr: 0x43E0, symBinAddr: 0x100008470, symSize: 0x30 }
  - { offsetInCU: 0xF877, offset: 0xF877, size: 0x8, addend: 0x0, symName: __ZNSt3__127__do_deallocate_handle_sizeB7v160006IJEEEvPvmDpT_, symObjAddr: 0x4410, symBinAddr: 0x1000084A0, symSize: 0x28 }
  - { offsetInCU: 0xF8B5, offset: 0xF8B5, size: 0x8, addend: 0x0, symName: __ZNSt3__124__libcpp_operator_deleteB7v160006IJPvEEEvDpT_, symObjAddr: 0x4438, symBinAddr: 0x1000084C8, symSize: 0x24 }
  - { offsetInCU: 0xF8EA, offset: 0xF8EA, size: 0x8, addend: 0x0, symName: __ZNSt3__116__pad_and_outputB7v160006IcNS_11char_traitsIcEEEENS_19ostreambuf_iteratorIT_T0_EES6_PKS4_S8_S8_RNS_8ios_baseES4_, symObjAddr: 0x4888, symBinAddr: 0x100008918, symSize: 0x248 }
  - { offsetInCU: 0xF9B9, offset: 0xF9B9, size: 0x8, addend: 0x0, symName: __ZNSt3__19use_facetB7v160006INS_5ctypeIcEEEERKT_RKNS_6localeE, symObjAddr: 0x4E38, symBinAddr: 0x100008EC8, symSize: 0x2C }
  - { offsetInCU: 0xFE88, offset: 0xFE88, size: 0x8, addend: 0x0, symName: __ZNSt3__118__constexpr_strlenB7v160006EPKc, symObjAddr: 0x4ED0, symBinAddr: 0x100008F60, symSize: 0x24 }
  - { offsetInCU: 0xFEB4, offset: 0xFEB4, size: 0x8, addend: 0x0, symName: __ZNSt3__125__debug_db_invalidate_allB7v160006INS_12basic_stringIcNS_11char_traitsIcEENS_9allocatorIcEEEEEEvPT_, symObjAddr: 0x548C, symBinAddr: 0x10000951C, symSize: 0x10 }
  - { offsetInCU: 0xFF18, offset: 0xFF18, size: 0x8, addend: 0x0, symName: __ZNSt3__13maxB7v160006ImEERKT_S3_S3_, symObjAddr: 0x5BC0, symBinAddr: 0x100009C50, symSize: 0x2C }
  - { offsetInCU: 0x1015C, offset: 0x1015C, size: 0x8, addend: 0x0, symName: __ZNSt3__120__throw_length_errorB7v160006EPKc, symObjAddr: 0x5CA4, symBinAddr: 0x100009D34, symSize: 0x64 }
  - { offsetInCU: 0x10184, offset: 0x10184, size: 0x8, addend: 0x0, symName: __ZNSt3__13maxB7v160006ImNS_6__lessImmEEEERKT_S5_S5_T0_, symObjAddr: 0x5D88, symBinAddr: 0x100009E18, symSize: 0x54 }
  - { offsetInCU: 0x101DE, offset: 0x101DE, size: 0x8, addend: 0x0, symName: __ZNSt3__119__allocate_at_leastB7v160006INS_9allocatorI13BitacoraLineaEEEENS_19__allocation_resultINS_16allocator_traitsIT_E7pointerEEERS6_m, symObjAddr: 0x5EF8, symBinAddr: 0x100009F88, symSize: 0x40 }
  - { offsetInCU: 0x10221, offset: 0x10221, size: 0x8, addend: 0x0, symName: __ZNSt3__142__uninitialized_allocator_move_if_noexceptB7v160006INS_9allocatorI13BitacoraLineaEENS_16reverse_iteratorIPS2_EES6_S6_EET2_RT_T0_T1_S7_, symObjAddr: 0x60E0, symBinAddr: 0x10000A170, symSize: 0x134 }
  - { offsetInCU: 0x102C1, offset: 0x102C1, size: 0x8, addend: 0x0, symName: __ZNSt3__14swapB7v160006IP13BitacoraLineaEEvRT_S4_, symObjAddr: 0x6260, symBinAddr: 0x10000A2F0, symSize: 0x3C }
  - { offsetInCU: 0x10312, offset: 0x10312, size: 0x8, addend: 0x0, symName: __ZNSt3__125__debug_db_invalidate_allB7v160006INS_6vectorI13BitacoraLineaNS_9allocatorIS2_EEEEEEvPT_, symObjAddr: 0x6364, symBinAddr: 0x10000A3F4, symSize: 0x10 }
  - { offsetInCU: 0x10343, offset: 0x10343, size: 0x8, addend: 0x0, symName: __ZNSt3__122__make_exception_guardB7v160006INS_29_AllocatorDestroyRangeReverseINS_9allocatorI13BitacoraLineaEENS_16reverse_iteratorIPS3_EEEEEENS_28__exception_guard_exceptionsIT_EESA_, symObjAddr: 0x6374, symBinAddr: 0x10000A404, symSize: 0x4C }
  - { offsetInCU: 0x10379, offset: 0x10379, size: 0x8, addend: 0x0, symName: __ZNSt3__1neB7v160006IP13BitacoraLineaS2_EEbRKNS_16reverse_iteratorIT_EERKNS3_IT0_EE, symObjAddr: 0x6404, symBinAddr: 0x10000A494, symSize: 0x48 }
  - { offsetInCU: 0x103C5, offset: 0x103C5, size: 0x8, addend: 0x0, symName: __ZNSt3__112__to_addressB7v160006INS_16reverse_iteratorIP13BitacoraLineaEEvEENS_5decayIDTclsr19__to_address_helperIT_EE6__callclsr3stdE7declvalIRKS6_EEEEE4typeES8_, symObjAddr: 0x644C, symBinAddr: 0x10000A4DC, symSize: 0x24 }
  - { offsetInCU: 0x10424, offset: 0x10424, size: 0x8, addend: 0x0, symName: __ZNSt3__119__allocator_destroyB7v160006INS_9allocatorI13BitacoraLineaEENS_16reverse_iteratorINS4_IPS2_EEEES7_EEvRT_T0_T1_, symObjAddr: 0x6708, symBinAddr: 0x10000A798, symSize: 0x70 }
  - { offsetInCU: 0x10489, offset: 0x10489, size: 0x8, addend: 0x0, symName: __ZNSt3__1neB7v160006INS_16reverse_iteratorIP13BitacoraLineaEES4_EEbRKNS1_IT_EERKNS1_IT0_EE, symObjAddr: 0x67B4, symBinAddr: 0x10000A844, symSize: 0x60 }
  - { offsetInCU: 0x104D5, offset: 0x104D5, size: 0x8, addend: 0x0, symName: __ZNSt3__112__to_addressB7v160006INS_16reverse_iteratorINS1_IP13BitacoraLineaEEEEvEENS_5decayIDTclsr19__to_address_helperIT_EE6__callclsr3stdE7declvalIRKS7_EEEEE4typeES9_, symObjAddr: 0x6814, symBinAddr: 0x10000A8A4, symSize: 0x24 }
  - { offsetInCU: 0x10534, offset: 0x10534, size: 0x8, addend: 0x0, symName: __ZNSt3__122__make_exception_guardB7v160006INS_6vectorI13BitacoraLineaNS_9allocatorIS2_EEE16__destroy_vectorEEENS_28__exception_guard_exceptionsIT_EES8_, symObjAddr: 0x6CFC, symBinAddr: 0x10000AD8C, symSize: 0x40 }
  - { offsetInCU: 0x10569, offset: 0x10569, size: 0x8, addend: 0x0, symName: __ZNSt3__130__uninitialized_allocator_copyB7v160006INS_9allocatorI13BitacoraLineaEEPS2_S4_S4_EET2_RT_T0_T1_S5_, symObjAddr: 0x6F80, symBinAddr: 0x10000B010, symSize: 0xFC }
  - { offsetInCU: 0x10607, offset: 0x10607, size: 0x8, addend: 0x0, symName: __ZNSt3__122__make_exception_guardB7v160006INS_29_AllocatorDestroyRangeReverseINS_9allocatorI13BitacoraLineaEEPS3_EEEENS_28__exception_guard_exceptionsIT_EES8_, symObjAddr: 0x707C, symBinAddr: 0x10000B10C, symSize: 0x4C }
  - { offsetInCU: 0x1063D, offset: 0x1063D, size: 0x8, addend: 0x0, symName: __ZNSt3__119__allocator_destroyB7v160006INS_9allocatorI13BitacoraLineaEENS_16reverse_iteratorIPS2_EES6_EEvRT_T0_T1_, symObjAddr: 0x7304, symBinAddr: 0x10000B394, symSize: 0x70 }
  - { offsetInCU: 0x106A0, offset: 0x106A0, size: 0x8, addend: 0x0, symName: __ZNSt3__119__debug_db_insert_cB7v160006INS_13unordered_setIiNS_4hashIiEENS_8equal_toIiEENS_9allocatorIiEEEEEEvPT_, symObjAddr: 0x74AC, symBinAddr: 0x10000B53C, symSize: 0x10 }
  - { offsetInCU: 0x106D1, offset: 0x106D1, size: 0x8, addend: 0x0, symName: __ZNSt3__118__debug_db_erase_cB7v160006INS_12__hash_tableIiNS_4hashIiEENS_8equal_toIiEENS_9allocatorIiEEEEEEvPT_, symObjAddr: 0x7F08, symBinAddr: 0x10000BF98, symSize: 0x10 }
  - { offsetInCU: 0x10735, offset: 0x10735, size: 0x8, addend: 0x0, symName: __ZNSt3__116__constrain_hashB7v160006Emm, symObjAddr: 0x868C, symBinAddr: 0x10000C71C, symSize: 0x98 }
  - { offsetInCU: 0x1076F, offset: 0x1076F, size: 0x8, addend: 0x0, symName: __ZNSt3__116__is_hash_power2B7v160006Em, symObjAddr: 0x8988, symBinAddr: 0x10000CA18, symSize: 0x50 }
  - { offsetInCU: 0x107B9, offset: 0x107B9, size: 0x8, addend: 0x0, symName: __ZNSt3__116__next_hash_pow2B7v160006Em, symObjAddr: 0x94DC, symBinAddr: 0x10000D56C, symSize: 0x6C }
  - { offsetInCU: 0x107E5, offset: 0x107E5, size: 0x8, addend: 0x0, symName: __ZNSt3__125__debug_db_invalidate_allB7v160006INS_12__hash_tableIiNS_4hashIiEENS_8equal_toIiEENS_9allocatorIiEEEEEEvPT_, symObjAddr: 0x9548, symBinAddr: 0x10000D5D8, symSize: 0x10 }
  - { offsetInCU: 0x10832, offset: 0x10832, size: 0x8, addend: 0x0, symName: __ZNSt3__112__libcpp_clzB7v160006Em, symObjAddr: 0x96DC, symBinAddr: 0x10000D76C, symSize: 0x1C }
  - { offsetInCU: 0x1085E, offset: 0x1085E, size: 0x8, addend: 0x0, symName: __ZNSt3__119__debug_db_insert_cB7v160006INS_6vectorINS_12basic_stringIcNS_11char_traitsIcEENS_9allocatorIcEEEENS5_IS7_EEEEEEvPT_, symObjAddr: 0x9A18, symBinAddr: 0x10000DAA8, symSize: 0x10 }
  - { offsetInCU: 0x1088F, offset: 0x1088F, size: 0x8, addend: 0x0, symName: __ZNSt3__118__debug_db_erase_cB7v160006INS_6vectorINS_12basic_stringIcNS_11char_traitsIcEENS_9allocatorIcEEEENS5_IS7_EEEEEEvPT_, symObjAddr: 0x9CF0, symBinAddr: 0x10000DD80, symSize: 0x10 }
  - { offsetInCU: 0x108C0, offset: 0x108C0, size: 0x8, addend: 0x0, symName: __ZNSt3__112__to_addressB7v160006INS_12basic_stringIcNS_11char_traitsIcEENS_9allocatorIcEEEEEEPT_S8_, symObjAddr: 0x9E34, symBinAddr: 0x10000DEC4, symSize: 0x14 }
  - { offsetInCU: 0x108F5, offset: 0x108F5, size: 0x8, addend: 0x0, symName: __ZNSt3__119__allocate_at_leastB7v160006INS_9allocatorINS_12basic_stringIcNS_11char_traitsIcEENS1_IcEEEEEEEENS_19__allocation_resultINS_16allocator_traitsIT_E7pointerEEERSA_m, symObjAddr: 0xA7DC, symBinAddr: 0x10000E86C, symSize: 0x40 }
  - { offsetInCU: 0x10938, offset: 0x10938, size: 0x8, addend: 0x0, symName: __ZNSt3__142__uninitialized_allocator_move_if_noexceptB7v160006INS_9allocatorINS_12basic_stringIcNS_11char_traitsIcEENS1_IcEEEEEENS_16reverse_iteratorIPS6_EESA_SA_EET2_RT_T0_T1_SB_, symObjAddr: 0xA9C4, symBinAddr: 0x10000EA54, symSize: 0x134 }
  - { offsetInCU: 0x109D8, offset: 0x109D8, size: 0x8, addend: 0x0, symName: __ZNSt3__14swapB7v160006IPNS_12basic_stringIcNS_11char_traitsIcEENS_9allocatorIcEEEEEEvRT_S9_, symObjAddr: 0xAB44, symBinAddr: 0x10000EBD4, symSize: 0x3C }
  - { offsetInCU: 0x10A29, offset: 0x10A29, size: 0x8, addend: 0x0, symName: __ZNSt3__125__debug_db_invalidate_allB7v160006INS_6vectorINS_12basic_stringIcNS_11char_traitsIcEENS_9allocatorIcEEEENS5_IS7_EEEEEEvPT_, symObjAddr: 0xAC48, symBinAddr: 0x10000ECD8, symSize: 0x10 }
  - { offsetInCU: 0x10A5A, offset: 0x10A5A, size: 0x8, addend: 0x0, symName: __ZNSt3__122__make_exception_guardB7v160006INS_29_AllocatorDestroyRangeReverseINS_9allocatorINS_12basic_stringIcNS_11char_traitsIcEENS2_IcEEEEEENS_16reverse_iteratorIPS7_EEEEEENS_28__exception_guard_exceptionsIT_EESE_, symObjAddr: 0xAC58, symBinAddr: 0x10000ECE8, symSize: 0x4C }
  - { offsetInCU: 0x10A90, offset: 0x10A90, size: 0x8, addend: 0x0, symName: __ZNSt3__1neB7v160006IPNS_12basic_stringIcNS_11char_traitsIcEENS_9allocatorIcEEEES7_EEbRKNS_16reverse_iteratorIT_EERKNS8_IT0_EE, symObjAddr: 0xACE8, symBinAddr: 0x10000ED78, symSize: 0x48 }
  - { offsetInCU: 0x10ADC, offset: 0x10ADC, size: 0x8, addend: 0x0, symName: __ZNSt3__112__to_addressB7v160006INS_16reverse_iteratorIPNS_12basic_stringIcNS_11char_traitsIcEENS_9allocatorIcEEEEEEvEENS_5decayIDTclsr19__to_address_helperIT_EE6__callclsr3stdE7declvalIRKSB_EEEEE4typeESD_, symObjAddr: 0xAD30, symBinAddr: 0x10000EDC0, symSize: 0x24 }
  - { offsetInCU: 0x10B3B, offset: 0x10B3B, size: 0x8, addend: 0x0, symName: __ZNSt3__119__allocator_destroyB7v160006INS_9allocatorINS_12basic_stringIcNS_11char_traitsIcEENS1_IcEEEEEENS_16reverse_iteratorINS8_IPS6_EEEESB_EEvRT_T0_T1_, symObjAddr: 0xAFEC, symBinAddr: 0x10000F07C, symSize: 0x70 }
  - { offsetInCU: 0x10BA0, offset: 0x10BA0, size: 0x8, addend: 0x0, symName: __ZNSt3__1neB7v160006INS_16reverse_iteratorIPNS_12basic_stringIcNS_11char_traitsIcEENS_9allocatorIcEEEEEES9_EEbRKNS1_IT_EERKNS1_IT0_EE, symObjAddr: 0xB098, symBinAddr: 0x10000F128, symSize: 0x60 }
  - { offsetInCU: 0x10BEC, offset: 0x10BEC, size: 0x8, addend: 0x0, symName: __ZNSt3__112__to_addressB7v160006INS_16reverse_iteratorINS1_IPNS_12basic_stringIcNS_11char_traitsIcEENS_9allocatorIcEEEEEEEEvEENS_5decayIDTclsr19__to_address_helperIT_EE6__callclsr3stdE7declvalIRKSC_EEEEE4typeESE_, symObjAddr: 0xB0F8, symBinAddr: 0x10000F188, symSize: 0x24 }
  - { offsetInCU: 0x10C4B, offset: 0x10C4B, size: 0x8, addend: 0x0, symName: __ZNSt3__119__debug_db_insert_cB7v160006INS_13unordered_setINS_12basic_stringIcNS_11char_traitsIcEENS_9allocatorIcEEEENS_4hashIS7_EENS_8equal_toIS7_EENS5_IS7_EEEEEEvPT_, symObjAddr: 0xB50C, symBinAddr: 0x10000F59C, symSize: 0x10 }
  - { offsetInCU: 0x10C7C, offset: 0x10C7C, size: 0x8, addend: 0x0, symName: __ZNSt3__118__debug_db_erase_cB7v160006INS_12__hash_tableINS_12basic_stringIcNS_11char_traitsIcEENS_9allocatorIcEEEENS_4hashIS7_EENS_8equal_toIS7_EENS5_IS7_EEEEEEvPT_, symObjAddr: 0xBF0C, symBinAddr: 0x10000FF9C, symSize: 0x10 }
  - { offsetInCU: 0x10CE0, offset: 0x10CE0, size: 0x8, addend: 0x0, symName: __ZNSt3__110__str_findB7v160006IcmNS_11char_traitsIcEELm18446744073709551615EEET0_PKT_S3_S6_S3_S3_, symObjAddr: 0xC0D8, symBinAddr: 0x100010168, symSize: 0xE4 }
  - { offsetInCU: 0x10D87, offset: 0x10D87, size: 0x8, addend: 0x0, symName: __ZNSt3__118__search_substringB7v160006IcNS_11char_traitsIcEEEEPKT_S5_S5_S5_S5_, symObjAddr: 0xC1BC, symBinAddr: 0x10001024C, symSize: 0x154 }
  - { offsetInCU: 0x10E21, offset: 0x10E21, size: 0x8, addend: 0x0, symName: __ZNSt3__123__constexpr_char_memchrB7v160006EPKcim, symObjAddr: 0xC394, symBinAddr: 0x100010424, symSize: 0x34 }
  - { offsetInCU: 0x10E69, offset: 0x10E69, size: 0x8, addend: 0x0, symName: __ZNSt3__116__do_string_hashB7v160006IPKcEEmT_S3_, symObjAddr: 0xC7F0, symBinAddr: 0x100010880, symSize: 0x3C }
  - { offsetInCU: 0x10EAF, offset: 0x10EAF, size: 0x8, addend: 0x0, symName: __ZNSt3__110__loadwordB7v160006ImEET_PKv, symObjAddr: 0xD1E4, symBinAddr: 0x100011274, symSize: 0x20 }
  - { offsetInCU: 0x10EF2, offset: 0x10EF2, size: 0x8, addend: 0x0, symName: __ZNSt3__14swapB7v160006ImEEvRT_S2_, symObjAddr: 0xD3A0, symBinAddr: 0x100011430, symSize: 0x3C }
  - { offsetInCU: 0x10F43, offset: 0x10F43, size: 0x8, addend: 0x0, symName: __ZNSt3__110__loadwordB7v160006IjEET_PKv, symObjAddr: 0xD430, symBinAddr: 0x1000114C0, symSize: 0x20 }
  - { offsetInCU: 0x10FA4, offset: 0x10FA4, size: 0x8, addend: 0x0, symName: __ZNSt3__125__debug_db_invalidate_allB7v160006INS_12__hash_tableINS_12basic_stringIcNS_11char_traitsIcEENS_9allocatorIcEEEENS_4hashIS7_EENS_8equal_toIS7_EENS5_IS7_EEEEEEvPT_, symObjAddr: 0xE71C, symBinAddr: 0x1000127AC, symSize: 0x10 }
  - { offsetInCU: 0x111FF, offset: 0x111FF, size: 0x8, addend: 0x0, symName: __ZSt28__throw_bad_array_new_lengthB7v160006v, symObjAddr: 0x3D1C, symBinAddr: 0x100007DAC, symSize: 0x34 }
  - { offsetInCU: 0x1198E, offset: 0x1198E, size: 0x8, addend: 0x0, symName: __ZNSt3__16vectorI13BitacoraLineaNS_9allocatorIS1_EEE26__swap_out_circular_bufferERNS_14__split_bufferIS1_RS3_EE, symObjAddr: 0x59EC, symBinAddr: 0x100009A7C, symSize: 0x118 }
  - { offsetInCU: 0x1202D, offset: 0x1202D, size: 0x8, addend: 0x0, symName: __ZNSt3__16vectorINS_12basic_stringIcNS_11char_traitsIcEENS_9allocatorIcEEEENS4_IS6_EEE26__swap_out_circular_bufferERNS_14__split_bufferIS6_RS7_EE, symObjAddr: 0xA450, symBinAddr: 0x10000E4E0, symSize: 0x118 }
  - { offsetInCU: 0x14689, offset: 0x14689, size: 0x8, addend: 0x0, symName: __ZNSt3__16vectorI13BitacoraLineaNS_9allocatorIS1_EEEC1B7v160006Ev, symObjAddr: 0x0, symBinAddr: 0x100004090, symSize: 0x2C }
  - { offsetInCU: 0x146B3, offset: 0x146B3, size: 0x8, addend: 0x0, symName: __ZNSt3__16vectorI13BitacoraLineaNS_9allocatorIS1_EEED1B7v160006Ev, symObjAddr: 0x2C, symBinAddr: 0x1000040BC, symSize: 0x2C }
  - { offsetInCU: 0x147D0, offset: 0x147D0, size: 0x8, addend: 0x0, symName: __ZN8BitacoraC2ENSt3__112basic_stringIcNS0_11char_traitsIcEENS0_9allocatorIcEEEE, symObjAddr: 0x58, symBinAddr: 0x1000040E8, symSize: 0x34 }
  - { offsetInCU: 0x1480B, offset: 0x1480B, size: 0x8, addend: 0x0, symName: __ZN8BitacoraC1ENSt3__112basic_stringIcNS0_11char_traitsIcEENS0_9allocatorIcEEEE, symObjAddr: 0x8C, symBinAddr: 0x10000411C, symSize: 0x34 }
  - { offsetInCU: 0x14846, offset: 0x14846, size: 0x8, addend: 0x0, symName: __ZN8Bitacora12leerBitacoraEv, symObjAddr: 0xC0, symBinAddr: 0x100004150, symSize: 0x83C }
  - { offsetInCU: 0x14A41, offset: 0x14A41, size: 0x8, addend: 0x0, symName: __ZNSt3__114basic_ifstreamIcNS_11char_traitsIcEEEC1Ev, symObjAddr: 0x8FC, symBinAddr: 0x10000498C, symSize: 0xF4 }
  - { offsetInCU: 0x14A6D, offset: 0x14A6D, size: 0x8, addend: 0x0, symName: __ZNKSt3__114basic_ifstreamIcNS_11char_traitsIcEEE7is_openEv, symObjAddr: 0x9F0, symBinAddr: 0x100004A80, symSize: 0x2C }
  - { offsetInCU: 0x14A94, offset: 0x14A94, size: 0x8, addend: 0x0, symName: __ZNSt3__113basic_ostreamIcNS_11char_traitsIcEEElsB7v160006EPFRS3_S4_E, symObjAddr: 0xA64, symBinAddr: 0x100004AF4, symSize: 0x2C }
  - { offsetInCU: 0x14AC8, offset: 0x14AC8, size: 0x8, addend: 0x0, symName: __ZNSt3__112basic_stringIcNS_11char_traitsIcEENS_9allocatorIcEEEC1B7v160006Ev, symObjAddr: 0xAE8, symBinAddr: 0x100004B78, symSize: 0x2C }
  - { offsetInCU: 0x14AF2, offset: 0x14AF2, size: 0x8, addend: 0x0, symName: __ZNKSt3__19basic_iosIcNS_11char_traitsIcEEEcvPvB7v160006Ev, symObjAddr: 0xB70, symBinAddr: 0x100004C00, symSize: 0x4C }
  - { offsetInCU: 0x14B68, offset: 0x14B68, size: 0x8, addend: 0x0, symName: __ZNSt3__119basic_istringstreamIcNS_11char_traitsIcEENS_9allocatorIcEEEC1B7v160006ERKNS_12basic_stringIcS2_S4_EEj, symObjAddr: 0xBBC, symBinAddr: 0x100004C4C, symSize: 0x108 }
  - { offsetInCU: 0x14BB0, offset: 0x14BB0, size: 0x8, addend: 0x0, symName: __ZNSt3__16vectorI13BitacoraLineaNS_9allocatorIS1_EEE9push_backB7v160006ERKS1_, symObjAddr: 0xF08, symBinAddr: 0x100004F98, symSize: 0x6C }
  - { offsetInCU: 0x14BE6, offset: 0x14BE6, size: 0x8, addend: 0x0, symName: __ZN13BitacoraLineaD1Ev, symObjAddr: 0xF74, symBinAddr: 0x100005004, symSize: 0x2C }
  - { offsetInCU: 0x14C17, offset: 0x14C17, size: 0x8, addend: 0x0, symName: __ZNSt3__119basic_istringstreamIcNS_11char_traitsIcEENS_9allocatorIcEEED1Ev, symObjAddr: 0xFA0, symBinAddr: 0x100005030, symSize: 0x70 }
  - { offsetInCU: 0x14C44, offset: 0x14C44, size: 0x8, addend: 0x0, symName: __ZNSt3__114basic_ifstreamIcNS_11char_traitsIcEEE5closeEv, symObjAddr: 0x1010, symBinAddr: 0x1000050A0, symSize: 0x58 }
  - { offsetInCU: 0x14C6B, offset: 0x14C6B, size: 0x8, addend: 0x0, symName: __ZNSt3__16vectorI13BitacoraLineaNS_9allocatorIS1_EEEC1ERKS4_, symObjAddr: 0x1068, symBinAddr: 0x1000050F8, symSize: 0x34 }
  - { offsetInCU: 0x14CAB, offset: 0x14CAB, size: 0x8, addend: 0x0, symName: __ZNSt3__114basic_ifstreamIcNS_11char_traitsIcEEED1Ev, symObjAddr: 0x109C, symBinAddr: 0x10000512C, symSize: 0x70 }
  - { offsetInCU: 0x14CD8, offset: 0x14CD8, size: 0x8, addend: 0x0, symName: __ZN8Bitacora9insertionERNSt3__16vectorI13BitacoraLineaNS0_9allocatorIS2_EEEE, symObjAddr: 0x110C, symBinAddr: 0x10000519C, symSize: 0x270 }
  - { offsetInCU: 0x14D54, offset: 0x14D54, size: 0x8, addend: 0x0, symName: __ZNKSt3__16vectorI13BitacoraLineaNS_9allocatorIS1_EEE4sizeB7v160006Ev, symObjAddr: 0x137C, symBinAddr: 0x10000540C, symSize: 0x28 }
  - { offsetInCU: 0x14D7A, offset: 0x14D7A, size: 0x8, addend: 0x0, symName: __ZNSt3__16vectorI13BitacoraLineaNS_9allocatorIS1_EEEixB7v160006Em, symObjAddr: 0x13A4, symBinAddr: 0x100005434, symSize: 0x2C }
  - { offsetInCU: 0x14DB1, offset: 0x14DB1, size: 0x8, addend: 0x0, symName: __ZN13BitacoraLineaC1ERKS_, symObjAddr: 0x13D0, symBinAddr: 0x100005460, symSize: 0x34 }
  - { offsetInCU: 0x14DE6, offset: 0x14DE6, size: 0x8, addend: 0x0, symName: __ZN13BitacoraLineaaSERKS_, symObjAddr: 0x143C, symBinAddr: 0x1000054CC, symSize: 0xC0 }
  - { offsetInCU: 0x14E17, offset: 0x14E17, size: 0x8, addend: 0x0, symName: __ZN8Bitacora3ordEv, symObjAddr: 0x14FC, symBinAddr: 0x10000558C, symSize: 0x70 }
  - { offsetInCU: 0x14E3F, offset: 0x14E3F, size: 0x8, addend: 0x0, symName: __ZNKSt3__16vectorI13BitacoraLineaNS_9allocatorIS1_EEE5emptyB7v160006Ev, symObjAddr: 0x156C, symBinAddr: 0x1000055FC, symSize: 0x28 }
  - { offsetInCU: 0x14E65, offset: 0x14E65, size: 0x8, addend: 0x0, symName: __ZN8Bitacora6fechasEv, symObjAddr: 0x1594, symBinAddr: 0x100005624, symSize: 0x2B4 }
  - { offsetInCU: 0x14EF5, offset: 0x14EF5, size: 0x8, addend: 0x0, symName: __ZNSt3__112basic_stringIcNS_11char_traitsIcEENS_9allocatorIcEEEC1B7v160006IDnEEPKc, symObjAddr: 0x1848, symBinAddr: 0x1000058D8, symSize: 0x34 }
  - { offsetInCU: 0x14F33, offset: 0x14F33, size: 0x8, addend: 0x0, symName: __ZNKSt3__112basic_stringIcNS_11char_traitsIcEENS_9allocatorIcEEE5emptyB7v160006Ev, symObjAddr: 0x18B0, symBinAddr: 0x100005940, symSize: 0x30 }
  - { offsetInCU: 0x14F59, offset: 0x14F59, size: 0x8, addend: 0x0, symName: __ZN8Bitacora9renglonesEv, symObjAddr: 0x1A74, symBinAddr: 0x100005B04, symSize: 0x5C }
  - { offsetInCU: 0x14F81, offset: 0x14F81, size: 0x8, addend: 0x0, symName: __ZN8Bitacora4readEv, symObjAddr: 0x1AD0, symBinAddr: 0x100005B60, symSize: 0x1E8 }
  - { offsetInCU: 0x15049, offset: 0x15049, size: 0x8, addend: 0x0, symName: __ZNSt3__113unordered_setIiNS_4hashIiEENS_8equal_toIiEENS_9allocatorIiEEEC1B7v160006Ev, symObjAddr: 0x1CB8, symBinAddr: 0x100005D48, symSize: 0x2C }
  - { offsetInCU: 0x15073, offset: 0x15073, size: 0x8, addend: 0x0, symName: __ZNSt3__113unordered_setIiNS_4hashIiEENS_8equal_toIiEENS_9allocatorIiEEE6insertB7v160006ERKi, symObjAddr: 0x1DA4, symBinAddr: 0x100005E34, symSize: 0x4C }
  - { offsetInCU: 0x150A8, offset: 0x150A8, size: 0x8, addend: 0x0, symName: __ZNSt3__113unordered_setIiNS_4hashIiEENS_8equal_toIiEENS_9allocatorIiEEED1B7v160006Ev, symObjAddr: 0x1DF0, symBinAddr: 0x100005E80, symSize: 0x2C }
  - { offsetInCU: 0x150D2, offset: 0x150D2, size: 0x8, addend: 0x0, symName: __ZN8Bitacora12buscarServerEv, symObjAddr: 0x1E1C, symBinAddr: 0x100005EAC, symSize: 0x25C }
  - { offsetInCU: 0x1514C, offset: 0x1514C, size: 0x8, addend: 0x0, symName: __ZNSt3__16vectorINS_12basic_stringIcNS_11char_traitsIcEENS_9allocatorIcEEEENS4_IS6_EEEC1B7v160006Ev, symObjAddr: 0x2078, symBinAddr: 0x100006108, symSize: 0x2C }
  - { offsetInCU: 0x15176, offset: 0x15176, size: 0x8, addend: 0x0, symName: __ZNSt3__16vectorINS_12basic_stringIcNS_11char_traitsIcEENS_9allocatorIcEEEENS4_IS6_EEE9push_backB7v160006ERKS6_, symObjAddr: 0x20A4, symBinAddr: 0x100006134, symSize: 0x6C }
  - { offsetInCU: 0x151AC, offset: 0x151AC, size: 0x8, addend: 0x0, symName: __ZNKSt3__16vectorINS_12basic_stringIcNS_11char_traitsIcEENS_9allocatorIcEEEENS4_IS6_EEE5emptyB7v160006Ev, symObjAddr: 0x2110, symBinAddr: 0x1000061A0, symSize: 0x28 }
  - { offsetInCU: 0x151D2, offset: 0x151D2, size: 0x8, addend: 0x0, symName: __ZNSt3__16vectorINS_12basic_stringIcNS_11char_traitsIcEENS_9allocatorIcEEEENS4_IS6_EEED1B7v160006Ev, symObjAddr: 0x2138, symBinAddr: 0x1000061C8, symSize: 0x2C }
  - { offsetInCU: 0x151FC, offset: 0x151FC, size: 0x8, addend: 0x0, symName: __ZN8Bitacora7correoEEv, symObjAddr: 0x2164, symBinAddr: 0x1000061F4, symSize: 0x2B8 }
  - { offsetInCU: 0x152E3, offset: 0x152E3, size: 0x8, addend: 0x0, symName: __ZNSt3__113unordered_setINS_12basic_stringIcNS_11char_traitsIcEENS_9allocatorIcEEEENS_4hashIS6_EENS_8equal_toIS6_EENS4_IS6_EEEC1B7v160006Ev, symObjAddr: 0x241C, symBinAddr: 0x1000064AC, symSize: 0x2C }
  - { offsetInCU: 0x1530D, offset: 0x1530D, size: 0x8, addend: 0x0, symName: __ZNKSt3__112basic_stringIcNS_11char_traitsIcEENS_9allocatorIcEEE4findB7v160006EPKcm, symObjAddr: 0x2448, symBinAddr: 0x1000064D8, symSize: 0x74 }
  - { offsetInCU: 0x15352, offset: 0x15352, size: 0x8, addend: 0x0, symName: __ZNKSt3__112basic_stringIcNS_11char_traitsIcEENS_9allocatorIcEEE6substrB7v160006Emm, symObjAddr: 0x24BC, symBinAddr: 0x10000654C, symSize: 0x68 }
  - { offsetInCU: 0x15396, offset: 0x15396, size: 0x8, addend: 0x0, symName: __ZNSt3__113unordered_setINS_12basic_stringIcNS_11char_traitsIcEENS_9allocatorIcEEEENS_4hashIS6_EENS_8equal_toIS6_EENS4_IS6_EEE4findB7v160006ERKS6_, symObjAddr: 0x2554, symBinAddr: 0x1000065E4, symSize: 0x40 }
  - { offsetInCU: 0x153CB, offset: 0x153CB, size: 0x8, addend: 0x0, symName: __ZNSt3__113unordered_setINS_12basic_stringIcNS_11char_traitsIcEENS_9allocatorIcEEEENS_4hashIS6_EENS_8equal_toIS6_EENS4_IS6_EEE3endB7v160006Ev, symObjAddr: 0x2594, symBinAddr: 0x100006624, symSize: 0x38 }
  - { offsetInCU: 0x153F1, offset: 0x153F1, size: 0x8, addend: 0x0, symName: __ZNSt3__113unordered_setINS_12basic_stringIcNS_11char_traitsIcEENS_9allocatorIcEEEENS_4hashIS6_EENS_8equal_toIS6_EENS4_IS6_EEE6insertB7v160006ERKS6_, symObjAddr: 0x25CC, symBinAddr: 0x10000665C, symSize: 0x4C }
  - { offsetInCU: 0x15426, offset: 0x15426, size: 0x8, addend: 0x0, symName: __ZNSt3__113unordered_setINS_12basic_stringIcNS_11char_traitsIcEENS_9allocatorIcEEEENS_4hashIS6_EENS_8equal_toIS6_EENS4_IS6_EEED1B7v160006Ev, symObjAddr: 0x2618, symBinAddr: 0x1000066A8, symSize: 0x2C }
  - { offsetInCU: 0x15450, offset: 0x15450, size: 0x8, addend: 0x0, symName: __ZN8Bitacora7nombresEv, symObjAddr: 0x2644, symBinAddr: 0x1000066D4, symSize: 0x278 }
  - { offsetInCU: 0x154CD, offset: 0x154CD, size: 0x8, addend: 0x0, symName: __ZN8Bitacora8redInterEv, symObjAddr: 0x28BC, symBinAddr: 0x10000694C, symSize: 0x2BC }
  - { offsetInCU: 0x155A3, offset: 0x155A3, size: 0x8, addend: 0x0, symName: __ZNSt3__113unordered_setINS_12basic_stringIcNS_11char_traitsIcEENS_9allocatorIcEEEENS_4hashIS6_EENS_8equal_toIS6_EENS4_IS6_EEE5beginB7v160006Ev, symObjAddr: 0x2BAC, symBinAddr: 0x100006C3C, symSize: 0x38 }
  - { offsetInCU: 0x155C9, offset: 0x155C9, size: 0x8, addend: 0x0, symName: __ZNKSt3__121__hash_const_iteratorIPNS_11__hash_nodeINS_12basic_stringIcNS_11char_traitsIcEENS_9allocatorIcEEEEPvEEEdeB7v160006Ev, symObjAddr: 0x2C18, symBinAddr: 0x100006CA8, symSize: 0x2C }
  - { offsetInCU: 0x155EF, offset: 0x155EF, size: 0x8, addend: 0x0, symName: __ZNSt3__121__hash_const_iteratorIPNS_11__hash_nodeINS_12basic_stringIcNS_11char_traitsIcEENS_9allocatorIcEEEEPvEEEppB7v160006Ev, symObjAddr: 0x2C44, symBinAddr: 0x100006CD4, symSize: 0x20 }
  - { offsetInCU: 0x15615, offset: 0x15615, size: 0x8, addend: 0x0, symName: __ZN13BitacoraLineaD2Ev, symObjAddr: 0x2C64, symBinAddr: 0x100006CF4, symSize: 0x19C }
  - { offsetInCU: 0x15641, offset: 0x15641, size: 0x8, addend: 0x0, symName: __ZNSt3__119basic_istringstreamIcNS_11char_traitsIcEENS_9allocatorIcEEED2Ev, symObjAddr: 0x2E00, symBinAddr: 0x100006E90, symSize: 0x9C }
  - { offsetInCU: 0x1567B, offset: 0x1567B, size: 0x8, addend: 0x0, symName: __ZTv0_n24_NSt3__119basic_istringstreamIcNS_11char_traitsIcEENS_9allocatorIcEEED1Ev, symObjAddr: 0x2E9C, symBinAddr: 0x100006F2C, symSize: 0x28 }
  - { offsetInCU: 0x15697, offset: 0x15697, size: 0x8, addend: 0x0, symName: __ZNSt3__115basic_stringbufIcNS_11char_traitsIcEENS_9allocatorIcEEED1Ev, symObjAddr: 0x2EC4, symBinAddr: 0x100006F54, symSize: 0x2C }
  - { offsetInCU: 0x156C4, offset: 0x156C4, size: 0x8, addend: 0x0, symName: __ZNSt3__115basic_stringbufIcNS_11char_traitsIcEENS_9allocatorIcEEED2Ev, symObjAddr: 0x2EF0, symBinAddr: 0x100006F80, symSize: 0x78 }
  - { offsetInCU: 0x156F1, offset: 0x156F1, size: 0x8, addend: 0x0, symName: __ZNSt3__114basic_ifstreamIcNS_11char_traitsIcEEED2Ev, symObjAddr: 0x2F68, symBinAddr: 0x100006FF8, symSize: 0x9C }
  - { offsetInCU: 0x1572B, offset: 0x1572B, size: 0x8, addend: 0x0, symName: __ZTv0_n24_NSt3__114basic_ifstreamIcNS_11char_traitsIcEEED1Ev, symObjAddr: 0x3004, symBinAddr: 0x100007094, symSize: 0x28 }
  - { offsetInCU: 0x15742, offset: 0x15742, size: 0x8, addend: 0x0, symName: __ZN13BitacoraLineaC2ERKS_, symObjAddr: 0x302C, symBinAddr: 0x1000070BC, symSize: 0x1E0 }
  - { offsetInCU: 0x15777, offset: 0x15777, size: 0x8, addend: 0x0, symName: __ZNKSt3__112basic_stringIcNS_11char_traitsIcEENS_9allocatorIcEEE7compareB7v160006ERKS5_, symObjAddr: 0x320C, symBinAddr: 0x10000729C, symSize: 0x4C }
  - { offsetInCU: 0x157AD, offset: 0x157AD, size: 0x8, addend: 0x0, symName: __ZNKSt3__112basic_stringIcNS_11char_traitsIcEENS_9allocatorIcEEE7compareINS_17basic_string_viewIcS2_EEEENS_9enable_ifIXsr33__can_be_converted_to_string_viewIcS2_T_EE5valueEiE4typeERKSA_, symObjAddr: 0x3258, symBinAddr: 0x1000072E8, symSize: 0x140 }
  - { offsetInCU: 0x15829, offset: 0x15829, size: 0x8, addend: 0x0, symName: __ZNKSt3__112basic_stringIcNS_11char_traitsIcEENS_9allocatorIcEEEcvNS_17basic_string_viewIcS2_EEB7v160006Ev, symObjAddr: 0x3398, symBinAddr: 0x100007428, symSize: 0x50 }
  - { offsetInCU: 0x1584F, offset: 0x1584F, size: 0x8, addend: 0x0, symName: __ZNKSt3__112basic_stringIcNS_11char_traitsIcEENS_9allocatorIcEEE4sizeB7v160006Ev, symObjAddr: 0x33E8, symBinAddr: 0x100007478, symSize: 0x54 }
  - { offsetInCU: 0x15875, offset: 0x15875, size: 0x8, addend: 0x0, symName: __ZNKSt3__117basic_string_viewIcNS_11char_traitsIcEEE4sizeB7v160006Ev, symObjAddr: 0x343C, symBinAddr: 0x1000074CC, symSize: 0x18 }
  - { offsetInCU: 0x1589B, offset: 0x1589B, size: 0x8, addend: 0x0, symName: __ZNSt3__111char_traitsIcE7compareEPKcS3_m, symObjAddr: 0x3454, symBinAddr: 0x1000074E4, symSize: 0x80 }
  - { offsetInCU: 0x158DA, offset: 0x158DA, size: 0x8, addend: 0x0, symName: __ZNKSt3__112basic_stringIcNS_11char_traitsIcEENS_9allocatorIcEEE4dataB7v160006Ev, symObjAddr: 0x34D4, symBinAddr: 0x100007564, symSize: 0x28 }
  - { offsetInCU: 0x15900, offset: 0x15900, size: 0x8, addend: 0x0, symName: __ZNKSt3__117basic_string_viewIcNS_11char_traitsIcEEE4dataB7v160006Ev, symObjAddr: 0x34FC, symBinAddr: 0x10000758C, symSize: 0x18 }
  - { offsetInCU: 0x15926, offset: 0x15926, size: 0x8, addend: 0x0, symName: __ZNKSt3__112basic_stringIcNS_11char_traitsIcEENS_9allocatorIcEEE9__is_longB7v160006Ev, symObjAddr: 0x3540, symBinAddr: 0x1000075D0, symSize: 0x74 }
  - { offsetInCU: 0x1594C, offset: 0x1594C, size: 0x8, addend: 0x0, symName: __ZNKSt3__112basic_stringIcNS_11char_traitsIcEENS_9allocatorIcEEE15__get_long_sizeB7v160006Ev, symObjAddr: 0x35B4, symBinAddr: 0x100007644, symSize: 0x28 }
  - { offsetInCU: 0x15972, offset: 0x15972, size: 0x8, addend: 0x0, symName: __ZNKSt3__112basic_stringIcNS_11char_traitsIcEENS_9allocatorIcEEE16__get_short_sizeB7v160006Ev, symObjAddr: 0x35DC, symBinAddr: 0x10000766C, symSize: 0x34 }
  - { offsetInCU: 0x15998, offset: 0x15998, size: 0x8, addend: 0x0, symName: __ZNKSt3__117__compressed_pairINS_12basic_stringIcNS_11char_traitsIcEENS_9allocatorIcEEE5__repES5_E5firstB7v160006Ev, symObjAddr: 0x361C, symBinAddr: 0x1000076AC, symSize: 0x24 }
  - { offsetInCU: 0x159BE, offset: 0x159BE, size: 0x8, addend: 0x0, symName: __ZNKSt3__122__compressed_pair_elemINS_12basic_stringIcNS_11char_traitsIcEENS_9allocatorIcEEE5__repELi0ELb0EE5__getB7v160006Ev, symObjAddr: 0x3640, symBinAddr: 0x1000076D0, symSize: 0x14 }
  - { offsetInCU: 0x159E4, offset: 0x159E4, size: 0x8, addend: 0x0, symName: __ZNKSt3__112basic_stringIcNS_11char_traitsIcEENS_9allocatorIcEEE13__get_pointerB7v160006Ev, symObjAddr: 0x369C, symBinAddr: 0x10000772C, symSize: 0x54 }
  - { offsetInCU: 0x15A0A, offset: 0x15A0A, size: 0x8, addend: 0x0, symName: __ZNKSt3__112basic_stringIcNS_11char_traitsIcEENS_9allocatorIcEEE18__get_long_pointerB7v160006Ev, symObjAddr: 0x36F0, symBinAddr: 0x100007780, symSize: 0x28 }
  - { offsetInCU: 0x15A30, offset: 0x15A30, size: 0x8, addend: 0x0, symName: __ZNKSt3__112basic_stringIcNS_11char_traitsIcEENS_9allocatorIcEEE19__get_short_pointerB7v160006Ev, symObjAddr: 0x3718, symBinAddr: 0x1000077A8, symSize: 0x28 }
  - { offsetInCU: 0x15A56, offset: 0x15A56, size: 0x8, addend: 0x0, symName: __ZNSt3__114pointer_traitsIPKcE10pointer_toB7v160006ERS1_, symObjAddr: 0x3740, symBinAddr: 0x1000077D0, symSize: 0x14 }
  - { offsetInCU: 0x15A83, offset: 0x15A83, size: 0x8, addend: 0x0, symName: __ZNKSt3__16__lessImmEclB7v160006ERKmS3_, symObjAddr: 0x37A8, symBinAddr: 0x100007838, symSize: 0x34 }
  - { offsetInCU: 0x15AC5, offset: 0x15AC5, size: 0x8, addend: 0x0, symName: __ZNSt3__117basic_string_viewIcNS_11char_traitsIcEEEC1B7v160006EPKcm, symObjAddr: 0x37DC, symBinAddr: 0x10000786C, symSize: 0x3C }
  - { offsetInCU: 0x15B0D, offset: 0x15B0D, size: 0x8, addend: 0x0, symName: __ZNSt3__117basic_string_viewIcNS_11char_traitsIcEEEC2B7v160006EPKcm, symObjAddr: 0x3818, symBinAddr: 0x1000078A8, symSize: 0x2C }
  - { offsetInCU: 0x15B55, offset: 0x15B55, size: 0x8, addend: 0x0, symName: __ZNSt3__112basic_stringIcNS_11char_traitsIcEENS_9allocatorIcEEEC2B7v160006Ev, symObjAddr: 0x3844, symBinAddr: 0x1000078D4, symSize: 0x44 }
  - { offsetInCU: 0x15B84, offset: 0x15B84, size: 0x8, addend: 0x0, symName: __ZNSt3__117__compressed_pairINS_12basic_stringIcNS_11char_traitsIcEENS_9allocatorIcEEE5__repES5_EC1B7v160006INS_18__default_init_tagESA_EEOT_OT0_, symObjAddr: 0x3888, symBinAddr: 0x100007918, symSize: 0x3C }
  - { offsetInCU: 0x15BDC, offset: 0x15BDC, size: 0x8, addend: 0x0, symName: __ZNSt3__112basic_stringIcNS_11char_traitsIcEENS_9allocatorIcEEE14__default_initB7v160006Ev, symObjAddr: 0x38D4, symBinAddr: 0x100007964, symSize: 0xB0 }
  - { offsetInCU: 0x15C2F, offset: 0x15C2F, size: 0x8, addend: 0x0, symName: __ZNSt3__117__compressed_pairINS_12basic_stringIcNS_11char_traitsIcEENS_9allocatorIcEEE5__repES5_EC2B7v160006INS_18__default_init_tagESA_EEOT_OT0_, symObjAddr: 0x3984, symBinAddr: 0x100007A14, symSize: 0x3C }
  - { offsetInCU: 0x15C87, offset: 0x15C87, size: 0x8, addend: 0x0, symName: __ZNSt3__122__compressed_pair_elemINS_12basic_stringIcNS_11char_traitsIcEENS_9allocatorIcEEE5__repELi0ELb0EEC2B7v160006ENS_18__default_init_tagE, symObjAddr: 0x39C0, symBinAddr: 0x100007A50, symSize: 0x14 }
  - { offsetInCU: 0x15CBC, offset: 0x15CBC, size: 0x8, addend: 0x0, symName: __ZNSt3__122__compressed_pair_elemINS_9allocatorIcEELi1ELb1EEC2B7v160006ENS_18__default_init_tagE, symObjAddr: 0x39D4, symBinAddr: 0x100007A64, symSize: 0x2C }
  - { offsetInCU: 0x15CF1, offset: 0x15CF1, size: 0x8, addend: 0x0, symName: __ZNSt3__19allocatorIcEC2B7v160006Ev, symObjAddr: 0x3A00, symBinAddr: 0x100007A90, symSize: 0x2C }
  - { offsetInCU: 0x15D1B, offset: 0x15D1B, size: 0x8, addend: 0x0, symName: __ZNSt3__116__non_trivial_ifILb1ENS_9allocatorIcEEEC2B7v160006Ev, symObjAddr: 0x3A2C, symBinAddr: 0x100007ABC, symSize: 0x14 }
  - { offsetInCU: 0x15D45, offset: 0x15D45, size: 0x8, addend: 0x0, symName: __ZNSt3__117__compressed_pairINS_12basic_stringIcNS_11char_traitsIcEENS_9allocatorIcEEE5__repES5_E5firstB7v160006Ev, symObjAddr: 0x3A40, symBinAddr: 0x100007AD0, symSize: 0x24 }
  - { offsetInCU: 0x15D6B, offset: 0x15D6B, size: 0x8, addend: 0x0, symName: __ZNSt3__112basic_stringIcNS_11char_traitsIcEENS_9allocatorIcEEE11__recommendB7v160006Em, symObjAddr: 0x3A64, symBinAddr: 0x100007AF4, symSize: 0x9C }
  - { offsetInCU: 0x15D9E, offset: 0x15D9E, size: 0x8, addend: 0x0, symName: __ZNSt3__116allocator_traitsINS_9allocatorIcEEE8allocateB7v160006ERS2_m, symObjAddr: 0x3B00, symBinAddr: 0x100007B90, symSize: 0x2C }
  - { offsetInCU: 0x15DD1, offset: 0x15DD1, size: 0x8, addend: 0x0, symName: __ZNSt3__112basic_stringIcNS_11char_traitsIcEENS_9allocatorIcEEE7__allocB7v160006Ev, symObjAddr: 0x3B2C, symBinAddr: 0x100007BBC, symSize: 0x24 }
  - { offsetInCU: 0x15DF7, offset: 0x15DF7, size: 0x8, addend: 0x0, symName: __ZNSt3__112basic_stringIcNS_11char_traitsIcEENS_9allocatorIcEEE16__begin_lifetimeB7v160006EPcm, symObjAddr: 0x3B50, symBinAddr: 0x100007BE0, symSize: 0x14 }
  - { offsetInCU: 0x15E2A, offset: 0x15E2A, size: 0x8, addend: 0x0, symName: __ZNSt3__112basic_stringIcNS_11char_traitsIcEENS_9allocatorIcEEE18__set_long_pointerB7v160006EPc, symObjAddr: 0x3B64, symBinAddr: 0x100007BF4, symSize: 0x38 }
  - { offsetInCU: 0x15E5F, offset: 0x15E5F, size: 0x8, addend: 0x0, symName: __ZNSt3__112basic_stringIcNS_11char_traitsIcEENS_9allocatorIcEEE14__set_long_capB7v160006Em, symObjAddr: 0x3B9C, symBinAddr: 0x100007C2C, symSize: 0x70 }
  - { offsetInCU: 0x15E94, offset: 0x15E94, size: 0x8, addend: 0x0, symName: __ZNSt3__112basic_stringIcNS_11char_traitsIcEENS_9allocatorIcEEE15__set_long_sizeB7v160006Em, symObjAddr: 0x3C0C, symBinAddr: 0x100007C9C, symSize: 0x38 }
  - { offsetInCU: 0x15EC9, offset: 0x15EC9, size: 0x8, addend: 0x0, symName: __ZNSt3__122__compressed_pair_elemINS_12basic_stringIcNS_11char_traitsIcEENS_9allocatorIcEEE5__repELi0ELb0EE5__getB7v160006Ev, symObjAddr: 0x3C44, symBinAddr: 0x100007CD4, symSize: 0x14 }
  - { offsetInCU: 0x15EEF, offset: 0x15EEF, size: 0x8, addend: 0x0, symName: __ZNSt3__112basic_stringIcNS_11char_traitsIcEENS_9allocatorIcEEE10__align_itB7v160006ILm16EEEmm, symObjAddr: 0x3C58, symBinAddr: 0x100007CE8, symSize: 0x1C }
  - { offsetInCU: 0x15F1D, offset: 0x15F1D, size: 0x8, addend: 0x0, symName: __ZNSt3__19allocatorIcE8allocateB7v160006Em, symObjAddr: 0x3C74, symBinAddr: 0x100007D04, symSize: 0x84 }
  - { offsetInCU: 0x15F5B, offset: 0x15F5B, size: 0x8, addend: 0x0, symName: __ZNSt3__116allocator_traitsINS_9allocatorIcEEE8max_sizeB7v160006IS2_vEEmRKS2_, symObjAddr: 0x3CF8, symBinAddr: 0x100007D88, symSize: 0x24 }
  - { offsetInCU: 0x15F89, offset: 0x15F89, size: 0x8, addend: 0x0, symName: __ZNKSt3__19allocatorIcE8max_sizeB7v160006Ev, symObjAddr: 0x3D78, symBinAddr: 0x100007E08, symSize: 0x14 }
  - { offsetInCU: 0x15FAF, offset: 0x15FAF, size: 0x8, addend: 0x0, symName: __ZNSt3__117__compressed_pairINS_12basic_stringIcNS_11char_traitsIcEENS_9allocatorIcEEE5__repES5_E6secondB7v160006Ev, symObjAddr: 0x3DB0, symBinAddr: 0x100007E40, symSize: 0x24 }
  - { offsetInCU: 0x15FD5, offset: 0x15FD5, size: 0x8, addend: 0x0, symName: __ZNSt3__122__compressed_pair_elemINS_9allocatorIcEELi1ELb1EE5__getB7v160006Ev, symObjAddr: 0x3DD4, symBinAddr: 0x100007E64, symSize: 0x14 }
  - { offsetInCU: 0x15FFB, offset: 0x15FFB, size: 0x8, addend: 0x0, symName: __ZNSt3__16vectorI13BitacoraLineaNS_9allocatorIS1_EEEC2B7v160006Ev, symObjAddr: 0x3DE8, symBinAddr: 0x100007E78, symSize: 0x4C }
  - { offsetInCU: 0x1602A, offset: 0x1602A, size: 0x8, addend: 0x0, symName: __ZNSt3__117__compressed_pairIP13BitacoraLineaNS_9allocatorIS1_EEEC1B7v160006IDnNS_18__default_init_tagEEEOT_OT0_, symObjAddr: 0x3E34, symBinAddr: 0x100007EC4, symSize: 0x3C }
  - { offsetInCU: 0x16082, offset: 0x16082, size: 0x8, addend: 0x0, symName: __ZNSt3__117__compressed_pairIP13BitacoraLineaNS_9allocatorIS1_EEEC2B7v160006IDnNS_18__default_init_tagEEEOT_OT0_, symObjAddr: 0x3E80, symBinAddr: 0x100007F10, symSize: 0x40 }
  - { offsetInCU: 0x160DA, offset: 0x160DA, size: 0x8, addend: 0x0, symName: __ZNSt3__122__compressed_pair_elemIP13BitacoraLineaLi0ELb0EEC2B7v160006IDnvEEOT_, symObjAddr: 0x3EC0, symBinAddr: 0x100007F50, symSize: 0x1C }
  - { offsetInCU: 0x1611C, offset: 0x1611C, size: 0x8, addend: 0x0, symName: __ZNSt3__122__compressed_pair_elemINS_9allocatorI13BitacoraLineaEELi1ELb1EEC2B7v160006ENS_18__default_init_tagE, symObjAddr: 0x3EDC, symBinAddr: 0x100007F6C, symSize: 0x2C }
  - { offsetInCU: 0x16151, offset: 0x16151, size: 0x8, addend: 0x0, symName: __ZNSt3__19allocatorI13BitacoraLineaEC2B7v160006Ev, symObjAddr: 0x3F08, symBinAddr: 0x100007F98, symSize: 0x2C }
  - { offsetInCU: 0x1617B, offset: 0x1617B, size: 0x8, addend: 0x0, symName: __ZNSt3__116__non_trivial_ifILb1ENS_9allocatorI13BitacoraLineaEEEC2B7v160006Ev, symObjAddr: 0x3F34, symBinAddr: 0x100007FC4, symSize: 0x14 }
  - { offsetInCU: 0x161A5, offset: 0x161A5, size: 0x8, addend: 0x0, symName: __ZNSt3__16vectorI13BitacoraLineaNS_9allocatorIS1_EEED2B7v160006Ev, symObjAddr: 0x3F48, symBinAddr: 0x100007FD8, symSize: 0x3C }
  - { offsetInCU: 0x161CF, offset: 0x161CF, size: 0x8, addend: 0x0, symName: __ZNSt3__16vectorI13BitacoraLineaNS_9allocatorIS1_EEE16__destroy_vectorC1ERS4_, symObjAddr: 0x3F84, symBinAddr: 0x100008014, symSize: 0x34 }
  - { offsetInCU: 0x16208, offset: 0x16208, size: 0x8, addend: 0x0, symName: __ZNSt3__16vectorI13BitacoraLineaNS_9allocatorIS1_EEE16__destroy_vectorclB7v160006Ev, symObjAddr: 0x3FB8, symBinAddr: 0x100008048, symSize: 0x9C }
  - { offsetInCU: 0x1622E, offset: 0x1622E, size: 0x8, addend: 0x0, symName: __ZNSt3__16vectorI13BitacoraLineaNS_9allocatorIS1_EEE16__destroy_vectorC2ERS4_, symObjAddr: 0x4054, symBinAddr: 0x1000080E4, symSize: 0x20 }
  - { offsetInCU: 0x16267, offset: 0x16267, size: 0x8, addend: 0x0, symName: __ZNKSt3__16vectorI13BitacoraLineaNS_9allocatorIS1_EEE17__annotate_deleteB7v160006Ev, symObjAddr: 0x4074, symBinAddr: 0x100008104, symSize: 0xD4 }
  - { offsetInCU: 0x1628D, offset: 0x1628D, size: 0x8, addend: 0x0, symName: __ZNSt3__16vectorI13BitacoraLineaNS_9allocatorIS1_EEE7__clearB7v160006Ev, symObjAddr: 0x4158, symBinAddr: 0x1000081E8, symSize: 0x28 }
  - { offsetInCU: 0x162B3, offset: 0x162B3, size: 0x8, addend: 0x0, symName: __ZNSt3__116allocator_traitsINS_9allocatorI13BitacoraLineaEEE10deallocateB7v160006ERS3_PS2_m, symObjAddr: 0x4180, symBinAddr: 0x100008210, symSize: 0x34 }
  - { offsetInCU: 0x162F5, offset: 0x162F5, size: 0x8, addend: 0x0, symName: __ZNSt3__16vectorI13BitacoraLineaNS_9allocatorIS1_EEE7__allocB7v160006Ev, symObjAddr: 0x41B4, symBinAddr: 0x100008244, symSize: 0x28 }
  - { offsetInCU: 0x1631B, offset: 0x1631B, size: 0x8, addend: 0x0, symName: __ZNKSt3__16vectorI13BitacoraLineaNS_9allocatorIS1_EEE8capacityB7v160006Ev, symObjAddr: 0x41DC, symBinAddr: 0x10000826C, symSize: 0x40 }
  - { offsetInCU: 0x16341, offset: 0x16341, size: 0x8, addend: 0x0, symName: __ZNKSt3__16vectorI13BitacoraLineaNS_9allocatorIS1_EEE31__annotate_contiguous_containerB7v160006EPKvS6_S6_S6_, symObjAddr: 0x421C, symBinAddr: 0x1000082AC, symSize: 0x20 }
  - { offsetInCU: 0x16397, offset: 0x16397, size: 0x8, addend: 0x0, symName: __ZNKSt3__16vectorI13BitacoraLineaNS_9allocatorIS1_EEE4dataB7v160006Ev, symObjAddr: 0x423C, symBinAddr: 0x1000082CC, symSize: 0x28 }
  - { offsetInCU: 0x163BD, offset: 0x163BD, size: 0x8, addend: 0x0, symName: __ZNSt3__16vectorI13BitacoraLineaNS_9allocatorIS1_EEE22__base_destruct_at_endB7v160006EPS1_, symObjAddr: 0x4278, symBinAddr: 0x100008308, symSize: 0xA0 }
  - { offsetInCU: 0x16401, offset: 0x16401, size: 0x8, addend: 0x0, symName: __ZNSt3__116allocator_traitsINS_9allocatorI13BitacoraLineaEEE7destroyB7v160006IS2_vEEvRS3_PT_, symObjAddr: 0x4318, symBinAddr: 0x1000083A8, symSize: 0x2C }
  - { offsetInCU: 0x1643E, offset: 0x1643E, size: 0x8, addend: 0x0, symName: __ZNSt3__19allocatorI13BitacoraLineaE7destroyB7v160006EPS1_, symObjAddr: 0x4344, symBinAddr: 0x1000083D4, symSize: 0x28 }
  - { offsetInCU: 0x16472, offset: 0x16472, size: 0x8, addend: 0x0, symName: __ZNSt3__19allocatorI13BitacoraLineaE10deallocateB7v160006EPS1_m, symObjAddr: 0x436C, symBinAddr: 0x1000083FC, symSize: 0x74 }
  - { offsetInCU: 0x164B4, offset: 0x164B4, size: 0x8, addend: 0x0, symName: __ZNSt3__117__compressed_pairIP13BitacoraLineaNS_9allocatorIS1_EEE6secondB7v160006Ev, symObjAddr: 0x445C, symBinAddr: 0x1000084EC, symSize: 0x24 }
  - { offsetInCU: 0x164DA, offset: 0x164DA, size: 0x8, addend: 0x0, symName: __ZNSt3__122__compressed_pair_elemINS_9allocatorI13BitacoraLineaEELi1ELb1EE5__getB7v160006Ev, symObjAddr: 0x4480, symBinAddr: 0x100008510, symSize: 0x14 }
  - { offsetInCU: 0x16500, offset: 0x16500, size: 0x8, addend: 0x0, symName: __ZNKSt3__16vectorI13BitacoraLineaNS_9allocatorIS1_EEE9__end_capB7v160006Ev, symObjAddr: 0x4494, symBinAddr: 0x100008524, symSize: 0x28 }
  - { offsetInCU: 0x16526, offset: 0x16526, size: 0x8, addend: 0x0, symName: __ZNKSt3__117__compressed_pairIP13BitacoraLineaNS_9allocatorIS1_EEE5firstB7v160006Ev, symObjAddr: 0x44BC, symBinAddr: 0x10000854C, symSize: 0x24 }
  - { offsetInCU: 0x1654C, offset: 0x1654C, size: 0x8, addend: 0x0, symName: __ZNKSt3__122__compressed_pair_elemIP13BitacoraLineaLi0ELb0EE5__getB7v160006Ev, symObjAddr: 0x44E0, symBinAddr: 0x100008570, symSize: 0x14 }
  - { offsetInCU: 0x16572, offset: 0x16572, size: 0x8, addend: 0x0, symName: __ZNSt3__19basic_iosIcNS_11char_traitsIcEEEC2B7v160006Ev, symObjAddr: 0x44F4, symBinAddr: 0x100008584, symSize: 0x44 }
  - { offsetInCU: 0x1659C, offset: 0x1659C, size: 0x8, addend: 0x0, symName: __ZNSt3__113basic_istreamIcNS_11char_traitsIcEEEC2B7v160006EPNS_15basic_streambufIcS2_EE, symObjAddr: 0x4538, symBinAddr: 0x1000085C8, symSize: 0x64 }
  - { offsetInCU: 0x165E1, offset: 0x165E1, size: 0x8, addend: 0x0, symName: __ZNSt3__18ios_baseC2B7v160006Ev, symObjAddr: 0x459C, symBinAddr: 0x10000862C, symSize: 0x24 }
  - { offsetInCU: 0x1660B, offset: 0x1660B, size: 0x8, addend: 0x0, symName: __ZNSt3__19basic_iosIcNS_11char_traitsIcEEE4initB7v160006EPNS_15basic_streambufIcS2_EE, symObjAddr: 0x45C0, symBinAddr: 0x100008650, symSize: 0x44 }
  - { offsetInCU: 0x16641, offset: 0x16641, size: 0x8, addend: 0x0, symName: __ZNSt3__111char_traitsIcE3eofEv, symObjAddr: 0x4604, symBinAddr: 0x100008694, symSize: 0x8 }
  - { offsetInCU: 0x16655, offset: 0x16655, size: 0x8, addend: 0x0, symName: __ZNKSt3__113basic_filebufIcNS_11char_traitsIcEEE7is_openEv, symObjAddr: 0x460C, symBinAddr: 0x10000869C, symSize: 0x24 }
  - { offsetInCU: 0x1667D, offset: 0x1667D, size: 0x8, addend: 0x0, symName: __ZNSt3__111char_traitsIcE6lengthEPKc, symObjAddr: 0x4824, symBinAddr: 0x1000088B4, symSize: 0x48 }
  - { offsetInCU: 0x166BE, offset: 0x166BE, size: 0x8, addend: 0x0, symName: __ZNKSt3__113basic_ostreamIcNS_11char_traitsIcEEE6sentrycvbB7v160006Ev, symObjAddr: 0x486C, symBinAddr: 0x1000088FC, symSize: 0x1C }
  - { offsetInCU: 0x166E4, offset: 0x166E4, size: 0x8, addend: 0x0, symName: __ZNSt3__119ostreambuf_iteratorIcNS_11char_traitsIcEEEC1B7v160006ERNS_13basic_ostreamIcS2_EE, symObjAddr: 0x4AD0, symBinAddr: 0x100008B60, symSize: 0x34 }
  - { offsetInCU: 0x1671C, offset: 0x1671C, size: 0x8, addend: 0x0, symName: __ZNKSt3__18ios_base5flagsB7v160006Ev, symObjAddr: 0x4B04, symBinAddr: 0x100008B94, symSize: 0x18 }
  - { offsetInCU: 0x16744, offset: 0x16744, size: 0x8, addend: 0x0, symName: __ZNKSt3__19basic_iosIcNS_11char_traitsIcEEE4fillB7v160006Ev, symObjAddr: 0x4B1C, symBinAddr: 0x100008BAC, symSize: 0x64 }
  - { offsetInCU: 0x1676B, offset: 0x1676B, size: 0x8, addend: 0x0, symName: __ZNKSt3__119ostreambuf_iteratorIcNS_11char_traitsIcEEE6failedB7v160006Ev, symObjAddr: 0x4B80, symBinAddr: 0x100008C10, symSize: 0x24 }
  - { offsetInCU: 0x16791, offset: 0x16791, size: 0x8, addend: 0x0, symName: __ZNSt3__19basic_iosIcNS_11char_traitsIcEEE8setstateB7v160006Ej, symObjAddr: 0x4BA4, symBinAddr: 0x100008C34, symSize: 0x2C }
  - { offsetInCU: 0x167C6, offset: 0x167C6, size: 0x8, addend: 0x0, symName: __ZNKSt3__18ios_base5widthB7v160006Ev, symObjAddr: 0x4BD0, symBinAddr: 0x100008C60, symSize: 0x18 }
  - { offsetInCU: 0x167EE, offset: 0x167EE, size: 0x8, addend: 0x0, symName: __ZNSt3__115basic_streambufIcNS_11char_traitsIcEEE5sputnB7v160006EPKcl, symObjAddr: 0x4BE8, symBinAddr: 0x100008C78, symSize: 0x3C }
  - { offsetInCU: 0x16830, offset: 0x16830, size: 0x8, addend: 0x0, symName: __ZNSt3__112basic_stringIcNS_11char_traitsIcEENS_9allocatorIcEEEC1B7v160006Emc, symObjAddr: 0x4C24, symBinAddr: 0x100008CB4, symSize: 0x3C }
  - { offsetInCU: 0x16878, offset: 0x16878, size: 0x8, addend: 0x0, symName: __ZNSt3__18ios_base5widthB7v160006El, symObjAddr: 0x4C60, symBinAddr: 0x100008CF0, symSize: 0x2C }
  - { offsetInCU: 0x168BE, offset: 0x168BE, size: 0x8, addend: 0x0, symName: __ZNSt3__112basic_stringIcNS_11char_traitsIcEENS_9allocatorIcEEEC2B7v160006Emc, symObjAddr: 0x4C8C, symBinAddr: 0x100008D1C, symSize: 0x54 }
  - { offsetInCU: 0x16906, offset: 0x16906, size: 0x8, addend: 0x0, symName: __ZNSt3__119ostreambuf_iteratorIcNS_11char_traitsIcEEEC2B7v160006ERNS_13basic_ostreamIcS2_EE, symObjAddr: 0x4CE0, symBinAddr: 0x100008D70, symSize: 0x68 }
  - { offsetInCU: 0x1693E, offset: 0x1693E, size: 0x8, addend: 0x0, symName: __ZNKSt3__19basic_iosIcNS_11char_traitsIcEEE5rdbufB7v160006Ev, symObjAddr: 0x4D48, symBinAddr: 0x100008DD8, symSize: 0x24 }
  - { offsetInCU: 0x16965, offset: 0x16965, size: 0x8, addend: 0x0, symName: __ZNKSt3__18ios_base5rdbufB7v160006Ev, symObjAddr: 0x4D6C, symBinAddr: 0x100008DFC, symSize: 0x18 }
  - { offsetInCU: 0x1698B, offset: 0x1698B, size: 0x8, addend: 0x0, symName: __ZNSt3__111char_traitsIcE11eq_int_typeEii, symObjAddr: 0x4D84, symBinAddr: 0x100008E14, symSize: 0x28 }
  - { offsetInCU: 0x169BC, offset: 0x169BC, size: 0x8, addend: 0x0, symName: __ZNKSt3__19basic_iosIcNS_11char_traitsIcEEE5widenB7v160006Ec, symObjAddr: 0x4DAC, symBinAddr: 0x100008E3C, symSize: 0x8C }
  - { offsetInCU: 0x16A29, offset: 0x16A29, size: 0x8, addend: 0x0, symName: __ZNKSt3__15ctypeIcE5widenB7v160006Ec, symObjAddr: 0x4E64, symBinAddr: 0x100008EF4, symSize: 0x38 }
  - { offsetInCU: 0x16A5E, offset: 0x16A5E, size: 0x8, addend: 0x0, symName: __ZNSt3__18ios_base8setstateB7v160006Ej, symObjAddr: 0x4E9C, symBinAddr: 0x100008F2C, symSize: 0x34 }
  - { offsetInCU: 0x16A94, offset: 0x16A94, size: 0x8, addend: 0x0, symName: __ZNKSt3__19basic_iosIcNS_11char_traitsIcEEE4failB7v160006Ev, symObjAddr: 0x4EF4, symBinAddr: 0x100008F84, symSize: 0x28 }
  - { offsetInCU: 0x16ABA, offset: 0x16ABA, size: 0x8, addend: 0x0, symName: __ZNKSt3__18ios_base4failB7v160006Ev, symObjAddr: 0x4F1C, symBinAddr: 0x100008FAC, symSize: 0x28 }
  - { offsetInCU: 0x16AE2, offset: 0x16AE2, size: 0x8, addend: 0x0, symName: __ZNSt3__115basic_stringbufIcNS_11char_traitsIcEENS_9allocatorIcEEEC1B7v160006ERKNS_12basic_stringIcS2_S4_EEj, symObjAddr: 0x4F44, symBinAddr: 0x100008FD4, symSize: 0x3C }
  - { offsetInCU: 0x16B28, offset: 0x16B28, size: 0x8, addend: 0x0, symName: __ZNSt3__115basic_stringbufIcNS_11char_traitsIcEENS_9allocatorIcEEEC2B7v160006ERKNS_12basic_stringIcS2_S4_EEj, symObjAddr: 0x4F80, symBinAddr: 0x100009010, symSize: 0xD8 }
  - { offsetInCU: 0x16B6E, offset: 0x16B6E, size: 0x8, addend: 0x0, symName: __ZNKSt3__112basic_stringIcNS_11char_traitsIcEENS_9allocatorIcEEE13get_allocatorB7v160006Ev, symObjAddr: 0x5058, symBinAddr: 0x1000090E8, symSize: 0x24 }
  - { offsetInCU: 0x16B94, offset: 0x16B94, size: 0x8, addend: 0x0, symName: __ZNSt3__112basic_stringIcNS_11char_traitsIcEENS_9allocatorIcEEEC1B7v160006ERKS4_, symObjAddr: 0x507C, symBinAddr: 0x10000910C, symSize: 0x34 }
  - { offsetInCU: 0x16BCD, offset: 0x16BCD, size: 0x8, addend: 0x0, symName: __ZNKSt3__112basic_stringIcNS_11char_traitsIcEENS_9allocatorIcEEE7__allocB7v160006Ev, symObjAddr: 0x50B0, symBinAddr: 0x100009140, symSize: 0x24 }
  - { offsetInCU: 0x16BF3, offset: 0x16BF3, size: 0x8, addend: 0x0, symName: __ZNKSt3__117__compressed_pairINS_12basic_stringIcNS_11char_traitsIcEENS_9allocatorIcEEE5__repES5_E6secondB7v160006Ev, symObjAddr: 0x50D4, symBinAddr: 0x100009164, symSize: 0x24 }
  - { offsetInCU: 0x16C19, offset: 0x16C19, size: 0x8, addend: 0x0, symName: __ZNKSt3__122__compressed_pair_elemINS_9allocatorIcEELi1ELb1EE5__getB7v160006Ev, symObjAddr: 0x50F8, symBinAddr: 0x100009188, symSize: 0x14 }
  - { offsetInCU: 0x16C3F, offset: 0x16C3F, size: 0x8, addend: 0x0, symName: __ZNSt3__112basic_stringIcNS_11char_traitsIcEENS_9allocatorIcEEEC2B7v160006ERKS4_, symObjAddr: 0x510C, symBinAddr: 0x10000919C, symSize: 0x48 }
  - { offsetInCU: 0x16C78, offset: 0x16C78, size: 0x8, addend: 0x0, symName: __ZNSt3__117__compressed_pairINS_12basic_stringIcNS_11char_traitsIcEENS_9allocatorIcEEE5__repES5_EC1B7v160006INS_18__default_init_tagERKS5_EEOT_OT0_, symObjAddr: 0x5154, symBinAddr: 0x1000091E4, symSize: 0x3C }
  - { offsetInCU: 0x16CD0, offset: 0x16CD0, size: 0x8, addend: 0x0, symName: __ZNSt3__117__compressed_pairINS_12basic_stringIcNS_11char_traitsIcEENS_9allocatorIcEEE5__repES5_EC2B7v160006INS_18__default_init_tagERKS5_EEOT_OT0_, symObjAddr: 0x5190, symBinAddr: 0x100009220, symSize: 0x40 }
  - { offsetInCU: 0x16D28, offset: 0x16D28, size: 0x8, addend: 0x0, symName: __ZNSt3__122__compressed_pair_elemINS_9allocatorIcEELi1ELb1EEC2B7v160006IRKS2_vEEOT_, symObjAddr: 0x51D0, symBinAddr: 0x100009260, symSize: 0x18 }
  - { offsetInCU: 0x16D88, offset: 0x16D88, size: 0x8, addend: 0x0, symName: __ZNKSt3__113basic_istreamIcNS_11char_traitsIcEEE6sentrycvbB7v160006Ev, symObjAddr: 0x51E8, symBinAddr: 0x100009278, symSize: 0x1C }
  - { offsetInCU: 0x16DAE, offset: 0x16DAE, size: 0x8, addend: 0x0, symName: __ZNSt3__112basic_stringIcNS_11char_traitsIcEENS_9allocatorIcEEE5clearB7v160006Ev, symObjAddr: 0x5204, symBinAddr: 0x100009294, symSize: 0x9C }
  - { offsetInCU: 0x16DD5, offset: 0x16DD5, size: 0x8, addend: 0x0, symName: __ZNSt3__115basic_streambufIcNS_11char_traitsIcEEE6sbumpcB7v160006Ev, symObjAddr: 0x52A0, symBinAddr: 0x100009330, symSize: 0x78 }
  - { offsetInCU: 0x16DFB, offset: 0x16DFB, size: 0x8, addend: 0x0, symName: __ZNSt3__111char_traitsIcE12to_char_typeEi, symObjAddr: 0x5318, symBinAddr: 0x1000093A8, symSize: 0x18 }
  - { offsetInCU: 0x16E1E, offset: 0x16E1E, size: 0x8, addend: 0x0, symName: __ZNSt3__111char_traitsIcE2eqEcc, symObjAddr: 0x5330, symBinAddr: 0x1000093C0, symSize: 0x28 }
  - { offsetInCU: 0x16E4F, offset: 0x16E4F, size: 0x8, addend: 0x0, symName: __ZNKSt3__112basic_stringIcNS_11char_traitsIcEENS_9allocatorIcEEE8max_sizeB7v160006Ev, symObjAddr: 0x5358, symBinAddr: 0x1000093E8, symSize: 0xAC }
  - { offsetInCU: 0x16EA2, offset: 0x16EA2, size: 0x8, addend: 0x0, symName: __ZNSt3__18ios_base18__setstate_nothrowB7v160006Ej, symObjAddr: 0x5404, symBinAddr: 0x100009494, symSize: 0x64 }
  - { offsetInCU: 0x16ED7, offset: 0x16ED7, size: 0x8, addend: 0x0, symName: __ZNKSt3__19basic_iosIcNS_11char_traitsIcEEE10exceptionsB7v160006Ev, symObjAddr: 0x5468, symBinAddr: 0x1000094F8, symSize: 0x24 }
  - { offsetInCU: 0x16EFD, offset: 0x16EFD, size: 0x8, addend: 0x0, symName: __ZNSt3__111char_traitsIcE6assignERcRKc, symObjAddr: 0x549C, symBinAddr: 0x10000952C, symSize: 0x24 }
  - { offsetInCU: 0x16F2E, offset: 0x16F2E, size: 0x8, addend: 0x0, symName: __ZNSt3__112basic_stringIcNS_11char_traitsIcEENS_9allocatorIcEEE18__get_long_pointerB7v160006Ev, symObjAddr: 0x54C0, symBinAddr: 0x100009550, symSize: 0x28 }
  - { offsetInCU: 0x16F54, offset: 0x16F54, size: 0x8, addend: 0x0, symName: __ZNSt3__112basic_stringIcNS_11char_traitsIcEENS_9allocatorIcEEE19__get_short_pointerB7v160006Ev, symObjAddr: 0x54E8, symBinAddr: 0x100009578, symSize: 0x28 }
  - { offsetInCU: 0x16F7A, offset: 0x16F7A, size: 0x8, addend: 0x0, symName: __ZNSt3__112basic_stringIcNS_11char_traitsIcEENS_9allocatorIcEEE16__set_short_sizeB7v160006Em, symObjAddr: 0x5510, symBinAddr: 0x1000095A0, symSize: 0x78 }
  - { offsetInCU: 0x16FAF, offset: 0x16FAF, size: 0x8, addend: 0x0, symName: __ZNSt3__114pointer_traitsIPcE10pointer_toB7v160006ERc, symObjAddr: 0x5588, symBinAddr: 0x100009618, symSize: 0x14 }
  - { offsetInCU: 0x16FD2, offset: 0x16FD2, size: 0x8, addend: 0x0, symName: __ZNSt3__111char_traitsIcE11to_int_typeEc, symObjAddr: 0x559C, symBinAddr: 0x10000962C, symSize: 0x14 }
  - { offsetInCU: 0x16FF5, offset: 0x16FF5, size: 0x8, addend: 0x0, symName: __ZNSt3__114numeric_limitsImE3maxB7v160006Ev, symObjAddr: 0x55B0, symBinAddr: 0x100009640, symSize: 0x14 }
  - { offsetInCU: 0x17009, offset: 0x17009, size: 0x8, addend: 0x0, symName: __ZNSt3__123__libcpp_numeric_limitsImLb1EE3maxB7v160006Ev, symObjAddr: 0x55C4, symBinAddr: 0x100009654, symSize: 0x8 }
  - { offsetInCU: 0x1701D, offset: 0x1701D, size: 0x8, addend: 0x0, symName: __ZNKSt3__18ios_base10exceptionsB7v160006Ev, symObjAddr: 0x55CC, symBinAddr: 0x10000965C, symSize: 0x18 }
  - { offsetInCU: 0x17045, offset: 0x17045, size: 0x8, addend: 0x0, symName: __ZNSt3__16vectorI13BitacoraLineaNS_9allocatorIS1_EEE9__end_capB7v160006Ev, symObjAddr: 0x55E4, symBinAddr: 0x100009674, symSize: 0x28 }
  - { offsetInCU: 0x1706B, offset: 0x1706B, size: 0x8, addend: 0x0, symName: __ZNSt3__16vectorI13BitacoraLineaNS_9allocatorIS1_EEE22__construct_one_at_endB7v160006IJRKS1_EEEvDpOT_, symObjAddr: 0x560C, symBinAddr: 0x10000969C, symSize: 0x98 }
  - { offsetInCU: 0x170BA, offset: 0x170BA, size: 0x8, addend: 0x0, symName: __ZNSt3__16vectorI13BitacoraLineaNS_9allocatorIS1_EEE21__push_back_slow_pathIRKS1_EEvOT_, symObjAddr: 0x56A4, symBinAddr: 0x100009734, symSize: 0xE0 }
  - { offsetInCU: 0x17117, offset: 0x17117, size: 0x8, addend: 0x0, symName: __ZNSt3__117__compressed_pairIP13BitacoraLineaNS_9allocatorIS1_EEE5firstB7v160006Ev, symObjAddr: 0x5784, symBinAddr: 0x100009814, symSize: 0x24 }
  - { offsetInCU: 0x1713D, offset: 0x1713D, size: 0x8, addend: 0x0, symName: __ZNSt3__122__compressed_pair_elemIP13BitacoraLineaLi0ELb0EE5__getB7v160006Ev, symObjAddr: 0x57A8, symBinAddr: 0x100009838, symSize: 0x14 }
  - { offsetInCU: 0x1717C, offset: 0x1717C, size: 0x8, addend: 0x0, symName: __ZNSt3__16vectorI13BitacoraLineaNS_9allocatorIS1_EEE21_ConstructTransactionC1B7v160006ERS4_m, symObjAddr: 0x57BC, symBinAddr: 0x10000984C, symSize: 0x3C }
  - { offsetInCU: 0x171C4, offset: 0x171C4, size: 0x8, addend: 0x0, symName: __ZNSt3__116allocator_traitsINS_9allocatorI13BitacoraLineaEEE9constructB7v160006IS2_JRKS2_EvEEvRS3_PT_DpOT0_, symObjAddr: 0x57F8, symBinAddr: 0x100009888, symSize: 0x34 }
  - { offsetInCU: 0x1721B, offset: 0x1721B, size: 0x8, addend: 0x0, symName: __ZNSt3__16vectorI13BitacoraLineaNS_9allocatorIS1_EEE21_ConstructTransactionD1B7v160006Ev, symObjAddr: 0x582C, symBinAddr: 0x1000098BC, symSize: 0x2C }
  - { offsetInCU: 0x17245, offset: 0x17245, size: 0x8, addend: 0x0, symName: __ZNSt3__16vectorI13BitacoraLineaNS_9allocatorIS1_EEE21_ConstructTransactionC2B7v160006ERS4_m, symObjAddr: 0x5858, symBinAddr: 0x1000098E8, symSize: 0x4C }
  - { offsetInCU: 0x1728D, offset: 0x1728D, size: 0x8, addend: 0x0, symName: __ZNSt3__19allocatorI13BitacoraLineaE9constructB7v160006IS1_JRKS1_EEEvPT_DpOT0_, symObjAddr: 0x58A4, symBinAddr: 0x100009934, symSize: 0x30 }
  - { offsetInCU: 0x172E3, offset: 0x172E3, size: 0x8, addend: 0x0, symName: __ZNSt3__16vectorI13BitacoraLineaNS_9allocatorIS1_EEE21_ConstructTransactionD2B7v160006Ev, symObjAddr: 0x58D4, symBinAddr: 0x100009964, symSize: 0x20 }
  - { offsetInCU: 0x1730D, offset: 0x1730D, size: 0x8, addend: 0x0, symName: __ZNKSt3__16vectorI13BitacoraLineaNS_9allocatorIS1_EEE11__recommendB7v160006Em, symObjAddr: 0x58F4, symBinAddr: 0x100009984, symSize: 0xB4 }
  - { offsetInCU: 0x17361, offset: 0x17361, size: 0x8, addend: 0x0, symName: __ZNSt3__114__split_bufferI13BitacoraLineaRNS_9allocatorIS1_EEEC1EmmS4_, symObjAddr: 0x59A8, symBinAddr: 0x100009A38, symSize: 0x44 }
  - { offsetInCU: 0x173B7, offset: 0x173B7, size: 0x8, addend: 0x0, symName: __ZNSt3__114__split_bufferI13BitacoraLineaRNS_9allocatorIS1_EEED1Ev, symObjAddr: 0x5B04, symBinAddr: 0x100009B94, symSize: 0x2C }
  - { offsetInCU: 0x173E3, offset: 0x173E3, size: 0x8, addend: 0x0, symName: __ZNKSt3__16vectorI13BitacoraLineaNS_9allocatorIS1_EEE8max_sizeEv, symObjAddr: 0x5B30, symBinAddr: 0x100009BC0, symSize: 0x74 }
  - { offsetInCU: 0x1740A, offset: 0x1740A, size: 0x8, addend: 0x0, symName: __ZNKSt3__16vectorI13BitacoraLineaNS_9allocatorIS1_EEE20__throw_length_errorB7v160006Ev, symObjAddr: 0x5BA4, symBinAddr: 0x100009C34, symSize: 0x1C }
  - { offsetInCU: 0x1743A, offset: 0x1743A, size: 0x8, addend: 0x0, symName: __ZNSt3__116allocator_traitsINS_9allocatorI13BitacoraLineaEEE8max_sizeB7v160006IS3_vEEmRKS3_, symObjAddr: 0x5BEC, symBinAddr: 0x100009C7C, symSize: 0x24 }
  - { offsetInCU: 0x17468, offset: 0x17468, size: 0x8, addend: 0x0, symName: __ZNKSt3__16vectorI13BitacoraLineaNS_9allocatorIS1_EEE7__allocB7v160006Ev, symObjAddr: 0x5C10, symBinAddr: 0x100009CA0, symSize: 0x28 }
  - { offsetInCU: 0x1748E, offset: 0x1748E, size: 0x8, addend: 0x0, symName: __ZNSt3__114numeric_limitsIlE3maxB7v160006Ev, symObjAddr: 0x5C38, symBinAddr: 0x100009CC8, symSize: 0x14 }
  - { offsetInCU: 0x174A2, offset: 0x174A2, size: 0x8, addend: 0x0, symName: __ZNKSt3__19allocatorI13BitacoraLineaE8max_sizeB7v160006Ev, symObjAddr: 0x5C4C, symBinAddr: 0x100009CDC, symSize: 0x18 }
  - { offsetInCU: 0x174C8, offset: 0x174C8, size: 0x8, addend: 0x0, symName: __ZNKSt3__117__compressed_pairIP13BitacoraLineaNS_9allocatorIS1_EEE6secondB7v160006Ev, symObjAddr: 0x5C64, symBinAddr: 0x100009CF4, symSize: 0x24 }
  - { offsetInCU: 0x174EE, offset: 0x174EE, size: 0x8, addend: 0x0, symName: __ZNKSt3__122__compressed_pair_elemINS_9allocatorI13BitacoraLineaEELi1ELb1EE5__getB7v160006Ev, symObjAddr: 0x5C88, symBinAddr: 0x100009D18, symSize: 0x14 }
  - { offsetInCU: 0x17514, offset: 0x17514, size: 0x8, addend: 0x0, symName: __ZNSt3__123__libcpp_numeric_limitsIlLb1EE3maxB7v160006Ev, symObjAddr: 0x5C9C, symBinAddr: 0x100009D2C, symSize: 0x8 }
  - { offsetInCU: 0x17528, offset: 0x17528, size: 0x8, addend: 0x0, symName: __ZNSt12length_errorC1B7v160006EPKc, symObjAddr: 0x5D08, symBinAddr: 0x100009D98, symSize: 0x34 }
  - { offsetInCU: 0x17560, offset: 0x17560, size: 0x8, addend: 0x0, symName: __ZNSt12length_errorC2B7v160006EPKc, symObjAddr: 0x5D3C, symBinAddr: 0x100009DCC, symSize: 0x4C }
  - { offsetInCU: 0x17598, offset: 0x17598, size: 0x8, addend: 0x0, symName: __ZNSt3__114__split_bufferI13BitacoraLineaRNS_9allocatorIS1_EEEC2EmmS4_, symObjAddr: 0x5DDC, symBinAddr: 0x100009E6C, symSize: 0xE0 }
  - { offsetInCU: 0x1760C, offset: 0x1760C, size: 0x8, addend: 0x0, symName: __ZNSt3__117__compressed_pairIP13BitacoraLineaRNS_9allocatorIS1_EEEC1B7v160006IDnS5_EEOT_OT0_, symObjAddr: 0x5EBC, symBinAddr: 0x100009F4C, symSize: 0x3C }
  - { offsetInCU: 0x17664, offset: 0x17664, size: 0x8, addend: 0x0, symName: __ZNSt3__114__split_bufferI13BitacoraLineaRNS_9allocatorIS1_EEE7__allocB7v160006Ev, symObjAddr: 0x5F38, symBinAddr: 0x100009FC8, symSize: 0x28 }
  - { offsetInCU: 0x1768A, offset: 0x1768A, size: 0x8, addend: 0x0, symName: __ZNSt3__114__split_bufferI13BitacoraLineaRNS_9allocatorIS1_EEE9__end_capB7v160006Ev, symObjAddr: 0x5F60, symBinAddr: 0x100009FF0, symSize: 0x28 }
  - { offsetInCU: 0x176B0, offset: 0x176B0, size: 0x8, addend: 0x0, symName: __ZNSt3__117__compressed_pairIP13BitacoraLineaRNS_9allocatorIS1_EEEC2B7v160006IDnS5_EEOT_OT0_, symObjAddr: 0x5F88, symBinAddr: 0x10000A018, symSize: 0x48 }
  - { offsetInCU: 0x17708, offset: 0x17708, size: 0x8, addend: 0x0, symName: __ZNSt3__122__compressed_pair_elemIRNS_9allocatorI13BitacoraLineaEELi1ELb0EEC2B7v160006IS4_vEEOT_, symObjAddr: 0x5FD0, symBinAddr: 0x10000A060, symSize: 0x20 }
  - { offsetInCU: 0x1774A, offset: 0x1774A, size: 0x8, addend: 0x0, symName: __ZNSt3__19allocatorI13BitacoraLineaE8allocateB7v160006Em, symObjAddr: 0x5FF0, symBinAddr: 0x10000A080, symSize: 0x8C }
  - { offsetInCU: 0x1777E, offset: 0x1777E, size: 0x8, addend: 0x0, symName: __ZNSt3__117__compressed_pairIP13BitacoraLineaRNS_9allocatorIS1_EEE6secondB7v160006Ev, symObjAddr: 0x607C, symBinAddr: 0x10000A10C, symSize: 0x28 }
  - { offsetInCU: 0x177A4, offset: 0x177A4, size: 0x8, addend: 0x0, symName: __ZNSt3__122__compressed_pair_elemIRNS_9allocatorI13BitacoraLineaEELi1ELb0EE5__getB7v160006Ev, symObjAddr: 0x60A4, symBinAddr: 0x10000A134, symSize: 0x18 }
  - { offsetInCU: 0x177CA, offset: 0x177CA, size: 0x8, addend: 0x0, symName: __ZNSt3__117__compressed_pairIP13BitacoraLineaRNS_9allocatorIS1_EEE5firstB7v160006Ev, symObjAddr: 0x60BC, symBinAddr: 0x10000A14C, symSize: 0x24 }
  - { offsetInCU: 0x177F0, offset: 0x177F0, size: 0x8, addend: 0x0, symName: __ZNSt3__116reverse_iteratorIP13BitacoraLineaEC1B7v160006ES2_, symObjAddr: 0x6214, symBinAddr: 0x10000A2A4, symSize: 0x34 }
  - { offsetInCU: 0x17828, offset: 0x17828, size: 0x8, addend: 0x0, symName: __ZNKSt3__116reverse_iteratorIP13BitacoraLineaE4baseB7v160006Ev, symObjAddr: 0x6248, symBinAddr: 0x10000A2D8, symSize: 0x18 }
  - { offsetInCU: 0x1784E, offset: 0x1784E, size: 0x8, addend: 0x0, symName: __ZNKSt3__16vectorI13BitacoraLineaNS_9allocatorIS1_EEE14__annotate_newB7v160006Em, symObjAddr: 0x629C, symBinAddr: 0x10000A32C, symSize: 0xC8 }
  - { offsetInCU: 0x17883, offset: 0x17883, size: 0x8, addend: 0x0, symName: __ZNSt3__129_AllocatorDestroyRangeReverseINS_9allocatorI13BitacoraLineaEENS_16reverse_iteratorIPS2_EEEC1B7v160006ERS3_RS6_S9_, symObjAddr: 0x63C0, symBinAddr: 0x10000A450, symSize: 0x44 }
  - { offsetInCU: 0x178DA, offset: 0x178DA, size: 0x8, addend: 0x0, symName: __ZNKSt3__116reverse_iteratorIP13BitacoraLineaEdeB7v160006Ev, symObjAddr: 0x6470, symBinAddr: 0x10000A500, symSize: 0x28 }
  - { offsetInCU: 0x1790E, offset: 0x1790E, size: 0x8, addend: 0x0, symName: __ZNSt3__116reverse_iteratorIP13BitacoraLineaEppB7v160006Ev, symObjAddr: 0x6498, symBinAddr: 0x10000A528, symSize: 0x20 }
  - { offsetInCU: 0x17934, offset: 0x17934, size: 0x8, addend: 0x0, symName: __ZNSt3__128__exception_guard_exceptionsINS_29_AllocatorDestroyRangeReverseINS_9allocatorI13BitacoraLineaEENS_16reverse_iteratorIPS3_EEEEE10__completeB7v160006Ev, symObjAddr: 0x64B8, symBinAddr: 0x10000A548, symSize: 0x1C }
  - { offsetInCU: 0x1795A, offset: 0x1795A, size: 0x8, addend: 0x0, symName: __ZNSt3__128__exception_guard_exceptionsINS_29_AllocatorDestroyRangeReverseINS_9allocatorI13BitacoraLineaEENS_16reverse_iteratorIPS3_EEEEED1B7v160006Ev, symObjAddr: 0x64D4, symBinAddr: 0x10000A564, symSize: 0x2C }
  - { offsetInCU: 0x17984, offset: 0x17984, size: 0x8, addend: 0x0, symName: __ZNSt3__128__exception_guard_exceptionsINS_29_AllocatorDestroyRangeReverseINS_9allocatorI13BitacoraLineaEENS_16reverse_iteratorIPS3_EEEEEC1B7v160006ES8_, symObjAddr: 0x6500, symBinAddr: 0x10000A590, symSize: 0x34 }
  - { offsetInCU: 0x179BD, offset: 0x179BD, size: 0x8, addend: 0x0, symName: __ZNSt3__128__exception_guard_exceptionsINS_29_AllocatorDestroyRangeReverseINS_9allocatorI13BitacoraLineaEENS_16reverse_iteratorIPS3_EEEEEC2B7v160006ES8_, symObjAddr: 0x6534, symBinAddr: 0x10000A5C4, symSize: 0x30 }
  - { offsetInCU: 0x179F6, offset: 0x179F6, size: 0x8, addend: 0x0, symName: __ZNSt3__129_AllocatorDestroyRangeReverseINS_9allocatorI13BitacoraLineaEENS_16reverse_iteratorIPS2_EEEC2B7v160006ERS3_RS6_S9_, symObjAddr: 0x6564, symBinAddr: 0x10000A5F4, symSize: 0x38 }
  - { offsetInCU: 0x17A52, offset: 0x17A52, size: 0x8, addend: 0x0, symName: __ZNSt3__119__to_address_helperINS_16reverse_iteratorIP13BitacoraLineaEEvE6__callB7v160006ERKS4_, symObjAddr: 0x659C, symBinAddr: 0x10000A62C, symSize: 0x4C }
  - { offsetInCU: 0x17A75, offset: 0x17A75, size: 0x8, addend: 0x0, symName: __ZNKSt3__116reverse_iteratorIP13BitacoraLineaEptB7v160006Ev, symObjAddr: 0x65E8, symBinAddr: 0x10000A678, symSize: 0x24 }
  - { offsetInCU: 0x17A9B, offset: 0x17A9B, size: 0x8, addend: 0x0, symName: __ZNSt3__128__exception_guard_exceptionsINS_29_AllocatorDestroyRangeReverseINS_9allocatorI13BitacoraLineaEENS_16reverse_iteratorIPS3_EEEEED2B7v160006Ev, symObjAddr: 0x660C, symBinAddr: 0x10000A69C, symSize: 0x48 }
  - { offsetInCU: 0x17AC5, offset: 0x17AC5, size: 0x8, addend: 0x0, symName: __ZNKSt3__129_AllocatorDestroyRangeReverseINS_9allocatorI13BitacoraLineaEENS_16reverse_iteratorIPS2_EEEclB7v160006Ev, symObjAddr: 0x6654, symBinAddr: 0x10000A6E4, symSize: 0xB4 }
  - { offsetInCU: 0x17AEC, offset: 0x17AEC, size: 0x8, addend: 0x0, symName: __ZNSt3__116reverse_iteratorINS0_IP13BitacoraLineaEEEC1B7v160006ES3_, symObjAddr: 0x6778, symBinAddr: 0x10000A808, symSize: 0x3C }
  - { offsetInCU: 0x17B24, offset: 0x17B24, size: 0x8, addend: 0x0, symName: __ZNSt3__116reverse_iteratorINS0_IP13BitacoraLineaEEEppB7v160006Ev, symObjAddr: 0x6838, symBinAddr: 0x10000A8C8, symSize: 0x30 }
  - { offsetInCU: 0x17B4A, offset: 0x17B4A, size: 0x8, addend: 0x0, symName: __ZNKSt3__116reverse_iteratorINS0_IP13BitacoraLineaEEE4baseB7v160006Ev, symObjAddr: 0x6868, symBinAddr: 0x10000A8F8, symSize: 0x24 }
  - { offsetInCU: 0x17B75, offset: 0x17B75, size: 0x8, addend: 0x0, symName: __ZNSt3__119__to_address_helperINS_16reverse_iteratorINS1_IP13BitacoraLineaEEEEvE6__callB7v160006ERKS5_, symObjAddr: 0x688C, symBinAddr: 0x10000A91C, symSize: 0x4C }
  - { offsetInCU: 0x17B98, offset: 0x17B98, size: 0x8, addend: 0x0, symName: __ZNKSt3__116reverse_iteratorINS0_IP13BitacoraLineaEEEptB7v160006Ev, symObjAddr: 0x68D8, symBinAddr: 0x10000A968, symSize: 0x24 }
  - { offsetInCU: 0x17BBE, offset: 0x17BBE, size: 0x8, addend: 0x0, symName: __ZNKSt3__116reverse_iteratorINS0_IP13BitacoraLineaEEEdeB7v160006Ev, symObjAddr: 0x68FC, symBinAddr: 0x10000A98C, symSize: 0x34 }
  - { offsetInCU: 0x17BF2, offset: 0x17BF2, size: 0x8, addend: 0x0, symName: __ZNSt3__116reverse_iteratorIP13BitacoraLineaEmmB7v160006Ev, symObjAddr: 0x6930, symBinAddr: 0x10000A9C0, symSize: 0x20 }
  - { offsetInCU: 0x17C18, offset: 0x17C18, size: 0x8, addend: 0x0, symName: __ZNSt3__116reverse_iteratorINS0_IP13BitacoraLineaEEEC2B7v160006ES3_, symObjAddr: 0x6950, symBinAddr: 0x10000A9E0, symSize: 0x2C }
  - { offsetInCU: 0x17C50, offset: 0x17C50, size: 0x8, addend: 0x0, symName: __ZNSt3__116reverse_iteratorIP13BitacoraLineaEC2B7v160006ES2_, symObjAddr: 0x697C, symBinAddr: 0x10000AA0C, symSize: 0x28 }
  - { offsetInCU: 0x17C88, offset: 0x17C88, size: 0x8, addend: 0x0, symName: __ZNSt3__114__split_bufferI13BitacoraLineaRNS_9allocatorIS1_EEED2Ev, symObjAddr: 0x69A4, symBinAddr: 0x10000AA34, symSize: 0x80 }
  - { offsetInCU: 0x17CB4, offset: 0x17CB4, size: 0x8, addend: 0x0, symName: __ZNSt3__114__split_bufferI13BitacoraLineaRNS_9allocatorIS1_EEE5clearB7v160006Ev, symObjAddr: 0x6A24, symBinAddr: 0x10000AAB4, symSize: 0x28 }
  - { offsetInCU: 0x17CDA, offset: 0x17CDA, size: 0x8, addend: 0x0, symName: __ZNKSt3__114__split_bufferI13BitacoraLineaRNS_9allocatorIS1_EEE8capacityB7v160006Ev, symObjAddr: 0x6A4C, symBinAddr: 0x10000AADC, symSize: 0x40 }
  - { offsetInCU: 0x17D00, offset: 0x17D00, size: 0x8, addend: 0x0, symName: __ZNSt3__114__split_bufferI13BitacoraLineaRNS_9allocatorIS1_EEE17__destruct_at_endB7v160006EPS1_, symObjAddr: 0x6A8C, symBinAddr: 0x10000AB1C, symSize: 0x2C }
  - { offsetInCU: 0x17D34, offset: 0x17D34, size: 0x8, addend: 0x0, symName: __ZNSt3__114__split_bufferI13BitacoraLineaRNS_9allocatorIS1_EEE17__destruct_at_endB7v160006EPS1_NS_17integral_constantIbLb0EEE, symObjAddr: 0x6AB8, symBinAddr: 0x10000AB48, symSize: 0x94 }
  - { offsetInCU: 0x17D74, offset: 0x17D74, size: 0x8, addend: 0x0, symName: __ZNKSt3__114__split_bufferI13BitacoraLineaRNS_9allocatorIS1_EEE9__end_capB7v160006Ev, symObjAddr: 0x6B4C, symBinAddr: 0x10000ABDC, symSize: 0x28 }
  - { offsetInCU: 0x17D9A, offset: 0x17D9A, size: 0x8, addend: 0x0, symName: __ZNKSt3__117__compressed_pairIP13BitacoraLineaRNS_9allocatorIS1_EEE5firstB7v160006Ev, symObjAddr: 0x6B74, symBinAddr: 0x10000AC04, symSize: 0x24 }
  - { offsetInCU: 0x17DC0, offset: 0x17DC0, size: 0x8, addend: 0x0, symName: __ZNSt3__16vectorI13BitacoraLineaNS_9allocatorIS1_EEEC2ERKS4_, symObjAddr: 0x6B98, symBinAddr: 0x10000AC28, symSize: 0x118 }
  - { offsetInCU: 0x17E1F, offset: 0x17E1F, size: 0x8, addend: 0x0, symName: __ZNSt3__116allocator_traitsINS_9allocatorI13BitacoraLineaEEE37select_on_container_copy_constructionB7v160006IS3_vvEES3_RKS3_, symObjAddr: 0x6CB0, symBinAddr: 0x10000AD40, symSize: 0x10 }
  - { offsetInCU: 0x17E53, offset: 0x17E53, size: 0x8, addend: 0x0, symName: __ZNSt3__117__compressed_pairIP13BitacoraLineaNS_9allocatorIS1_EEEC1B7v160006IDnS4_EEOT_OT0_, symObjAddr: 0x6CC0, symBinAddr: 0x10000AD50, symSize: 0x3C }
  - { offsetInCU: 0x17EAB, offset: 0x17EAB, size: 0x8, addend: 0x0, symName: __ZNSt3__16vectorI13BitacoraLineaNS_9allocatorIS1_EEE11__vallocateB7v160006Em, symObjAddr: 0x6D3C, symBinAddr: 0x10000ADCC, symSize: 0xB4 }
  - { offsetInCU: 0x17EEF, offset: 0x17EEF, size: 0x8, addend: 0x0, symName: __ZNSt3__16vectorI13BitacoraLineaNS_9allocatorIS1_EEE18__construct_at_endIPS1_Li0EEEvT_S7_m, symObjAddr: 0x6DF0, symBinAddr: 0x10000AE80, symSize: 0x94 }
  - { offsetInCU: 0x17F61, offset: 0x17F61, size: 0x8, addend: 0x0, symName: __ZNSt3__128__exception_guard_exceptionsINS_6vectorI13BitacoraLineaNS_9allocatorIS2_EEE16__destroy_vectorEE10__completeB7v160006Ev, symObjAddr: 0x6E84, symBinAddr: 0x10000AF14, symSize: 0x1C }
  - { offsetInCU: 0x17F87, offset: 0x17F87, size: 0x8, addend: 0x0, symName: __ZNSt3__128__exception_guard_exceptionsINS_6vectorI13BitacoraLineaNS_9allocatorIS2_EEE16__destroy_vectorEED1B7v160006Ev, symObjAddr: 0x6EA0, symBinAddr: 0x10000AF30, symSize: 0x2C }
  - { offsetInCU: 0x17FB1, offset: 0x17FB1, size: 0x8, addend: 0x0, symName: __ZNSt3__117__compressed_pairIP13BitacoraLineaNS_9allocatorIS1_EEEC2B7v160006IDnS4_EEOT_OT0_, symObjAddr: 0x6ECC, symBinAddr: 0x10000AF5C, symSize: 0x44 }
  - { offsetInCU: 0x18009, offset: 0x18009, size: 0x8, addend: 0x0, symName: __ZNSt3__122__compressed_pair_elemINS_9allocatorI13BitacoraLineaEELi1ELb1EEC2B7v160006IS3_vEEOT_, symObjAddr: 0x6F10, symBinAddr: 0x10000AFA0, symSize: 0x18 }
  - { offsetInCU: 0x1804B, offset: 0x1804B, size: 0x8, addend: 0x0, symName: __ZNSt3__128__exception_guard_exceptionsINS_6vectorI13BitacoraLineaNS_9allocatorIS2_EEE16__destroy_vectorEEC1B7v160006ES6_, symObjAddr: 0x6F28, symBinAddr: 0x10000AFB8, symSize: 0x34 }
  - { offsetInCU: 0x18083, offset: 0x18083, size: 0x8, addend: 0x0, symName: __ZNSt3__128__exception_guard_exceptionsINS_6vectorI13BitacoraLineaNS_9allocatorIS2_EEE16__destroy_vectorEEC2B7v160006ES6_, symObjAddr: 0x6F5C, symBinAddr: 0x10000AFEC, symSize: 0x24 }
  - { offsetInCU: 0x180BB, offset: 0x180BB, size: 0x8, addend: 0x0, symName: __ZNSt3__129_AllocatorDestroyRangeReverseINS_9allocatorI13BitacoraLineaEEPS2_EC1B7v160006ERS3_RS4_S7_, symObjAddr: 0x70C8, symBinAddr: 0x10000B158, symSize: 0x44 }
  - { offsetInCU: 0x18112, offset: 0x18112, size: 0x8, addend: 0x0, symName: __ZNSt3__116allocator_traitsINS_9allocatorI13BitacoraLineaEEE9constructB7v160006IS2_JRS2_EvEEvRS3_PT_DpOT0_, symObjAddr: 0x710C, symBinAddr: 0x10000B19C, symSize: 0x34 }
  - { offsetInCU: 0x18169, offset: 0x18169, size: 0x8, addend: 0x0, symName: __ZNSt3__128__exception_guard_exceptionsINS_29_AllocatorDestroyRangeReverseINS_9allocatorI13BitacoraLineaEEPS3_EEE10__completeB7v160006Ev, symObjAddr: 0x7140, symBinAddr: 0x10000B1D0, symSize: 0x1C }
  - { offsetInCU: 0x1818F, offset: 0x1818F, size: 0x8, addend: 0x0, symName: __ZNSt3__128__exception_guard_exceptionsINS_29_AllocatorDestroyRangeReverseINS_9allocatorI13BitacoraLineaEEPS3_EEED1B7v160006Ev, symObjAddr: 0x715C, symBinAddr: 0x10000B1EC, symSize: 0x2C }
  - { offsetInCU: 0x181B9, offset: 0x181B9, size: 0x8, addend: 0x0, symName: __ZNSt3__128__exception_guard_exceptionsINS_29_AllocatorDestroyRangeReverseINS_9allocatorI13BitacoraLineaEEPS3_EEEC1B7v160006ES6_, symObjAddr: 0x7188, symBinAddr: 0x10000B218, symSize: 0x34 }
  - { offsetInCU: 0x181F2, offset: 0x181F2, size: 0x8, addend: 0x0, symName: __ZNSt3__128__exception_guard_exceptionsINS_29_AllocatorDestroyRangeReverseINS_9allocatorI13BitacoraLineaEEPS3_EEEC2B7v160006ES6_, symObjAddr: 0x71BC, symBinAddr: 0x10000B24C, symSize: 0x30 }
  - { offsetInCU: 0x1822B, offset: 0x1822B, size: 0x8, addend: 0x0, symName: __ZNSt3__129_AllocatorDestroyRangeReverseINS_9allocatorI13BitacoraLineaEEPS2_EC2B7v160006ERS3_RS4_S7_, symObjAddr: 0x71EC, symBinAddr: 0x10000B27C, symSize: 0x38 }
  - { offsetInCU: 0x18282, offset: 0x18282, size: 0x8, addend: 0x0, symName: __ZNSt3__19allocatorI13BitacoraLineaE9constructB7v160006IS1_JRS1_EEEvPT_DpOT0_, symObjAddr: 0x7224, symBinAddr: 0x10000B2B4, symSize: 0x30 }
  - { offsetInCU: 0x182D8, offset: 0x182D8, size: 0x8, addend: 0x0, symName: __ZNSt3__128__exception_guard_exceptionsINS_29_AllocatorDestroyRangeReverseINS_9allocatorI13BitacoraLineaEEPS3_EEED2B7v160006Ev, symObjAddr: 0x7254, symBinAddr: 0x10000B2E4, symSize: 0x48 }
  - { offsetInCU: 0x18302, offset: 0x18302, size: 0x8, addend: 0x0, symName: __ZNKSt3__129_AllocatorDestroyRangeReverseINS_9allocatorI13BitacoraLineaEEPS2_EclB7v160006Ev, symObjAddr: 0x729C, symBinAddr: 0x10000B32C, symSize: 0x68 }
  - { offsetInCU: 0x18328, offset: 0x18328, size: 0x8, addend: 0x0, symName: __ZNSt3__128__exception_guard_exceptionsINS_6vectorI13BitacoraLineaNS_9allocatorIS2_EEE16__destroy_vectorEED2B7v160006Ev, symObjAddr: 0x7374, symBinAddr: 0x10000B404, symSize: 0x48 }
  - { offsetInCU: 0x18352, offset: 0x18352, size: 0x8, addend: 0x0, symName: __ZNSt3__112basic_stringIcNS_11char_traitsIcEENS_9allocatorIcEEEC2B7v160006IDnEEPKc, symObjAddr: 0x73BC, symBinAddr: 0x10000B44C, symSize: 0x60 }
  - { offsetInCU: 0x18390, offset: 0x18390, size: 0x8, addend: 0x0, symName: __ZNSt3__113unordered_setIiNS_4hashIiEENS_8equal_toIiEENS_9allocatorIiEEEC2B7v160006Ev, symObjAddr: 0x741C, symBinAddr: 0x10000B4AC, symSize: 0x64 }
  - { offsetInCU: 0x183BA, offset: 0x183BA, size: 0x8, addend: 0x0, symName: __ZNSt3__112__hash_tableIiNS_4hashIiEENS_8equal_toIiEENS_9allocatorIiEEEC1Ev, symObjAddr: 0x7480, symBinAddr: 0x10000B510, symSize: 0x2C }
  - { offsetInCU: 0x183E6, offset: 0x183E6, size: 0x8, addend: 0x0, symName: __ZNSt3__112__hash_tableIiNS_4hashIiEENS_8equal_toIiEENS_9allocatorIiEEED1Ev, symObjAddr: 0x74BC, symBinAddr: 0x10000B54C, symSize: 0x2C }
  - { offsetInCU: 0x18412, offset: 0x18412, size: 0x8, addend: 0x0, symName: __ZNSt3__112__hash_tableIiNS_4hashIiEENS_8equal_toIiEENS_9allocatorIiEEEC2Ev, symObjAddr: 0x74E8, symBinAddr: 0x10000B578, symSize: 0xA4 }
  - { offsetInCU: 0x1843E, offset: 0x1843E, size: 0x8, addend: 0x0, symName: __ZNSt3__110unique_ptrIA_PNS_16__hash_node_baseIPNS_11__hash_nodeIiPvEEEENS_25__bucket_list_deallocatorINS_9allocatorIS7_EEEEEC1B7v160006ILb1EvEEv, symObjAddr: 0x758C, symBinAddr: 0x10000B61C, symSize: 0x2C }
  - { offsetInCU: 0x18473, offset: 0x18473, size: 0x8, addend: 0x0, symName: __ZNSt3__117__compressed_pairINS_16__hash_node_baseIPNS_11__hash_nodeIiPvEEEENS_9allocatorIS4_EEEC1B7v160006ILb1EvEEv, symObjAddr: 0x75B8, symBinAddr: 0x10000B648, symSize: 0x2C }
  - { offsetInCU: 0x184AD, offset: 0x184AD, size: 0x8, addend: 0x0, symName: __ZNSt3__117__compressed_pairImNS_4hashIiEEEC1B7v160006IiNS_18__default_init_tagEEEOT_OT0_, symObjAddr: 0x75E4, symBinAddr: 0x10000B674, symSize: 0x3C }
  - { offsetInCU: 0x1850A, offset: 0x1850A, size: 0x8, addend: 0x0, symName: __ZNSt3__117__compressed_pairIfNS_8equal_toIiEEEC1B7v160006IfNS_18__default_init_tagEEEOT_OT0_, symObjAddr: 0x7620, symBinAddr: 0x10000B6B0, symSize: 0x3C }
  - { offsetInCU: 0x18562, offset: 0x18562, size: 0x8, addend: 0x0, symName: __ZNSt3__110unique_ptrIA_PNS_16__hash_node_baseIPNS_11__hash_nodeIiPvEEEENS_25__bucket_list_deallocatorINS_9allocatorIS7_EEEEED1B7v160006Ev, symObjAddr: 0x765C, symBinAddr: 0x10000B6EC, symSize: 0x2C }
  - { offsetInCU: 0x1858C, offset: 0x1858C, size: 0x8, addend: 0x0, symName: __ZNSt3__110unique_ptrIA_PNS_16__hash_node_baseIPNS_11__hash_nodeIiPvEEEENS_25__bucket_list_deallocatorINS_9allocatorIS7_EEEEEC2B7v160006ILb1EvEEv, symObjAddr: 0x7688, symBinAddr: 0x10000B718, symSize: 0x50 }
  - { offsetInCU: 0x185C6, offset: 0x185C6, size: 0x8, addend: 0x0, symName: __ZNSt3__117__compressed_pairIPPNS_16__hash_node_baseIPNS_11__hash_nodeIiPvEEEENS_25__bucket_list_deallocatorINS_9allocatorIS7_EEEEEC1B7v160006INS_16__value_init_tagESF_EEOT_OT0_, symObjAddr: 0x76D8, symBinAddr: 0x10000B768, symSize: 0x3C }
  - { offsetInCU: 0x1861E, offset: 0x1861E, size: 0x8, addend: 0x0, symName: __ZNSt3__117__compressed_pairIPPNS_16__hash_node_baseIPNS_11__hash_nodeIiPvEEEENS_25__bucket_list_deallocatorINS_9allocatorIS7_EEEEEC2B7v160006INS_16__value_init_tagESF_EEOT_OT0_, symObjAddr: 0x7714, symBinAddr: 0x10000B7A4, symSize: 0x40 }
  - { offsetInCU: 0x18676, offset: 0x18676, size: 0x8, addend: 0x0, symName: __ZNSt3__122__compressed_pair_elemIPPNS_16__hash_node_baseIPNS_11__hash_nodeIiPvEEEELi0ELb0EEC2B7v160006ENS_16__value_init_tagE, symObjAddr: 0x7754, symBinAddr: 0x10000B7E4, symSize: 0x18 }
  - { offsetInCU: 0x186AB, offset: 0x186AB, size: 0x8, addend: 0x0, symName: __ZNSt3__122__compressed_pair_elemINS_25__bucket_list_deallocatorINS_9allocatorIPNS_16__hash_node_baseIPNS_11__hash_nodeIiPvEEEEEEEELi1ELb0EEC2B7v160006ENS_16__value_init_tagE, symObjAddr: 0x776C, symBinAddr: 0x10000B7FC, symSize: 0x2C }
  - { offsetInCU: 0x186E0, offset: 0x186E0, size: 0x8, addend: 0x0, symName: __ZNSt3__125__bucket_list_deallocatorINS_9allocatorIPNS_16__hash_node_baseIPNS_11__hash_nodeIiPvEEEEEEEC1B7v160006Ev, symObjAddr: 0x7798, symBinAddr: 0x10000B828, symSize: 0x2C }
  - { offsetInCU: 0x1870A, offset: 0x1870A, size: 0x8, addend: 0x0, symName: __ZNSt3__125__bucket_list_deallocatorINS_9allocatorIPNS_16__hash_node_baseIPNS_11__hash_nodeIiPvEEEEEEEC2B7v160006Ev, symObjAddr: 0x77C4, symBinAddr: 0x10000B854, symSize: 0x38 }
  - { offsetInCU: 0x18734, offset: 0x18734, size: 0x8, addend: 0x0, symName: __ZNSt3__117__compressed_pairImNS_9allocatorIPNS_16__hash_node_baseIPNS_11__hash_nodeIiPvEEEEEEEC1B7v160006IiNS_18__default_init_tagEEEOT_OT0_, symObjAddr: 0x77FC, symBinAddr: 0x10000B88C, symSize: 0x3C }
  - { offsetInCU: 0x1878C, offset: 0x1878C, size: 0x8, addend: 0x0, symName: __ZNSt3__117__compressed_pairImNS_9allocatorIPNS_16__hash_node_baseIPNS_11__hash_nodeIiPvEEEEEEEC2B7v160006IiNS_18__default_init_tagEEEOT_OT0_, symObjAddr: 0x7838, symBinAddr: 0x10000B8C8, symSize: 0x40 }
  - { offsetInCU: 0x187E4, offset: 0x187E4, size: 0x8, addend: 0x0, symName: __ZNSt3__122__compressed_pair_elemImLi0ELb0EEC2B7v160006IivEEOT_, symObjAddr: 0x7878, symBinAddr: 0x10000B908, symSize: 0x24 }
  - { offsetInCU: 0x18826, offset: 0x18826, size: 0x8, addend: 0x0, symName: __ZNSt3__122__compressed_pair_elemINS_9allocatorIPNS_16__hash_node_baseIPNS_11__hash_nodeIiPvEEEEEELi1ELb1EEC2B7v160006ENS_18__default_init_tagE, symObjAddr: 0x789C, symBinAddr: 0x10000B92C, symSize: 0x2C }
  - { offsetInCU: 0x1885B, offset: 0x1885B, size: 0x8, addend: 0x0, symName: __ZNSt3__19allocatorIPNS_16__hash_node_baseIPNS_11__hash_nodeIiPvEEEEEC2B7v160006Ev, symObjAddr: 0x78C8, symBinAddr: 0x10000B958, symSize: 0x2C }
  - { offsetInCU: 0x18885, offset: 0x18885, size: 0x8, addend: 0x0, symName: __ZNSt3__116__non_trivial_ifILb1ENS_9allocatorIPNS_16__hash_node_baseIPNS_11__hash_nodeIiPvEEEEEEEC2B7v160006Ev, symObjAddr: 0x78F4, symBinAddr: 0x10000B984, symSize: 0x14 }
  - { offsetInCU: 0x188AF, offset: 0x188AF, size: 0x8, addend: 0x0, symName: __ZNSt3__117__compressed_pairINS_16__hash_node_baseIPNS_11__hash_nodeIiPvEEEENS_9allocatorIS4_EEEC2B7v160006ILb1EvEEv, symObjAddr: 0x7908, symBinAddr: 0x10000B998, symSize: 0x34 }
  - { offsetInCU: 0x188E4, offset: 0x188E4, size: 0x8, addend: 0x0, symName: __ZNSt3__122__compressed_pair_elemINS_16__hash_node_baseIPNS_11__hash_nodeIiPvEEEELi0ELb0EEC2B7v160006ENS_16__value_init_tagE, symObjAddr: 0x793C, symBinAddr: 0x10000B9CC, symSize: 0x2C }
  - { offsetInCU: 0x18919, offset: 0x18919, size: 0x8, addend: 0x0, symName: __ZNSt3__122__compressed_pair_elemINS_9allocatorINS_11__hash_nodeIiPvEEEELi1ELb1EEC2B7v160006ENS_16__value_init_tagE, symObjAddr: 0x7968, symBinAddr: 0x10000B9F8, symSize: 0x2C }
  - { offsetInCU: 0x1894E, offset: 0x1894E, size: 0x8, addend: 0x0, symName: __ZNSt3__116__hash_node_baseIPNS_11__hash_nodeIiPvEEEC1B7v160006Ev, symObjAddr: 0x7994, symBinAddr: 0x10000BA24, symSize: 0x2C }
  - { offsetInCU: 0x18978, offset: 0x18978, size: 0x8, addend: 0x0, symName: __ZNSt3__116__hash_node_baseIPNS_11__hash_nodeIiPvEEEC2B7v160006Ev, symObjAddr: 0x79C0, symBinAddr: 0x10000BA50, symSize: 0x18 }
  - { offsetInCU: 0x189A2, offset: 0x189A2, size: 0x8, addend: 0x0, symName: __ZNSt3__19allocatorINS_11__hash_nodeIiPvEEEC2B7v160006Ev, symObjAddr: 0x79D8, symBinAddr: 0x10000BA68, symSize: 0x2C }
  - { offsetInCU: 0x189CC, offset: 0x189CC, size: 0x8, addend: 0x0, symName: __ZNSt3__116__non_trivial_ifILb1ENS_9allocatorINS_11__hash_nodeIiPvEEEEEC2B7v160006Ev, symObjAddr: 0x7A04, symBinAddr: 0x10000BA94, symSize: 0x14 }
  - { offsetInCU: 0x189F6, offset: 0x189F6, size: 0x8, addend: 0x0, symName: __ZNSt3__117__compressed_pairImNS_4hashIiEEEC2B7v160006IiNS_18__default_init_tagEEEOT_OT0_, symObjAddr: 0x7A18, symBinAddr: 0x10000BAA8, symSize: 0x40 }
  - { offsetInCU: 0x18A4E, offset: 0x18A4E, size: 0x8, addend: 0x0, symName: __ZNSt3__122__compressed_pair_elemINS_4hashIiEELi1ELb1EEC2B7v160006ENS_18__default_init_tagE, symObjAddr: 0x7A58, symBinAddr: 0x10000BAE8, symSize: 0x14 }
  - { offsetInCU: 0x18A83, offset: 0x18A83, size: 0x8, addend: 0x0, symName: __ZNSt3__117__compressed_pairIfNS_8equal_toIiEEEC2B7v160006IfNS_18__default_init_tagEEEOT_OT0_, symObjAddr: 0x7A6C, symBinAddr: 0x10000BAFC, symSize: 0x40 }
  - { offsetInCU: 0x18ADB, offset: 0x18ADB, size: 0x8, addend: 0x0, symName: __ZNSt3__122__compressed_pair_elemIfLi0ELb0EEC2B7v160006IfvEEOT_, symObjAddr: 0x7AAC, symBinAddr: 0x10000BB3C, symSize: 0x24 }
  - { offsetInCU: 0x18B1D, offset: 0x18B1D, size: 0x8, addend: 0x0, symName: __ZNSt3__122__compressed_pair_elemINS_8equal_toIiEELi1ELb1EEC2B7v160006ENS_18__default_init_tagE, symObjAddr: 0x7AD0, symBinAddr: 0x10000BB60, symSize: 0x14 }
  - { offsetInCU: 0x18B52, offset: 0x18B52, size: 0x8, addend: 0x0, symName: __ZNSt3__110unique_ptrIA_PNS_16__hash_node_baseIPNS_11__hash_nodeIiPvEEEENS_25__bucket_list_deallocatorINS_9allocatorIS7_EEEEED2B7v160006Ev, symObjAddr: 0x7AE4, symBinAddr: 0x10000BB74, symSize: 0x30 }
  - { offsetInCU: 0x18B7C, offset: 0x18B7C, size: 0x8, addend: 0x0, symName: __ZNSt3__110unique_ptrIA_PNS_16__hash_node_baseIPNS_11__hash_nodeIiPvEEEENS_25__bucket_list_deallocatorINS_9allocatorIS7_EEEEE5resetB7v160006EDn, symObjAddr: 0x7B14, symBinAddr: 0x10000BBA4, symSize: 0x6C }
  - { offsetInCU: 0x18BBD, offset: 0x18BBD, size: 0x8, addend: 0x0, symName: __ZNSt3__117__compressed_pairIPPNS_16__hash_node_baseIPNS_11__hash_nodeIiPvEEEENS_25__bucket_list_deallocatorINS_9allocatorIS7_EEEEE5firstB7v160006Ev, symObjAddr: 0x7B80, symBinAddr: 0x10000BC10, symSize: 0x24 }
  - { offsetInCU: 0x18BE3, offset: 0x18BE3, size: 0x8, addend: 0x0, symName: __ZNSt3__117__compressed_pairIPPNS_16__hash_node_baseIPNS_11__hash_nodeIiPvEEEENS_25__bucket_list_deallocatorINS_9allocatorIS7_EEEEE6secondB7v160006Ev, symObjAddr: 0x7BA4, symBinAddr: 0x10000BC34, symSize: 0x28 }
  - { offsetInCU: 0x18C09, offset: 0x18C09, size: 0x8, addend: 0x0, symName: __ZNSt3__125__bucket_list_deallocatorINS_9allocatorIPNS_16__hash_node_baseIPNS_11__hash_nodeIiPvEEEEEEEclB7v160006EPS8_, symObjAddr: 0x7BCC, symBinAddr: 0x10000BC5C, symSize: 0x58 }
  - { offsetInCU: 0x18C3E, offset: 0x18C3E, size: 0x8, addend: 0x0, symName: __ZNSt3__122__compressed_pair_elemIPPNS_16__hash_node_baseIPNS_11__hash_nodeIiPvEEEELi0ELb0EE5__getB7v160006Ev, symObjAddr: 0x7C24, symBinAddr: 0x10000BCB4, symSize: 0x14 }
  - { offsetInCU: 0x18C64, offset: 0x18C64, size: 0x8, addend: 0x0, symName: __ZNSt3__122__compressed_pair_elemINS_25__bucket_list_deallocatorINS_9allocatorIPNS_16__hash_node_baseIPNS_11__hash_nodeIiPvEEEEEEEELi1ELb0EE5__getB7v160006Ev, symObjAddr: 0x7C38, symBinAddr: 0x10000BCC8, symSize: 0x14 }
  - { offsetInCU: 0x18C8A, offset: 0x18C8A, size: 0x8, addend: 0x0, symName: __ZNSt3__116allocator_traitsINS_9allocatorIPNS_16__hash_node_baseIPNS_11__hash_nodeIiPvEEEEEEE10deallocateB7v160006ERS9_PS8_m, symObjAddr: 0x7C4C, symBinAddr: 0x10000BCDC, symSize: 0x34 }
  - { offsetInCU: 0x18CCC, offset: 0x18CCC, size: 0x8, addend: 0x0, symName: __ZNSt3__125__bucket_list_deallocatorINS_9allocatorIPNS_16__hash_node_baseIPNS_11__hash_nodeIiPvEEEEEEE7__allocB7v160006Ev, symObjAddr: 0x7C80, symBinAddr: 0x10000BD10, symSize: 0x24 }
  - { offsetInCU: 0x18CF2, offset: 0x18CF2, size: 0x8, addend: 0x0, symName: __ZNSt3__125__bucket_list_deallocatorINS_9allocatorIPNS_16__hash_node_baseIPNS_11__hash_nodeIiPvEEEEEEE4sizeB7v160006Ev, symObjAddr: 0x7CA4, symBinAddr: 0x10000BD34, symSize: 0x24 }
  - { offsetInCU: 0x18D18, offset: 0x18D18, size: 0x8, addend: 0x0, symName: __ZNSt3__19allocatorIPNS_16__hash_node_baseIPNS_11__hash_nodeIiPvEEEEE10deallocateB7v160006EPS7_m, symObjAddr: 0x7CC8, symBinAddr: 0x10000BD58, symSize: 0x70 }
  - { offsetInCU: 0x18D5A, offset: 0x18D5A, size: 0x8, addend: 0x0, symName: __ZNSt3__117__compressed_pairImNS_9allocatorIPNS_16__hash_node_baseIPNS_11__hash_nodeIiPvEEEEEEE6secondB7v160006Ev, symObjAddr: 0x7D38, symBinAddr: 0x10000BDC8, symSize: 0x24 }
  - { offsetInCU: 0x18D80, offset: 0x18D80, size: 0x8, addend: 0x0, symName: __ZNSt3__122__compressed_pair_elemINS_9allocatorIPNS_16__hash_node_baseIPNS_11__hash_nodeIiPvEEEEEELi1ELb1EE5__getB7v160006Ev, symObjAddr: 0x7D5C, symBinAddr: 0x10000BDEC, symSize: 0x14 }
  - { offsetInCU: 0x18DA6, offset: 0x18DA6, size: 0x8, addend: 0x0, symName: __ZNSt3__117__compressed_pairImNS_9allocatorIPNS_16__hash_node_baseIPNS_11__hash_nodeIiPvEEEEEEE5firstB7v160006Ev, symObjAddr: 0x7D70, symBinAddr: 0x10000BE00, symSize: 0x24 }
  - { offsetInCU: 0x18DCC, offset: 0x18DCC, size: 0x8, addend: 0x0, symName: __ZNSt3__122__compressed_pair_elemImLi0ELb0EE5__getB7v160006Ev, symObjAddr: 0x7D94, symBinAddr: 0x10000BE24, symSize: 0x14 }
  - { offsetInCU: 0x18DF2, offset: 0x18DF2, size: 0x8, addend: 0x0, symName: __ZNSt3__112__hash_tableIiNS_4hashIiEENS_8equal_toIiEENS_9allocatorIiEEED2Ev, symObjAddr: 0x7DA8, symBinAddr: 0x10000BE38, symSize: 0x80 }
  - { offsetInCU: 0x18E1E, offset: 0x18E1E, size: 0x8, addend: 0x0, symName: __ZNSt3__112__hash_tableIiNS_4hashIiEENS_8equal_toIiEENS_9allocatorIiEEE17__deallocate_nodeEPNS_16__hash_node_baseIPNS_11__hash_nodeIiPvEEEE, symObjAddr: 0x7E28, symBinAddr: 0x10000BEB8, symSize: 0xBC }
  - { offsetInCU: 0x18E87, offset: 0x18E87, size: 0x8, addend: 0x0, symName: __ZNSt3__117__compressed_pairINS_16__hash_node_baseIPNS_11__hash_nodeIiPvEEEENS_9allocatorIS4_EEE5firstB7v160006Ev, symObjAddr: 0x7EE4, symBinAddr: 0x10000BF74, symSize: 0x24 }
  - { offsetInCU: 0x18EAD, offset: 0x18EAD, size: 0x8, addend: 0x0, symName: __ZNSt3__112__hash_tableIiNS_4hashIiEENS_8equal_toIiEENS_9allocatorIiEEE12__node_allocB7v160006Ev, symObjAddr: 0x7F18, symBinAddr: 0x10000BFA8, symSize: 0x28 }
  - { offsetInCU: 0x18ED3, offset: 0x18ED3, size: 0x8, addend: 0x0, symName: __ZNSt3__116__hash_node_baseIPNS_11__hash_nodeIiPvEEE8__upcastB7v160006Ev, symObjAddr: 0x7F40, symBinAddr: 0x10000BFD0, symSize: 0x24 }
  - { offsetInCU: 0x18EF9, offset: 0x18EF9, size: 0x8, addend: 0x0, symName: __ZNSt3__116allocator_traitsINS_9allocatorINS_11__hash_nodeIiPvEEEEE7destroyB7v160006IivvEEvRS5_PT_, symObjAddr: 0x7F64, symBinAddr: 0x10000BFF4, symSize: 0x14 }
  - { offsetInCU: 0x18F34, offset: 0x18F34, size: 0x8, addend: 0x0, symName: __ZNSt3__122__hash_key_value_typesIiE9__get_ptrB7v160006ERi, symObjAddr: 0x7F78, symBinAddr: 0x10000C008, symSize: 0x14 }
  - { offsetInCU: 0x18F57, offset: 0x18F57, size: 0x8, addend: 0x0, symName: __ZNSt3__116allocator_traitsINS_9allocatorINS_11__hash_nodeIiPvEEEEE10deallocateB7v160006ERS5_PS4_m, symObjAddr: 0x7F8C, symBinAddr: 0x10000C01C, symSize: 0x34 }
  - { offsetInCU: 0x18F99, offset: 0x18F99, size: 0x8, addend: 0x0, symName: __ZNSt3__117__compressed_pairINS_16__hash_node_baseIPNS_11__hash_nodeIiPvEEEENS_9allocatorIS4_EEE6secondB7v160006Ev, symObjAddr: 0x7FC0, symBinAddr: 0x10000C050, symSize: 0x24 }
  - { offsetInCU: 0x18FBF, offset: 0x18FBF, size: 0x8, addend: 0x0, symName: __ZNSt3__122__compressed_pair_elemINS_9allocatorINS_11__hash_nodeIiPvEEEELi1ELb1EE5__getB7v160006Ev, symObjAddr: 0x7FE4, symBinAddr: 0x10000C074, symSize: 0x14 }
  - { offsetInCU: 0x18FE5, offset: 0x18FE5, size: 0x8, addend: 0x0, symName: __ZNSt3__114pointer_traitsIPNS_16__hash_node_baseIPNS_11__hash_nodeIiPvEEEEE10pointer_toB7v160006ERS6_, symObjAddr: 0x7FF8, symBinAddr: 0x10000C088, symSize: 0x14 }
  - { offsetInCU: 0x19008, offset: 0x19008, size: 0x8, addend: 0x0, symName: __ZNSt3__19allocatorINS_11__hash_nodeIiPvEEE10deallocateB7v160006EPS3_m, symObjAddr: 0x800C, symBinAddr: 0x10000C09C, symSize: 0x74 }
  - { offsetInCU: 0x1904A, offset: 0x1904A, size: 0x8, addend: 0x0, symName: __ZNSt3__122__compressed_pair_elemINS_16__hash_node_baseIPNS_11__hash_nodeIiPvEEEELi0ELb0EE5__getB7v160006Ev, symObjAddr: 0x8080, symBinAddr: 0x10000C110, symSize: 0x14 }
  - { offsetInCU: 0x19070, offset: 0x19070, size: 0x8, addend: 0x0, symName: __ZNSt3__113unordered_setIiNS_4hashIiEENS_8equal_toIiEENS_9allocatorIiEEED2B7v160006Ev, symObjAddr: 0x8094, symBinAddr: 0x10000C124, symSize: 0x2C }
  - { offsetInCU: 0x1909A, offset: 0x1909A, size: 0x8, addend: 0x0, symName: __ZNSt3__112__hash_tableIiNS_4hashIiEENS_8equal_toIiEENS_9allocatorIiEEE15__insert_uniqueB7v160006ERKi, symObjAddr: 0x80C0, symBinAddr: 0x10000C150, symSize: 0x50 }
  - { offsetInCU: 0x190CF, offset: 0x190CF, size: 0x8, addend: 0x0, symName: __ZNSt3__14pairINS_21__hash_const_iteratorIPNS_11__hash_nodeIiPvEEEEbEC1B7v160006INS_15__hash_iteratorIS5_EEbEERKNS0_IT_T0_EE, symObjAddr: 0x8110, symBinAddr: 0x10000C1A0, symSize: 0x34 }
  - { offsetInCU: 0x19119, offset: 0x19119, size: 0x8, addend: 0x0, symName: __ZNSt3__112__hash_tableIiNS_4hashIiEENS_8equal_toIiEENS_9allocatorIiEEE25__emplace_unique_key_argsIiJRKiEEENS_4pairINS_15__hash_iteratorIPNS_11__hash_nodeIiPvEEEEbEERKT_DpOT0_, symObjAddr: 0x8144, symBinAddr: 0x10000C1D4, symSize: 0x4CC }
  - { offsetInCU: 0x191F8, offset: 0x191F8, size: 0x8, addend: 0x0, symName: __ZNSt3__122__hash_key_value_typesIiE9__get_keyB7v160006ERKi, symObjAddr: 0x8610, symBinAddr: 0x10000C6A0, symSize: 0x14 }
  - { offsetInCU: 0x1921B, offset: 0x1921B, size: 0x8, addend: 0x0, symName: __ZNSt3__112__hash_tableIiNS_4hashIiEENS_8equal_toIiEENS_9allocatorIiEEE13hash_functionB7v160006Ev, symObjAddr: 0x8624, symBinAddr: 0x10000C6B4, symSize: 0x28 }
  - { offsetInCU: 0x19241, offset: 0x19241, size: 0x8, addend: 0x0, symName: __ZNKSt3__14hashIiEclB7v160006Ei, symObjAddr: 0x864C, symBinAddr: 0x10000C6DC, symSize: 0x18 }
  - { offsetInCU: 0x19276, offset: 0x19276, size: 0x8, addend: 0x0, symName: __ZNKSt3__112__hash_tableIiNS_4hashIiEENS_8equal_toIiEENS_9allocatorIiEEE12bucket_countB7v160006Ev, symObjAddr: 0x8664, symBinAddr: 0x10000C6F4, symSize: 0x28 }
  - { offsetInCU: 0x1929C, offset: 0x1929C, size: 0x8, addend: 0x0, symName: __ZNKSt3__110unique_ptrIA_PNS_16__hash_node_baseIPNS_11__hash_nodeIiPvEEEENS_25__bucket_list_deallocatorINS_9allocatorIS7_EEEEEixB7v160006Em, symObjAddr: 0x8724, symBinAddr: 0x10000C7B4, symSize: 0x34 }
  - { offsetInCU: 0x192D1, offset: 0x192D1, size: 0x8, addend: 0x0, symName: __ZNKSt3__116__hash_node_baseIPNS_11__hash_nodeIiPvEEE6__hashB7v160006Ev, symObjAddr: 0x8758, symBinAddr: 0x10000C7E8, symSize: 0x18 }
  - { offsetInCU: 0x192F7, offset: 0x192F7, size: 0x8, addend: 0x0, symName: __ZNSt3__112__hash_tableIiNS_4hashIiEENS_8equal_toIiEENS_9allocatorIiEEE6key_eqB7v160006Ev, symObjAddr: 0x8770, symBinAddr: 0x10000C800, symSize: 0x28 }
  - { offsetInCU: 0x1931D, offset: 0x1931D, size: 0x8, addend: 0x0, symName: __ZNKSt3__18equal_toIiEclB7v160006ERKiS3_, symObjAddr: 0x8798, symBinAddr: 0x10000C828, symSize: 0x34 }
  - { offsetInCU: 0x19361, offset: 0x19361, size: 0x8, addend: 0x0, symName: __ZNSt3__112__hash_tableIiNS_4hashIiEENS_8equal_toIiEENS_9allocatorIiEEE21__construct_node_hashIRKiJEEENS_10unique_ptrINS_11__hash_nodeIiPvEENS_22__hash_node_destructorINS5_ISE_EEEEEEmOT_DpOT0_, symObjAddr: 0x87CC, symBinAddr: 0x10000C85C, symSize: 0x140 }
  - { offsetInCU: 0x193D3, offset: 0x193D3, size: 0x8, addend: 0x0, symName: __ZNSt3__112__hash_tableIiNS_4hashIiEENS_8equal_toIiEENS_9allocatorIiEEE4sizeB7v160006Ev, symObjAddr: 0x890C, symBinAddr: 0x10000C99C, symSize: 0x28 }
  - { offsetInCU: 0x193F9, offset: 0x193F9, size: 0x8, addend: 0x0, symName: __ZNSt3__112__hash_tableIiNS_4hashIiEENS_8equal_toIiEENS_9allocatorIiEEE15max_load_factorB7v160006Ev, symObjAddr: 0x8934, symBinAddr: 0x10000C9C4, symSize: 0x28 }
  - { offsetInCU: 0x1941F, offset: 0x1941F, size: 0x8, addend: 0x0, symName: __ZNSt3__112__hash_tableIiNS_4hashIiEENS_8equal_toIiEENS_9allocatorIiEEE15__rehash_uniqueB7v160006Em, symObjAddr: 0x895C, symBinAddr: 0x10000C9EC, symSize: 0x2C }
  - { offsetInCU: 0x19453, offset: 0x19453, size: 0x8, addend: 0x0, symName: __Z4ceilB7v160006f, symObjAddr: 0x89D8, symBinAddr: 0x10000CA68, symSize: 0x18 }
  - { offsetInCU: 0x19482, offset: 0x19482, size: 0x8, addend: 0x0, symName: __ZNSt3__116__hash_node_baseIPNS_11__hash_nodeIiPvEEE5__ptrB7v160006Ev, symObjAddr: 0x89F0, symBinAddr: 0x10000CA80, symSize: 0x24 }
  - { offsetInCU: 0x194A8, offset: 0x194A8, size: 0x8, addend: 0x0, symName: __ZNKSt3__110unique_ptrINS_11__hash_nodeIiPvEENS_22__hash_node_destructorINS_9allocatorIS3_EEEEEptB7v160006Ev, symObjAddr: 0x8A14, symBinAddr: 0x10000CAA4, symSize: 0x28 }
  - { offsetInCU: 0x194CE, offset: 0x194CE, size: 0x8, addend: 0x0, symName: __ZNKSt3__110unique_ptrINS_11__hash_nodeIiPvEENS_22__hash_node_destructorINS_9allocatorIS3_EEEEE3getB7v160006Ev, symObjAddr: 0x8A3C, symBinAddr: 0x10000CACC, symSize: 0x28 }
  - { offsetInCU: 0x194F4, offset: 0x194F4, size: 0x8, addend: 0x0, symName: __ZNSt3__110unique_ptrINS_11__hash_nodeIiPvEENS_22__hash_node_destructorINS_9allocatorIS3_EEEEE7releaseB7v160006Ev, symObjAddr: 0x8A64, symBinAddr: 0x10000CAF4, symSize: 0x44 }
  - { offsetInCU: 0x19529, offset: 0x19529, size: 0x8, addend: 0x0, symName: __ZNSt3__110unique_ptrINS_11__hash_nodeIiPvEENS_22__hash_node_destructorINS_9allocatorIS3_EEEEED1B7v160006Ev, symObjAddr: 0x8AA8, symBinAddr: 0x10000CB38, symSize: 0x2C }
  - { offsetInCU: 0x19553, offset: 0x19553, size: 0x8, addend: 0x0, symName: __ZNSt3__115__hash_iteratorIPNS_11__hash_nodeIiPvEEEC1B7v160006EPNS_16__hash_node_baseIS4_EEPKv, symObjAddr: 0x8AD4, symBinAddr: 0x10000CB64, symSize: 0x3C }
  - { offsetInCU: 0x1959B, offset: 0x1959B, size: 0x8, addend: 0x0, symName: __ZNSt3__14pairINS_15__hash_iteratorIPNS_11__hash_nodeIiPvEEEEbEC1B7v160006ERKS6_RKb, symObjAddr: 0x8B10, symBinAddr: 0x10000CBA0, symSize: 0x3C }
  - { offsetInCU: 0x195E1, offset: 0x195E1, size: 0x8, addend: 0x0, symName: __ZNSt3__117__compressed_pairImNS_4hashIiEEE6secondB7v160006Ev, symObjAddr: 0x8B4C, symBinAddr: 0x10000CBDC, symSize: 0x24 }
  - { offsetInCU: 0x19607, offset: 0x19607, size: 0x8, addend: 0x0, symName: __ZNSt3__122__compressed_pair_elemINS_4hashIiEELi1ELb1EE5__getB7v160006Ev, symObjAddr: 0x8B70, symBinAddr: 0x10000CC00, symSize: 0x14 }
  - { offsetInCU: 0x1962D, offset: 0x1962D, size: 0x8, addend: 0x0, symName: __ZNKSt3__110unique_ptrIA_PNS_16__hash_node_baseIPNS_11__hash_nodeIiPvEEEENS_25__bucket_list_deallocatorINS_9allocatorIS7_EEEEE11get_deleterB7v160006Ev, symObjAddr: 0x8B84, symBinAddr: 0x10000CC14, symSize: 0x24 }
  - { offsetInCU: 0x19653, offset: 0x19653, size: 0x8, addend: 0x0, symName: __ZNKSt3__125__bucket_list_deallocatorINS_9allocatorIPNS_16__hash_node_baseIPNS_11__hash_nodeIiPvEEEEEEE4sizeB7v160006Ev, symObjAddr: 0x8BA8, symBinAddr: 0x10000CC38, symSize: 0x28 }
  - { offsetInCU: 0x19679, offset: 0x19679, size: 0x8, addend: 0x0, symName: __ZNKSt3__117__compressed_pairIPPNS_16__hash_node_baseIPNS_11__hash_nodeIiPvEEEENS_25__bucket_list_deallocatorINS_9allocatorIS7_EEEEE6secondB7v160006Ev, symObjAddr: 0x8BD0, symBinAddr: 0x10000CC60, symSize: 0x28 }
  - { offsetInCU: 0x1969F, offset: 0x1969F, size: 0x8, addend: 0x0, symName: __ZNKSt3__122__compressed_pair_elemINS_25__bucket_list_deallocatorINS_9allocatorIPNS_16__hash_node_baseIPNS_11__hash_nodeIiPvEEEEEEEELi1ELb0EE5__getB7v160006Ev, symObjAddr: 0x8BF8, symBinAddr: 0x10000CC88, symSize: 0x14 }
  - { offsetInCU: 0x196C5, offset: 0x196C5, size: 0x8, addend: 0x0, symName: __ZNKSt3__117__compressed_pairImNS_9allocatorIPNS_16__hash_node_baseIPNS_11__hash_nodeIiPvEEEEEEE5firstB7v160006Ev, symObjAddr: 0x8C0C, symBinAddr: 0x10000CC9C, symSize: 0x24 }
  - { offsetInCU: 0x196EB, offset: 0x196EB, size: 0x8, addend: 0x0, symName: __ZNKSt3__122__compressed_pair_elemImLi0ELb0EE5__getB7v160006Ev, symObjAddr: 0x8C30, symBinAddr: 0x10000CCC0, symSize: 0x14 }
  - { offsetInCU: 0x19711, offset: 0x19711, size: 0x8, addend: 0x0, symName: __ZNKSt3__117__compressed_pairIPPNS_16__hash_node_baseIPNS_11__hash_nodeIiPvEEEENS_25__bucket_list_deallocatorINS_9allocatorIS7_EEEEE5firstB7v160006Ev, symObjAddr: 0x8C44, symBinAddr: 0x10000CCD4, symSize: 0x24 }
  - { offsetInCU: 0x19737, offset: 0x19737, size: 0x8, addend: 0x0, symName: __ZNKSt3__122__compressed_pair_elemIPPNS_16__hash_node_baseIPNS_11__hash_nodeIiPvEEEELi0ELb0EE5__getB7v160006Ev, symObjAddr: 0x8C68, symBinAddr: 0x10000CCF8, symSize: 0x14 }
  - { offsetInCU: 0x1975D, offset: 0x1975D, size: 0x8, addend: 0x0, symName: __ZNSt3__117__compressed_pairIfNS_8equal_toIiEEE6secondB7v160006Ev, symObjAddr: 0x8C7C, symBinAddr: 0x10000CD0C, symSize: 0x24 }
  - { offsetInCU: 0x19783, offset: 0x19783, size: 0x8, addend: 0x0, symName: __ZNSt3__122__compressed_pair_elemINS_8equal_toIiEELi1ELb1EE5__getB7v160006Ev, symObjAddr: 0x8CA0, symBinAddr: 0x10000CD30, symSize: 0x14 }
  - { offsetInCU: 0x197A9, offset: 0x197A9, size: 0x8, addend: 0x0, symName: __ZNSt3__116allocator_traitsINS_9allocatorINS_11__hash_nodeIiPvEEEEE8allocateB7v160006ERS5_m, symObjAddr: 0x8CB4, symBinAddr: 0x10000CD44, symSize: 0x2C }
  - { offsetInCU: 0x197DC, offset: 0x197DC, size: 0x8, addend: 0x0, symName: __ZNSt3__122__hash_node_destructorINS_9allocatorINS_11__hash_nodeIiPvEEEEEC1B7v160006ERS5_b, symObjAddr: 0x8CE0, symBinAddr: 0x10000CD70, symSize: 0x48 }
  - { offsetInCU: 0x19829, offset: 0x19829, size: 0x8, addend: 0x0, symName: __ZNSt3__110unique_ptrINS_11__hash_nodeIiPvEENS_22__hash_node_destructorINS_9allocatorIS3_EEEEEC1B7v160006ILb1EvEEPS3_NS_16__dependent_typeINS_27__unique_ptr_deleter_sfinaeIS7_EEXT_EE20__good_rval_ref_typeE, symObjAddr: 0x8D28, symBinAddr: 0x10000CDB8, symSize: 0x3C }
  - { offsetInCU: 0x1987A, offset: 0x1987A, size: 0x8, addend: 0x0, symName: __ZNSt3__116allocator_traitsINS_9allocatorINS_11__hash_nodeIiPvEEEEE9constructB7v160006IiJRKiEvEEvRS5_PT_DpOT0_, symObjAddr: 0x8D64, symBinAddr: 0x10000CDF4, symSize: 0x34 }
  - { offsetInCU: 0x198D1, offset: 0x198D1, size: 0x8, addend: 0x0, symName: __ZNSt3__110unique_ptrINS_11__hash_nodeIiPvEENS_22__hash_node_destructorINS_9allocatorIS3_EEEEE11get_deleterB7v160006Ev, symObjAddr: 0x8D98, symBinAddr: 0x10000CE28, symSize: 0x24 }
  - { offsetInCU: 0x198F7, offset: 0x198F7, size: 0x8, addend: 0x0, symName: __ZNSt3__19allocatorINS_11__hash_nodeIiPvEEE8allocateB7v160006Em, symObjAddr: 0x8DBC, symBinAddr: 0x10000CE4C, symSize: 0x8C }
  - { offsetInCU: 0x19935, offset: 0x19935, size: 0x8, addend: 0x0, symName: __ZNSt3__116allocator_traitsINS_9allocatorINS_11__hash_nodeIiPvEEEEE8max_sizeB7v160006IS5_vEEmRKS5_, symObjAddr: 0x8E48, symBinAddr: 0x10000CED8, symSize: 0x24 }
  - { offsetInCU: 0x19963, offset: 0x19963, size: 0x8, addend: 0x0, symName: __ZNKSt3__19allocatorINS_11__hash_nodeIiPvEEE8max_sizeB7v160006Ev, symObjAddr: 0x8E6C, symBinAddr: 0x10000CEFC, symSize: 0x18 }
  - { offsetInCU: 0x19989, offset: 0x19989, size: 0x8, addend: 0x0, symName: __ZNSt3__122__hash_node_destructorINS_9allocatorINS_11__hash_nodeIiPvEEEEEC2B7v160006ERS5_b, symObjAddr: 0x8E84, symBinAddr: 0x10000CF14, symSize: 0x38 }
  - { offsetInCU: 0x199D1, offset: 0x199D1, size: 0x8, addend: 0x0, symName: __ZNSt3__110unique_ptrINS_11__hash_nodeIiPvEENS_22__hash_node_destructorINS_9allocatorIS3_EEEEEC2B7v160006ILb1EvEEPS3_NS_16__dependent_typeINS_27__unique_ptr_deleter_sfinaeIS7_EEXT_EE20__good_rval_ref_typeE, symObjAddr: 0x8EBC, symBinAddr: 0x10000CF4C, symSize: 0x5C }
  - { offsetInCU: 0x19A22, offset: 0x19A22, size: 0x8, addend: 0x0, symName: __ZNSt3__117__compressed_pairIPNS_11__hash_nodeIiPvEENS_22__hash_node_destructorINS_9allocatorIS3_EEEEEC1B7v160006IRS4_S8_EEOT_OT0_, symObjAddr: 0x8F18, symBinAddr: 0x10000CFA8, symSize: 0x3C }
  - { offsetInCU: 0x19A7A, offset: 0x19A7A, size: 0x8, addend: 0x0, symName: __ZNSt3__117__compressed_pairIPNS_11__hash_nodeIiPvEENS_22__hash_node_destructorINS_9allocatorIS3_EEEEEC2B7v160006IRS4_S8_EEOT_OT0_, symObjAddr: 0x8F54, symBinAddr: 0x10000CFE4, symSize: 0x48 }
  - { offsetInCU: 0x19AD2, offset: 0x19AD2, size: 0x8, addend: 0x0, symName: __ZNSt3__122__compressed_pair_elemIPNS_11__hash_nodeIiPvEELi0ELb0EEC2B7v160006IRS4_vEEOT_, symObjAddr: 0x8F9C, symBinAddr: 0x10000D02C, symSize: 0x24 }
  - { offsetInCU: 0x19B14, offset: 0x19B14, size: 0x8, addend: 0x0, symName: __ZNSt3__122__compressed_pair_elemINS_22__hash_node_destructorINS_9allocatorINS_11__hash_nodeIiPvEEEEEELi1ELb0EEC2B7v160006IS7_vEEOT_, symObjAddr: 0x8FC0, symBinAddr: 0x10000D050, symSize: 0x24 }
  - { offsetInCU: 0x19B56, offset: 0x19B56, size: 0x8, addend: 0x0, symName: __ZNSt3__19allocatorINS_11__hash_nodeIiPvEEE9constructB7v160006IiJRKiEEEvPT_DpOT0_, symObjAddr: 0x8FE4, symBinAddr: 0x10000D074, symSize: 0x28 }
  - { offsetInCU: 0x19BAC, offset: 0x19BAC, size: 0x8, addend: 0x0, symName: __ZNSt3__117__compressed_pairIPNS_11__hash_nodeIiPvEENS_22__hash_node_destructorINS_9allocatorIS3_EEEEE6secondB7v160006Ev, symObjAddr: 0x900C, symBinAddr: 0x10000D09C, symSize: 0x28 }
  - { offsetInCU: 0x19BD2, offset: 0x19BD2, size: 0x8, addend: 0x0, symName: __ZNSt3__122__compressed_pair_elemINS_22__hash_node_destructorINS_9allocatorINS_11__hash_nodeIiPvEEEEEELi1ELb0EE5__getB7v160006Ev, symObjAddr: 0x9034, symBinAddr: 0x10000D0C4, symSize: 0x14 }
  - { offsetInCU: 0x19BF8, offset: 0x19BF8, size: 0x8, addend: 0x0, symName: __ZNSt3__117__compressed_pairImNS_4hashIiEEE5firstB7v160006Ev, symObjAddr: 0x9048, symBinAddr: 0x10000D0D8, symSize: 0x24 }
  - { offsetInCU: 0x19C1E, offset: 0x19C1E, size: 0x8, addend: 0x0, symName: __ZNSt3__117__compressed_pairIfNS_8equal_toIiEEE5firstB7v160006Ev, symObjAddr: 0x906C, symBinAddr: 0x10000D0FC, symSize: 0x24 }
  - { offsetInCU: 0x19C44, offset: 0x19C44, size: 0x8, addend: 0x0, symName: __ZNSt3__122__compressed_pair_elemIfLi0ELb0EE5__getB7v160006Ev, symObjAddr: 0x9090, symBinAddr: 0x10000D120, symSize: 0x14 }
  - { offsetInCU: 0x19C6A, offset: 0x19C6A, size: 0x8, addend: 0x0, symName: __ZNSt3__112__hash_tableIiNS_4hashIiEENS_8equal_toIiEENS_9allocatorIiEEE8__rehashILb1EEEvm, symObjAddr: 0x90A4, symBinAddr: 0x10000D134, symSize: 0x1A8 }
  - { offsetInCU: 0x19CB9, offset: 0x19CB9, size: 0x8, addend: 0x0, symName: __ZNSt3__112__hash_tableIiNS_4hashIiEENS_8equal_toIiEENS_9allocatorIiEEE11__do_rehashILb1EEEvm, symObjAddr: 0x924C, symBinAddr: 0x10000D2DC, symSize: 0x290 }
  - { offsetInCU: 0x19D9F, offset: 0x19D9F, size: 0x8, addend: 0x0, symName: __ZNSt3__110unique_ptrIA_PNS_16__hash_node_baseIPNS_11__hash_nodeIiPvEEEENS_25__bucket_list_deallocatorINS_9allocatorIS7_EEEEE11get_deleterB7v160006Ev, symObjAddr: 0x9558, symBinAddr: 0x10000D5E8, symSize: 0x24 }
  - { offsetInCU: 0x19DC5, offset: 0x19DC5, size: 0x8, addend: 0x0, symName: __ZNSt3__110unique_ptrIA_PNS_16__hash_node_baseIPNS_11__hash_nodeIiPvEEEENS_25__bucket_list_deallocatorINS_9allocatorIS7_EEEEE5resetB7v160006IPS7_EENS_9enable_ifIXsr28_CheckArrayPointerConversionIT_EE5valueEvE4typeESH_, symObjAddr: 0x957C, symBinAddr: 0x10000D60C, symSize: 0x78 }
  - { offsetInCU: 0x19E12, offset: 0x19E12, size: 0x8, addend: 0x0, symName: __ZNSt3__116allocator_traitsINS_9allocatorIPNS_16__hash_node_baseIPNS_11__hash_nodeIiPvEEEEEEE8allocateB7v160006ERS9_m, symObjAddr: 0x95F4, symBinAddr: 0x10000D684, symSize: 0x2C }
  - { offsetInCU: 0x19E45, offset: 0x19E45, size: 0x8, addend: 0x0, symName: __ZNSt3__19allocatorIPNS_16__hash_node_baseIPNS_11__hash_nodeIiPvEEEEE8allocateB7v160006Em, symObjAddr: 0x9620, symBinAddr: 0x10000D6B0, symSize: 0x84 }
  - { offsetInCU: 0x19E83, offset: 0x19E83, size: 0x8, addend: 0x0, symName: __ZNSt3__116allocator_traitsINS_9allocatorIPNS_16__hash_node_baseIPNS_11__hash_nodeIiPvEEEEEEE8max_sizeB7v160006IS9_vEEmRKS9_, symObjAddr: 0x96A4, symBinAddr: 0x10000D734, symSize: 0x24 }
  - { offsetInCU: 0x19EB1, offset: 0x19EB1, size: 0x8, addend: 0x0, symName: __ZNKSt3__19allocatorIPNS_16__hash_node_baseIPNS_11__hash_nodeIiPvEEEEE8max_sizeB7v160006Ev, symObjAddr: 0x96C8, symBinAddr: 0x10000D758, symSize: 0x14 }
  - { offsetInCU: 0x19ED7, offset: 0x19ED7, size: 0x8, addend: 0x0, symName: __ZNKSt3__117__compressed_pairIPNS_11__hash_nodeIiPvEENS_22__hash_node_destructorINS_9allocatorIS3_EEEEE5firstB7v160006Ev, symObjAddr: 0x96F8, symBinAddr: 0x10000D788, symSize: 0x24 }
  - { offsetInCU: 0x19EFD, offset: 0x19EFD, size: 0x8, addend: 0x0, symName: __ZNKSt3__122__compressed_pair_elemIPNS_11__hash_nodeIiPvEELi0ELb0EE5__getB7v160006Ev, symObjAddr: 0x971C, symBinAddr: 0x10000D7AC, symSize: 0x14 }
  - { offsetInCU: 0x19F23, offset: 0x19F23, size: 0x8, addend: 0x0, symName: __ZNSt3__117__compressed_pairIPNS_11__hash_nodeIiPvEENS_22__hash_node_destructorINS_9allocatorIS3_EEEEE5firstB7v160006Ev, symObjAddr: 0x9730, symBinAddr: 0x10000D7C0, symSize: 0x24 }
  - { offsetInCU: 0x19F49, offset: 0x19F49, size: 0x8, addend: 0x0, symName: __ZNSt3__122__compressed_pair_elemIPNS_11__hash_nodeIiPvEELi0ELb0EE5__getB7v160006Ev, symObjAddr: 0x9754, symBinAddr: 0x10000D7E4, symSize: 0x14 }
  - { offsetInCU: 0x19F6F, offset: 0x19F6F, size: 0x8, addend: 0x0, symName: __ZNSt3__110unique_ptrINS_11__hash_nodeIiPvEENS_22__hash_node_destructorINS_9allocatorIS3_EEEEED2B7v160006Ev, symObjAddr: 0x9768, symBinAddr: 0x10000D7F8, symSize: 0x30 }
  - { offsetInCU: 0x19F99, offset: 0x19F99, size: 0x8, addend: 0x0, symName: __ZNSt3__110unique_ptrINS_11__hash_nodeIiPvEENS_22__hash_node_destructorINS_9allocatorIS3_EEEEE5resetB7v160006EPS3_, symObjAddr: 0x9798, symBinAddr: 0x10000D828, symSize: 0x78 }
  - { offsetInCU: 0x19FDD, offset: 0x19FDD, size: 0x8, addend: 0x0, symName: __ZNSt3__122__hash_node_destructorINS_9allocatorINS_11__hash_nodeIiPvEEEEEclB7v160006EPS4_, symObjAddr: 0x9810, symBinAddr: 0x10000D8A0, symSize: 0x88 }
  - { offsetInCU: 0x1A012, offset: 0x1A012, size: 0x8, addend: 0x0, symName: __ZNSt3__115__hash_iteratorIPNS_11__hash_nodeIiPvEEEC2B7v160006EPNS_16__hash_node_baseIS4_EEPKv, symObjAddr: 0x9898, symBinAddr: 0x10000D928, symSize: 0x24 }
  - { offsetInCU: 0x1A05A, offset: 0x1A05A, size: 0x8, addend: 0x0, symName: __ZNSt3__14pairINS_15__hash_iteratorIPNS_11__hash_nodeIiPvEEEEbEC2B7v160006ERKS6_RKb, symObjAddr: 0x98BC, symBinAddr: 0x10000D94C, symSize: 0x38 }
  - { offsetInCU: 0x1A0A0, offset: 0x1A0A0, size: 0x8, addend: 0x0, symName: __ZNSt3__14pairINS_21__hash_const_iteratorIPNS_11__hash_nodeIiPvEEEEbEC2B7v160006INS_15__hash_iteratorIS5_EEbEERKNS0_IT_T0_EE, symObjAddr: 0x98F4, symBinAddr: 0x10000D984, symSize: 0x44 }
  - { offsetInCU: 0x1A0EA, offset: 0x1A0EA, size: 0x8, addend: 0x0, symName: __ZNSt3__121__hash_const_iteratorIPNS_11__hash_nodeIiPvEEEC1B7v160006ERKNS_15__hash_iteratorIS4_EE, symObjAddr: 0x9938, symBinAddr: 0x10000D9C8, symSize: 0x34 }
  - { offsetInCU: 0x1A123, offset: 0x1A123, size: 0x8, addend: 0x0, symName: __ZNSt3__121__hash_const_iteratorIPNS_11__hash_nodeIiPvEEEC2B7v160006ERKNS_15__hash_iteratorIS4_EE, symObjAddr: 0x996C, symBinAddr: 0x10000D9FC, symSize: 0x24 }
  - { offsetInCU: 0x1A15C, offset: 0x1A15C, size: 0x8, addend: 0x0, symName: __ZNSt3__16vectorINS_12basic_stringIcNS_11char_traitsIcEENS_9allocatorIcEEEENS4_IS6_EEEC2B7v160006Ev, symObjAddr: 0x9990, symBinAddr: 0x10000DA20, symSize: 0x4C }
  - { offsetInCU: 0x1A186, offset: 0x1A186, size: 0x8, addend: 0x0, symName: __ZNSt3__117__compressed_pairIPNS_12basic_stringIcNS_11char_traitsIcEENS_9allocatorIcEEEENS4_IS6_EEEC1B7v160006IDnNS_18__default_init_tagEEEOT_OT0_, symObjAddr: 0x99DC, symBinAddr: 0x10000DA6C, symSize: 0x3C }
  - { offsetInCU: 0x1A1DE, offset: 0x1A1DE, size: 0x8, addend: 0x0, symName: __ZNSt3__117__compressed_pairIPNS_12basic_stringIcNS_11char_traitsIcEENS_9allocatorIcEEEENS4_IS6_EEEC2B7v160006IDnNS_18__default_init_tagEEEOT_OT0_, symObjAddr: 0x9A28, symBinAddr: 0x10000DAB8, symSize: 0x40 }
  - { offsetInCU: 0x1A236, offset: 0x1A236, size: 0x8, addend: 0x0, symName: __ZNSt3__122__compressed_pair_elemIPNS_12basic_stringIcNS_11char_traitsIcEENS_9allocatorIcEEEELi0ELb0EEC2B7v160006IDnvEEOT_, symObjAddr: 0x9A68, symBinAddr: 0x10000DAF8, symSize: 0x1C }
  - { offsetInCU: 0x1A278, offset: 0x1A278, size: 0x8, addend: 0x0, symName: __ZNSt3__122__compressed_pair_elemINS_9allocatorINS_12basic_stringIcNS_11char_traitsIcEENS1_IcEEEEEELi1ELb1EEC2B7v160006ENS_18__default_init_tagE, symObjAddr: 0x9A84, symBinAddr: 0x10000DB14, symSize: 0x2C }
  - { offsetInCU: 0x1A2AD, offset: 0x1A2AD, size: 0x8, addend: 0x0, symName: __ZNSt3__19allocatorINS_12basic_stringIcNS_11char_traitsIcEENS0_IcEEEEEC2B7v160006Ev, symObjAddr: 0x9AB0, symBinAddr: 0x10000DB40, symSize: 0x2C }
  - { offsetInCU: 0x1A2D7, offset: 0x1A2D7, size: 0x8, addend: 0x0, symName: __ZNSt3__116__non_trivial_ifILb1ENS_9allocatorINS_12basic_stringIcNS_11char_traitsIcEENS1_IcEEEEEEEC2B7v160006Ev, symObjAddr: 0x9ADC, symBinAddr: 0x10000DB6C, symSize: 0x14 }
  - { offsetInCU: 0x1A301, offset: 0x1A301, size: 0x8, addend: 0x0, symName: __ZNSt3__16vectorINS_12basic_stringIcNS_11char_traitsIcEENS_9allocatorIcEEEENS4_IS6_EEED2B7v160006Ev, symObjAddr: 0x9AF0, symBinAddr: 0x10000DB80, symSize: 0x3C }
  - { offsetInCU: 0x1A32B, offset: 0x1A32B, size: 0x8, addend: 0x0, symName: __ZNSt3__16vectorINS_12basic_stringIcNS_11char_traitsIcEENS_9allocatorIcEEEENS4_IS6_EEE16__destroy_vectorC1ERS8_, symObjAddr: 0x9B2C, symBinAddr: 0x10000DBBC, symSize: 0x34 }
  - { offsetInCU: 0x1A364, offset: 0x1A364, size: 0x8, addend: 0x0, symName: __ZNSt3__16vectorINS_12basic_stringIcNS_11char_traitsIcEENS_9allocatorIcEEEENS4_IS6_EEE16__destroy_vectorclB7v160006Ev, symObjAddr: 0x9B60, symBinAddr: 0x10000DBF0, symSize: 0x9C }
  - { offsetInCU: 0x1A38A, offset: 0x1A38A, size: 0x8, addend: 0x0, symName: __ZNSt3__16vectorINS_12basic_stringIcNS_11char_traitsIcEENS_9allocatorIcEEEENS4_IS6_EEE16__destroy_vectorC2ERS8_, symObjAddr: 0x9BFC, symBinAddr: 0x10000DC8C, symSize: 0x20 }
  - { offsetInCU: 0x1A3C3, offset: 0x1A3C3, size: 0x8, addend: 0x0, symName: __ZNKSt3__16vectorINS_12basic_stringIcNS_11char_traitsIcEENS_9allocatorIcEEEENS4_IS6_EEE17__annotate_deleteB7v160006Ev, symObjAddr: 0x9C1C, symBinAddr: 0x10000DCAC, symSize: 0xD4 }
  - { offsetInCU: 0x1A3E9, offset: 0x1A3E9, size: 0x8, addend: 0x0, symName: __ZNSt3__16vectorINS_12basic_stringIcNS_11char_traitsIcEENS_9allocatorIcEEEENS4_IS6_EEE7__clearB7v160006Ev, symObjAddr: 0x9D00, symBinAddr: 0x10000DD90, symSize: 0x28 }
  - { offsetInCU: 0x1A40F, offset: 0x1A40F, size: 0x8, addend: 0x0, symName: __ZNSt3__116allocator_traitsINS_9allocatorINS_12basic_stringIcNS_11char_traitsIcEENS1_IcEEEEEEE10deallocateB7v160006ERS7_PS6_m, symObjAddr: 0x9D28, symBinAddr: 0x10000DDB8, symSize: 0x34 }
  - { offsetInCU: 0x1A451, offset: 0x1A451, size: 0x8, addend: 0x0, symName: __ZNSt3__16vectorINS_12basic_stringIcNS_11char_traitsIcEENS_9allocatorIcEEEENS4_IS6_EEE7__allocB7v160006Ev, symObjAddr: 0x9D5C, symBinAddr: 0x10000DDEC, symSize: 0x28 }
  - { offsetInCU: 0x1A477, offset: 0x1A477, size: 0x8, addend: 0x0, symName: __ZNKSt3__16vectorINS_12basic_stringIcNS_11char_traitsIcEENS_9allocatorIcEEEENS4_IS6_EEE8capacityB7v160006Ev, symObjAddr: 0x9D84, symBinAddr: 0x10000DE14, symSize: 0x40 }
  - { offsetInCU: 0x1A49D, offset: 0x1A49D, size: 0x8, addend: 0x0, symName: __ZNKSt3__16vectorINS_12basic_stringIcNS_11char_traitsIcEENS_9allocatorIcEEEENS4_IS6_EEE31__annotate_contiguous_containerB7v160006EPKvSA_SA_SA_, symObjAddr: 0x9DC4, symBinAddr: 0x10000DE54, symSize: 0x20 }
  - { offsetInCU: 0x1A4F3, offset: 0x1A4F3, size: 0x8, addend: 0x0, symName: __ZNKSt3__16vectorINS_12basic_stringIcNS_11char_traitsIcEENS_9allocatorIcEEEENS4_IS6_EEE4dataB7v160006Ev, symObjAddr: 0x9DE4, symBinAddr: 0x10000DE74, symSize: 0x28 }
  - { offsetInCU: 0x1A519, offset: 0x1A519, size: 0x8, addend: 0x0, symName: __ZNKSt3__16vectorINS_12basic_stringIcNS_11char_traitsIcEENS_9allocatorIcEEEENS4_IS6_EEE4sizeB7v160006Ev, symObjAddr: 0x9E0C, symBinAddr: 0x10000DE9C, symSize: 0x28 }
  - { offsetInCU: 0x1A53F, offset: 0x1A53F, size: 0x8, addend: 0x0, symName: __ZNSt3__16vectorINS_12basic_stringIcNS_11char_traitsIcEENS_9allocatorIcEEEENS4_IS6_EEE22__base_destruct_at_endB7v160006EPS6_, symObjAddr: 0x9E48, symBinAddr: 0x10000DED8, symSize: 0xA0 }
  - { offsetInCU: 0x1A583, offset: 0x1A583, size: 0x8, addend: 0x0, symName: __ZNSt3__116allocator_traitsINS_9allocatorINS_12basic_stringIcNS_11char_traitsIcEENS1_IcEEEEEEE7destroyB7v160006IS6_vEEvRS7_PT_, symObjAddr: 0x9EE8, symBinAddr: 0x10000DF78, symSize: 0x2C }
  - { offsetInCU: 0x1A5C0, offset: 0x1A5C0, size: 0x8, addend: 0x0, symName: __ZNSt3__19allocatorINS_12basic_stringIcNS_11char_traitsIcEENS0_IcEEEEE7destroyB7v160006EPS5_, symObjAddr: 0x9F14, symBinAddr: 0x10000DFA4, symSize: 0x28 }
  - { offsetInCU: 0x1A5F4, offset: 0x1A5F4, size: 0x8, addend: 0x0, symName: __ZNSt3__19allocatorINS_12basic_stringIcNS_11char_traitsIcEENS0_IcEEEEE10deallocateB7v160006EPS5_m, symObjAddr: 0x9F3C, symBinAddr: 0x10000DFCC, symSize: 0x74 }
  - { offsetInCU: 0x1A636, offset: 0x1A636, size: 0x8, addend: 0x0, symName: __ZNSt3__117__compressed_pairIPNS_12basic_stringIcNS_11char_traitsIcEENS_9allocatorIcEEEENS4_IS6_EEE6secondB7v160006Ev, symObjAddr: 0x9FB0, symBinAddr: 0x10000E040, symSize: 0x24 }
  - { offsetInCU: 0x1A65C, offset: 0x1A65C, size: 0x8, addend: 0x0, symName: __ZNSt3__122__compressed_pair_elemINS_9allocatorINS_12basic_stringIcNS_11char_traitsIcEENS1_IcEEEEEELi1ELb1EE5__getB7v160006Ev, symObjAddr: 0x9FD4, symBinAddr: 0x10000E064, symSize: 0x14 }
  - { offsetInCU: 0x1A682, offset: 0x1A682, size: 0x8, addend: 0x0, symName: __ZNKSt3__16vectorINS_12basic_stringIcNS_11char_traitsIcEENS_9allocatorIcEEEENS4_IS6_EEE9__end_capB7v160006Ev, symObjAddr: 0x9FE8, symBinAddr: 0x10000E078, symSize: 0x28 }
  - { offsetInCU: 0x1A6A8, offset: 0x1A6A8, size: 0x8, addend: 0x0, symName: __ZNKSt3__117__compressed_pairIPNS_12basic_stringIcNS_11char_traitsIcEENS_9allocatorIcEEEENS4_IS6_EEE5firstB7v160006Ev, symObjAddr: 0xA010, symBinAddr: 0x10000E0A0, symSize: 0x24 }
  - { offsetInCU: 0x1A6CE, offset: 0x1A6CE, size: 0x8, addend: 0x0, symName: __ZNKSt3__122__compressed_pair_elemIPNS_12basic_stringIcNS_11char_traitsIcEENS_9allocatorIcEEEELi0ELb0EE5__getB7v160006Ev, symObjAddr: 0xA034, symBinAddr: 0x10000E0C4, symSize: 0x14 }
  - { offsetInCU: 0x1A6F4, offset: 0x1A6F4, size: 0x8, addend: 0x0, symName: __ZNSt3__16vectorINS_12basic_stringIcNS_11char_traitsIcEENS_9allocatorIcEEEENS4_IS6_EEE9__end_capB7v160006Ev, symObjAddr: 0xA048, symBinAddr: 0x10000E0D8, symSize: 0x28 }
  - { offsetInCU: 0x1A71A, offset: 0x1A71A, size: 0x8, addend: 0x0, symName: __ZNSt3__16vectorINS_12basic_stringIcNS_11char_traitsIcEENS_9allocatorIcEEEENS4_IS6_EEE22__construct_one_at_endB7v160006IJRKS6_EEEvDpOT_, symObjAddr: 0xA070, symBinAddr: 0x10000E100, symSize: 0x98 }
  - { offsetInCU: 0x1A769, offset: 0x1A769, size: 0x8, addend: 0x0, symName: __ZNSt3__16vectorINS_12basic_stringIcNS_11char_traitsIcEENS_9allocatorIcEEEENS4_IS6_EEE21__push_back_slow_pathIRKS6_EEvOT_, symObjAddr: 0xA108, symBinAddr: 0x10000E198, symSize: 0xE0 }
  - { offsetInCU: 0x1A7C6, offset: 0x1A7C6, size: 0x8, addend: 0x0, symName: __ZNSt3__117__compressed_pairIPNS_12basic_stringIcNS_11char_traitsIcEENS_9allocatorIcEEEENS4_IS6_EEE5firstB7v160006Ev, symObjAddr: 0xA1E8, symBinAddr: 0x10000E278, symSize: 0x24 }
  - { offsetInCU: 0x1A7EC, offset: 0x1A7EC, size: 0x8, addend: 0x0, symName: __ZNSt3__122__compressed_pair_elemIPNS_12basic_stringIcNS_11char_traitsIcEENS_9allocatorIcEEEELi0ELb0EE5__getB7v160006Ev, symObjAddr: 0xA20C, symBinAddr: 0x10000E29C, symSize: 0x14 }
  - { offsetInCU: 0x1A82B, offset: 0x1A82B, size: 0x8, addend: 0x0, symName: __ZNSt3__16vectorINS_12basic_stringIcNS_11char_traitsIcEENS_9allocatorIcEEEENS4_IS6_EEE21_ConstructTransactionC1B7v160006ERS8_m, symObjAddr: 0xA220, symBinAddr: 0x10000E2B0, symSize: 0x3C }
  - { offsetInCU: 0x1A873, offset: 0x1A873, size: 0x8, addend: 0x0, symName: __ZNSt3__116allocator_traitsINS_9allocatorINS_12basic_stringIcNS_11char_traitsIcEENS1_IcEEEEEEE9constructB7v160006IS6_JRKS6_EvEEvRS7_PT_DpOT0_, symObjAddr: 0xA25C, symBinAddr: 0x10000E2EC, symSize: 0x34 }
  - { offsetInCU: 0x1A8CA, offset: 0x1A8CA, size: 0x8, addend: 0x0, symName: __ZNSt3__16vectorINS_12basic_stringIcNS_11char_traitsIcEENS_9allocatorIcEEEENS4_IS6_EEE21_ConstructTransactionD1B7v160006Ev, symObjAddr: 0xA290, symBinAddr: 0x10000E320, symSize: 0x2C }
  - { offsetInCU: 0x1A8F4, offset: 0x1A8F4, size: 0x8, addend: 0x0, symName: __ZNSt3__16vectorINS_12basic_stringIcNS_11char_traitsIcEENS_9allocatorIcEEEENS4_IS6_EEE21_ConstructTransactionC2B7v160006ERS8_m, symObjAddr: 0xA2BC, symBinAddr: 0x10000E34C, symSize: 0x4C }
  - { offsetInCU: 0x1A93C, offset: 0x1A93C, size: 0x8, addend: 0x0, symName: __ZNSt3__19allocatorINS_12basic_stringIcNS_11char_traitsIcEENS0_IcEEEEE9constructB7v160006IS5_JRKS5_EEEvPT_DpOT0_, symObjAddr: 0xA308, symBinAddr: 0x10000E398, symSize: 0x30 }
  - { offsetInCU: 0x1A992, offset: 0x1A992, size: 0x8, addend: 0x0, symName: __ZNSt3__16vectorINS_12basic_stringIcNS_11char_traitsIcEENS_9allocatorIcEEEENS4_IS6_EEE21_ConstructTransactionD2B7v160006Ev, symObjAddr: 0xA338, symBinAddr: 0x10000E3C8, symSize: 0x20 }
  - { offsetInCU: 0x1A9BC, offset: 0x1A9BC, size: 0x8, addend: 0x0, symName: __ZNKSt3__16vectorINS_12basic_stringIcNS_11char_traitsIcEENS_9allocatorIcEEEENS4_IS6_EEE11__recommendB7v160006Em, symObjAddr: 0xA358, symBinAddr: 0x10000E3E8, symSize: 0xB4 }
  - { offsetInCU: 0x1AA10, offset: 0x1AA10, size: 0x8, addend: 0x0, symName: __ZNSt3__114__split_bufferINS_12basic_stringIcNS_11char_traitsIcEENS_9allocatorIcEEEERNS4_IS6_EEEC1EmmS8_, symObjAddr: 0xA40C, symBinAddr: 0x10000E49C, symSize: 0x44 }
  - { offsetInCU: 0x1AA66, offset: 0x1AA66, size: 0x8, addend: 0x0, symName: __ZNSt3__114__split_bufferINS_12basic_stringIcNS_11char_traitsIcEENS_9allocatorIcEEEERNS4_IS6_EEED1Ev, symObjAddr: 0xA568, symBinAddr: 0x10000E5F8, symSize: 0x2C }
  - { offsetInCU: 0x1AA92, offset: 0x1AA92, size: 0x8, addend: 0x0, symName: __ZNKSt3__16vectorINS_12basic_stringIcNS_11char_traitsIcEENS_9allocatorIcEEEENS4_IS6_EEE8max_sizeEv, symObjAddr: 0xA594, symBinAddr: 0x10000E624, symSize: 0x74 }
  - { offsetInCU: 0x1AAB9, offset: 0x1AAB9, size: 0x8, addend: 0x0, symName: __ZNKSt3__16vectorINS_12basic_stringIcNS_11char_traitsIcEENS_9allocatorIcEEEENS4_IS6_EEE20__throw_length_errorB7v160006Ev, symObjAddr: 0xA608, symBinAddr: 0x10000E698, symSize: 0x1C }
  - { offsetInCU: 0x1AAE9, offset: 0x1AAE9, size: 0x8, addend: 0x0, symName: __ZNSt3__116allocator_traitsINS_9allocatorINS_12basic_stringIcNS_11char_traitsIcEENS1_IcEEEEEEE8max_sizeB7v160006IS7_vEEmRKS7_, symObjAddr: 0xA624, symBinAddr: 0x10000E6B4, symSize: 0x24 }
  - { offsetInCU: 0x1AB17, offset: 0x1AB17, size: 0x8, addend: 0x0, symName: __ZNKSt3__16vectorINS_12basic_stringIcNS_11char_traitsIcEENS_9allocatorIcEEEENS4_IS6_EEE7__allocB7v160006Ev, symObjAddr: 0xA648, symBinAddr: 0x10000E6D8, symSize: 0x28 }
  - { offsetInCU: 0x1AB3D, offset: 0x1AB3D, size: 0x8, addend: 0x0, symName: __ZNKSt3__19allocatorINS_12basic_stringIcNS_11char_traitsIcEENS0_IcEEEEE8max_sizeB7v160006Ev, symObjAddr: 0xA670, symBinAddr: 0x10000E700, symSize: 0x18 }
  - { offsetInCU: 0x1AB63, offset: 0x1AB63, size: 0x8, addend: 0x0, symName: __ZNKSt3__117__compressed_pairIPNS_12basic_stringIcNS_11char_traitsIcEENS_9allocatorIcEEEENS4_IS6_EEE6secondB7v160006Ev, symObjAddr: 0xA688, symBinAddr: 0x10000E718, symSize: 0x24 }
  - { offsetInCU: 0x1AB89, offset: 0x1AB89, size: 0x8, addend: 0x0, symName: __ZNKSt3__122__compressed_pair_elemINS_9allocatorINS_12basic_stringIcNS_11char_traitsIcEENS1_IcEEEEEELi1ELb1EE5__getB7v160006Ev, symObjAddr: 0xA6AC, symBinAddr: 0x10000E73C, symSize: 0x14 }
  - { offsetInCU: 0x1ABAF, offset: 0x1ABAF, size: 0x8, addend: 0x0, symName: __ZNSt3__114__split_bufferINS_12basic_stringIcNS_11char_traitsIcEENS_9allocatorIcEEEERNS4_IS6_EEEC2EmmS8_, symObjAddr: 0xA6C0, symBinAddr: 0x10000E750, symSize: 0xE0 }
  - { offsetInCU: 0x1AC23, offset: 0x1AC23, size: 0x8, addend: 0x0, symName: __ZNSt3__117__compressed_pairIPNS_12basic_stringIcNS_11char_traitsIcEENS_9allocatorIcEEEERNS4_IS6_EEEC1B7v160006IDnS9_EEOT_OT0_, symObjAddr: 0xA7A0, symBinAddr: 0x10000E830, symSize: 0x3C }
  - { offsetInCU: 0x1AC7B, offset: 0x1AC7B, size: 0x8, addend: 0x0, symName: __ZNSt3__114__split_bufferINS_12basic_stringIcNS_11char_traitsIcEENS_9allocatorIcEEEERNS4_IS6_EEE7__allocB7v160006Ev, symObjAddr: 0xA81C, symBinAddr: 0x10000E8AC, symSize: 0x28 }
  - { offsetInCU: 0x1ACA1, offset: 0x1ACA1, size: 0x8, addend: 0x0, symName: __ZNSt3__114__split_bufferINS_12basic_stringIcNS_11char_traitsIcEENS_9allocatorIcEEEERNS4_IS6_EEE9__end_capB7v160006Ev, symObjAddr: 0xA844, symBinAddr: 0x10000E8D4, symSize: 0x28 }
  - { offsetInCU: 0x1ACC7, offset: 0x1ACC7, size: 0x8, addend: 0x0, symName: __ZNSt3__117__compressed_pairIPNS_12basic_stringIcNS_11char_traitsIcEENS_9allocatorIcEEEERNS4_IS6_EEEC2B7v160006IDnS9_EEOT_OT0_, symObjAddr: 0xA86C, symBinAddr: 0x10000E8FC, symSize: 0x48 }
  - { offsetInCU: 0x1AD1F, offset: 0x1AD1F, size: 0x8, addend: 0x0, symName: __ZNSt3__122__compressed_pair_elemIRNS_9allocatorINS_12basic_stringIcNS_11char_traitsIcEENS1_IcEEEEEELi1ELb0EEC2B7v160006IS8_vEEOT_, symObjAddr: 0xA8B4, symBinAddr: 0x10000E944, symSize: 0x20 }
  - { offsetInCU: 0x1AD61, offset: 0x1AD61, size: 0x8, addend: 0x0, symName: __ZNSt3__19allocatorINS_12basic_stringIcNS_11char_traitsIcEENS0_IcEEEEE8allocateB7v160006Em, symObjAddr: 0xA8D4, symBinAddr: 0x10000E964, symSize: 0x8C }
  - { offsetInCU: 0x1AD95, offset: 0x1AD95, size: 0x8, addend: 0x0, symName: __ZNSt3__117__compressed_pairIPNS_12basic_stringIcNS_11char_traitsIcEENS_9allocatorIcEEEERNS4_IS6_EEE6secondB7v160006Ev, symObjAddr: 0xA960, symBinAddr: 0x10000E9F0, symSize: 0x28 }
  - { offsetInCU: 0x1ADBB, offset: 0x1ADBB, size: 0x8, addend: 0x0, symName: __ZNSt3__122__compressed_pair_elemIRNS_9allocatorINS_12basic_stringIcNS_11char_traitsIcEENS1_IcEEEEEELi1ELb0EE5__getB7v160006Ev, symObjAddr: 0xA988, symBinAddr: 0x10000EA18, symSize: 0x18 }
  - { offsetInCU: 0x1ADE1, offset: 0x1ADE1, size: 0x8, addend: 0x0, symName: __ZNSt3__117__compressed_pairIPNS_12basic_stringIcNS_11char_traitsIcEENS_9allocatorIcEEEERNS4_IS6_EEE5firstB7v160006Ev, symObjAddr: 0xA9A0, symBinAddr: 0x10000EA30, symSize: 0x24 }
  - { offsetInCU: 0x1AE07, offset: 0x1AE07, size: 0x8, addend: 0x0, symName: __ZNSt3__116reverse_iteratorIPNS_12basic_stringIcNS_11char_traitsIcEENS_9allocatorIcEEEEEC1B7v160006ES7_, symObjAddr: 0xAAF8, symBinAddr: 0x10000EB88, symSize: 0x34 }
  - { offsetInCU: 0x1AE3F, offset: 0x1AE3F, size: 0x8, addend: 0x0, symName: __ZNKSt3__116reverse_iteratorIPNS_12basic_stringIcNS_11char_traitsIcEENS_9allocatorIcEEEEE4baseB7v160006Ev, symObjAddr: 0xAB2C, symBinAddr: 0x10000EBBC, symSize: 0x18 }
  - { offsetInCU: 0x1AE65, offset: 0x1AE65, size: 0x8, addend: 0x0, symName: __ZNKSt3__16vectorINS_12basic_stringIcNS_11char_traitsIcEENS_9allocatorIcEEEENS4_IS6_EEE14__annotate_newB7v160006Em, symObjAddr: 0xAB80, symBinAddr: 0x10000EC10, symSize: 0xC8 }
  - { offsetInCU: 0x1AE9A, offset: 0x1AE9A, size: 0x8, addend: 0x0, symName: __ZNSt3__129_AllocatorDestroyRangeReverseINS_9allocatorINS_12basic_stringIcNS_11char_traitsIcEENS1_IcEEEEEENS_16reverse_iteratorIPS6_EEEC1B7v160006ERS7_RSA_SD_, symObjAddr: 0xACA4, symBinAddr: 0x10000ED34, symSize: 0x44 }
  - { offsetInCU: 0x1AEF1, offset: 0x1AEF1, size: 0x8, addend: 0x0, symName: __ZNKSt3__116reverse_iteratorIPNS_12basic_stringIcNS_11char_traitsIcEENS_9allocatorIcEEEEEdeB7v160006Ev, symObjAddr: 0xAD54, symBinAddr: 0x10000EDE4, symSize: 0x28 }
  - { offsetInCU: 0x1AF25, offset: 0x1AF25, size: 0x8, addend: 0x0, symName: __ZNSt3__116reverse_iteratorIPNS_12basic_stringIcNS_11char_traitsIcEENS_9allocatorIcEEEEEppB7v160006Ev, symObjAddr: 0xAD7C, symBinAddr: 0x10000EE0C, symSize: 0x20 }
  - { offsetInCU: 0x1AF4B, offset: 0x1AF4B, size: 0x8, addend: 0x0, symName: __ZNSt3__128__exception_guard_exceptionsINS_29_AllocatorDestroyRangeReverseINS_9allocatorINS_12basic_stringIcNS_11char_traitsIcEENS2_IcEEEEEENS_16reverse_iteratorIPS7_EEEEE10__completeB7v160006Ev, symObjAddr: 0xAD9C, symBinAddr: 0x10000EE2C, symSize: 0x1C }
  - { offsetInCU: 0x1AF71, offset: 0x1AF71, size: 0x8, addend: 0x0, symName: __ZNSt3__128__exception_guard_exceptionsINS_29_AllocatorDestroyRangeReverseINS_9allocatorINS_12basic_stringIcNS_11char_traitsIcEENS2_IcEEEEEENS_16reverse_iteratorIPS7_EEEEED1B7v160006Ev, symObjAddr: 0xADB8, symBinAddr: 0x10000EE48, symSize: 0x2C }
  - { offsetInCU: 0x1AF9B, offset: 0x1AF9B, size: 0x8, addend: 0x0, symName: __ZNSt3__128__exception_guard_exceptionsINS_29_AllocatorDestroyRangeReverseINS_9allocatorINS_12basic_stringIcNS_11char_traitsIcEENS2_IcEEEEEENS_16reverse_iteratorIPS7_EEEEEC1B7v160006ESC_, symObjAddr: 0xADE4, symBinAddr: 0x10000EE74, symSize: 0x34 }
  - { offsetInCU: 0x1AFD4, offset: 0x1AFD4, size: 0x8, addend: 0x0, symName: __ZNSt3__128__exception_guard_exceptionsINS_29_AllocatorDestroyRangeReverseINS_9allocatorINS_12basic_stringIcNS_11char_traitsIcEENS2_IcEEEEEENS_16reverse_iteratorIPS7_EEEEEC2B7v160006ESC_, symObjAddr: 0xAE18, symBinAddr: 0x10000EEA8, symSize: 0x30 }
  - { offsetInCU: 0x1B00D, offset: 0x1B00D, size: 0x8, addend: 0x0, symName: __ZNSt3__129_AllocatorDestroyRangeReverseINS_9allocatorINS_12basic_stringIcNS_11char_traitsIcEENS1_IcEEEEEENS_16reverse_iteratorIPS6_EEEC2B7v160006ERS7_RSA_SD_, symObjAddr: 0xAE48, symBinAddr: 0x10000EED8, symSize: 0x38 }
  - { offsetInCU: 0x1B069, offset: 0x1B069, size: 0x8, addend: 0x0, symName: __ZNSt3__119__to_address_helperINS_16reverse_iteratorIPNS_12basic_stringIcNS_11char_traitsIcEENS_9allocatorIcEEEEEEvE6__callB7v160006ERKS9_, symObjAddr: 0xAE80, symBinAddr: 0x10000EF10, symSize: 0x4C }
  - { offsetInCU: 0x1B08C, offset: 0x1B08C, size: 0x8, addend: 0x0, symName: __ZNKSt3__116reverse_iteratorIPNS_12basic_stringIcNS_11char_traitsIcEENS_9allocatorIcEEEEEptB7v160006Ev, symObjAddr: 0xAECC, symBinAddr: 0x10000EF5C, symSize: 0x24 }
  - { offsetInCU: 0x1B0B2, offset: 0x1B0B2, size: 0x8, addend: 0x0, symName: __ZNSt3__128__exception_guard_exceptionsINS_29_AllocatorDestroyRangeReverseINS_9allocatorINS_12basic_stringIcNS_11char_traitsIcEENS2_IcEEEEEENS_16reverse_iteratorIPS7_EEEEED2B7v160006Ev, symObjAddr: 0xAEF0, symBinAddr: 0x10000EF80, symSize: 0x48 }
  - { offsetInCU: 0x1B0DC, offset: 0x1B0DC, size: 0x8, addend: 0x0, symName: __ZNKSt3__129_AllocatorDestroyRangeReverseINS_9allocatorINS_12basic_stringIcNS_11char_traitsIcEENS1_IcEEEEEENS_16reverse_iteratorIPS6_EEEclB7v160006Ev, symObjAddr: 0xAF38, symBinAddr: 0x10000EFC8, symSize: 0xB4 }
  - { offsetInCU: 0x1B103, offset: 0x1B103, size: 0x8, addend: 0x0, symName: __ZNSt3__116reverse_iteratorINS0_IPNS_12basic_stringIcNS_11char_traitsIcEENS_9allocatorIcEEEEEEEC1B7v160006ES8_, symObjAddr: 0xB05C, symBinAddr: 0x10000F0EC, symSize: 0x3C }
  - { offsetInCU: 0x1B13B, offset: 0x1B13B, size: 0x8, addend: 0x0, symName: __ZNSt3__116reverse_iteratorINS0_IPNS_12basic_stringIcNS_11char_traitsIcEENS_9allocatorIcEEEEEEEppB7v160006Ev, symObjAddr: 0xB11C, symBinAddr: 0x10000F1AC, symSize: 0x30 }
  - { offsetInCU: 0x1B161, offset: 0x1B161, size: 0x8, addend: 0x0, symName: __ZNKSt3__116reverse_iteratorINS0_IPNS_12basic_stringIcNS_11char_traitsIcEENS_9allocatorIcEEEEEEE4baseB7v160006Ev, symObjAddr: 0xB14C, symBinAddr: 0x10000F1DC, symSize: 0x24 }
  - { offsetInCU: 0x1B18C, offset: 0x1B18C, size: 0x8, addend: 0x0, symName: __ZNSt3__119__to_address_helperINS_16reverse_iteratorINS1_IPNS_12basic_stringIcNS_11char_traitsIcEENS_9allocatorIcEEEEEEEEvE6__callB7v160006ERKSA_, symObjAddr: 0xB170, symBinAddr: 0x10000F200, symSize: 0x4C }
  - { offsetInCU: 0x1B1AF, offset: 0x1B1AF, size: 0x8, addend: 0x0, symName: __ZNKSt3__116reverse_iteratorINS0_IPNS_12basic_stringIcNS_11char_traitsIcEENS_9allocatorIcEEEEEEEptB7v160006Ev, symObjAddr: 0xB1BC, symBinAddr: 0x10000F24C, symSize: 0x24 }
  - { offsetInCU: 0x1B1D5, offset: 0x1B1D5, size: 0x8, addend: 0x0, symName: __ZNKSt3__116reverse_iteratorINS0_IPNS_12basic_stringIcNS_11char_traitsIcEENS_9allocatorIcEEEEEEEdeB7v160006Ev, symObjAddr: 0xB1E0, symBinAddr: 0x10000F270, symSize: 0x34 }
  - { offsetInCU: 0x1B209, offset: 0x1B209, size: 0x8, addend: 0x0, symName: __ZNSt3__116reverse_iteratorIPNS_12basic_stringIcNS_11char_traitsIcEENS_9allocatorIcEEEEEmmB7v160006Ev, symObjAddr: 0xB214, symBinAddr: 0x10000F2A4, symSize: 0x20 }
  - { offsetInCU: 0x1B22F, offset: 0x1B22F, size: 0x8, addend: 0x0, symName: __ZNSt3__116reverse_iteratorINS0_IPNS_12basic_stringIcNS_11char_traitsIcEENS_9allocatorIcEEEEEEEC2B7v160006ES8_, symObjAddr: 0xB234, symBinAddr: 0x10000F2C4, symSize: 0x2C }
  - { offsetInCU: 0x1B267, offset: 0x1B267, size: 0x8, addend: 0x0, symName: __ZNSt3__116reverse_iteratorIPNS_12basic_stringIcNS_11char_traitsIcEENS_9allocatorIcEEEEEC2B7v160006ES7_, symObjAddr: 0xB260, symBinAddr: 0x10000F2F0, symSize: 0x28 }
  - { offsetInCU: 0x1B29F, offset: 0x1B29F, size: 0x8, addend: 0x0, symName: __ZNSt3__114__split_bufferINS_12basic_stringIcNS_11char_traitsIcEENS_9allocatorIcEEEERNS4_IS6_EEED2Ev, symObjAddr: 0xB288, symBinAddr: 0x10000F318, symSize: 0x80 }
  - { offsetInCU: 0x1B2CB, offset: 0x1B2CB, size: 0x8, addend: 0x0, symName: __ZNSt3__114__split_bufferINS_12basic_stringIcNS_11char_traitsIcEENS_9allocatorIcEEEERNS4_IS6_EEE5clearB7v160006Ev, symObjAddr: 0xB308, symBinAddr: 0x10000F398, symSize: 0x28 }
  - { offsetInCU: 0x1B2F1, offset: 0x1B2F1, size: 0x8, addend: 0x0, symName: __ZNKSt3__114__split_bufferINS_12basic_stringIcNS_11char_traitsIcEENS_9allocatorIcEEEERNS4_IS6_EEE8capacityB7v160006Ev, symObjAddr: 0xB330, symBinAddr: 0x10000F3C0, symSize: 0x40 }
  - { offsetInCU: 0x1B317, offset: 0x1B317, size: 0x8, addend: 0x0, symName: __ZNSt3__114__split_bufferINS_12basic_stringIcNS_11char_traitsIcEENS_9allocatorIcEEEERNS4_IS6_EEE17__destruct_at_endB7v160006EPS6_, symObjAddr: 0xB370, symBinAddr: 0x10000F400, symSize: 0x2C }
  - { offsetInCU: 0x1B34B, offset: 0x1B34B, size: 0x8, addend: 0x0, symName: __ZNSt3__114__split_bufferINS_12basic_stringIcNS_11char_traitsIcEENS_9allocatorIcEEEERNS4_IS6_EEE17__destruct_at_endB7v160006EPS6_NS_17integral_constantIbLb0EEE, symObjAddr: 0xB39C, symBinAddr: 0x10000F42C, symSize: 0x94 }
  - { offsetInCU: 0x1B38B, offset: 0x1B38B, size: 0x8, addend: 0x0, symName: __ZNKSt3__114__split_bufferINS_12basic_stringIcNS_11char_traitsIcEENS_9allocatorIcEEEERNS4_IS6_EEE9__end_capB7v160006Ev, symObjAddr: 0xB430, symBinAddr: 0x10000F4C0, symSize: 0x28 }
  - { offsetInCU: 0x1B3B1, offset: 0x1B3B1, size: 0x8, addend: 0x0, symName: __ZNKSt3__117__compressed_pairIPNS_12basic_stringIcNS_11char_traitsIcEENS_9allocatorIcEEEERNS4_IS6_EEE5firstB7v160006Ev, symObjAddr: 0xB458, symBinAddr: 0x10000F4E8, symSize: 0x24 }
  - { offsetInCU: 0x1B3D7, offset: 0x1B3D7, size: 0x8, addend: 0x0, symName: __ZNSt3__113unordered_setINS_12basic_stringIcNS_11char_traitsIcEENS_9allocatorIcEEEENS_4hashIS6_EENS_8equal_toIS6_EENS4_IS6_EEEC2B7v160006Ev, symObjAddr: 0xB47C, symBinAddr: 0x10000F50C, symSize: 0x64 }
  - { offsetInCU: 0x1B401, offset: 0x1B401, size: 0x8, addend: 0x0, symName: __ZNSt3__112__hash_tableINS_12basic_stringIcNS_11char_traitsIcEENS_9allocatorIcEEEENS_4hashIS6_EENS_8equal_toIS6_EENS4_IS6_EEEC1Ev, symObjAddr: 0xB4E0, symBinAddr: 0x10000F570, symSize: 0x2C }
  - { offsetInCU: 0x1B42D, offset: 0x1B42D, size: 0x8, addend: 0x0, symName: __ZNSt3__112__hash_tableINS_12basic_stringIcNS_11char_traitsIcEENS_9allocatorIcEEEENS_4hashIS6_EENS_8equal_toIS6_EENS4_IS6_EEED1Ev, symObjAddr: 0xB51C, symBinAddr: 0x10000F5AC, symSize: 0x2C }
  - { offsetInCU: 0x1B459, offset: 0x1B459, size: 0x8, addend: 0x0, symName: __ZNSt3__112__hash_tableINS_12basic_stringIcNS_11char_traitsIcEENS_9allocatorIcEEEENS_4hashIS6_EENS_8equal_toIS6_EENS4_IS6_EEEC2Ev, symObjAddr: 0xB548, symBinAddr: 0x10000F5D8, symSize: 0xA4 }
  - { offsetInCU: 0x1B485, offset: 0x1B485, size: 0x8, addend: 0x0, symName: __ZNSt3__110unique_ptrIA_PNS_16__hash_node_baseIPNS_11__hash_nodeINS_12basic_stringIcNS_11char_traitsIcEENS_9allocatorIcEEEEPvEEEENS_25__bucket_list_deallocatorINS6_ISD_EEEEEC1B7v160006ILb1EvEEv, symObjAddr: 0xB5EC, symBinAddr: 0x10000F67C, symSize: 0x2C }
  - { offsetInCU: 0x1B4BA, offset: 0x1B4BA, size: 0x8, addend: 0x0, symName: __ZNSt3__117__compressed_pairINS_16__hash_node_baseIPNS_11__hash_nodeINS_12basic_stringIcNS_11char_traitsIcEENS_9allocatorIcEEEEPvEEEENS6_ISA_EEEC1B7v160006ILb1EvEEv, symObjAddr: 0xB618, symBinAddr: 0x10000F6A8, symSize: 0x2C }
  - { offsetInCU: 0x1B4EF, offset: 0x1B4EF, size: 0x8, addend: 0x0, symName: __ZNSt3__117__compressed_pairImNS_4hashINS_12basic_stringIcNS_11char_traitsIcEENS_9allocatorIcEEEEEEEC1B7v160006IiNS_18__default_init_tagEEEOT_OT0_, symObjAddr: 0xB644, symBinAddr: 0x10000F6D4, symSize: 0x3C }
  - { offsetInCU: 0x1B547, offset: 0x1B547, size: 0x8, addend: 0x0, symName: __ZNSt3__117__compressed_pairIfNS_8equal_toINS_12basic_stringIcNS_11char_traitsIcEENS_9allocatorIcEEEEEEEC1B7v160006IfNS_18__default_init_tagEEEOT_OT0_, symObjAddr: 0xB680, symBinAddr: 0x10000F710, symSize: 0x3C }
  - { offsetInCU: 0x1B59F, offset: 0x1B59F, size: 0x8, addend: 0x0, symName: __ZNSt3__110unique_ptrIA_PNS_16__hash_node_baseIPNS_11__hash_nodeINS_12basic_stringIcNS_11char_traitsIcEENS_9allocatorIcEEEEPvEEEENS_25__bucket_list_deallocatorINS6_ISD_EEEEED1B7v160006Ev, symObjAddr: 0xB6BC, symBinAddr: 0x10000F74C, symSize: 0x2C }
  - { offsetInCU: 0x1B5C9, offset: 0x1B5C9, size: 0x8, addend: 0x0, symName: __ZNSt3__110unique_ptrIA_PNS_16__hash_node_baseIPNS_11__hash_nodeINS_12basic_stringIcNS_11char_traitsIcEENS_9allocatorIcEEEEPvEEEENS_25__bucket_list_deallocatorINS6_ISD_EEEEEC2B7v160006ILb1EvEEv, symObjAddr: 0xB6E8, symBinAddr: 0x10000F778, symSize: 0x50 }
  - { offsetInCU: 0x1B5FE, offset: 0x1B5FE, size: 0x8, addend: 0x0, symName: __ZNSt3__117__compressed_pairIPPNS_16__hash_node_baseIPNS_11__hash_nodeINS_12basic_stringIcNS_11char_traitsIcEENS_9allocatorIcEEEEPvEEEENS_25__bucket_list_deallocatorINS6_ISD_EEEEEC1B7v160006INS_16__value_init_tagESK_EEOT_OT0_, symObjAddr: 0xB738, symBinAddr: 0x10000F7C8, symSize: 0x3C }
  - { offsetInCU: 0x1B656, offset: 0x1B656, size: 0x8, addend: 0x0, symName: __ZNSt3__117__compressed_pairIPPNS_16__hash_node_baseIPNS_11__hash_nodeINS_12basic_stringIcNS_11char_traitsIcEENS_9allocatorIcEEEEPvEEEENS_25__bucket_list_deallocatorINS6_ISD_EEEEEC2B7v160006INS_16__value_init_tagESK_EEOT_OT0_, symObjAddr: 0xB774, symBinAddr: 0x10000F804, symSize: 0x40 }
  - { offsetInCU: 0x1B6AE, offset: 0x1B6AE, size: 0x8, addend: 0x0, symName: __ZNSt3__122__compressed_pair_elemIPPNS_16__hash_node_baseIPNS_11__hash_nodeINS_12basic_stringIcNS_11char_traitsIcEENS_9allocatorIcEEEEPvEEEELi0ELb0EEC2B7v160006ENS_16__value_init_tagE, symObjAddr: 0xB7B4, symBinAddr: 0x10000F844, symSize: 0x18 }
  - { offsetInCU: 0x1B6E3, offset: 0x1B6E3, size: 0x8, addend: 0x0, symName: __ZNSt3__122__compressed_pair_elemINS_25__bucket_list_deallocatorINS_9allocatorIPNS_16__hash_node_baseIPNS_11__hash_nodeINS_12basic_stringIcNS_11char_traitsIcEENS2_IcEEEEPvEEEEEEEELi1ELb0EEC2B7v160006ENS_16__value_init_tagE, symObjAddr: 0xB7CC, symBinAddr: 0x10000F85C, symSize: 0x2C }
  - { offsetInCU: 0x1B718, offset: 0x1B718, size: 0x8, addend: 0x0, symName: __ZNSt3__125__bucket_list_deallocatorINS_9allocatorIPNS_16__hash_node_baseIPNS_11__hash_nodeINS_12basic_stringIcNS_11char_traitsIcEENS1_IcEEEEPvEEEEEEEC1B7v160006Ev, symObjAddr: 0xB7F8, symBinAddr: 0x10000F888, symSize: 0x2C }
  - { offsetInCU: 0x1B742, offset: 0x1B742, size: 0x8, addend: 0x0, symName: __ZNSt3__125__bucket_list_deallocatorINS_9allocatorIPNS_16__hash_node_baseIPNS_11__hash_nodeINS_12basic_stringIcNS_11char_traitsIcEENS1_IcEEEEPvEEEEEEEC2B7v160006Ev, symObjAddr: 0xB824, symBinAddr: 0x10000F8B4, symSize: 0x38 }
  - { offsetInCU: 0x1B76C, offset: 0x1B76C, size: 0x8, addend: 0x0, symName: __ZNSt3__117__compressed_pairImNS_9allocatorIPNS_16__hash_node_baseIPNS_11__hash_nodeINS_12basic_stringIcNS_11char_traitsIcEENS1_IcEEEEPvEEEEEEEC1B7v160006IiNS_18__default_init_tagEEEOT_OT0_, symObjAddr: 0xB85C, symBinAddr: 0x10000F8EC, symSize: 0x3C }
  - { offsetInCU: 0x1B7C4, offset: 0x1B7C4, size: 0x8, addend: 0x0, symName: __ZNSt3__117__compressed_pairImNS_9allocatorIPNS_16__hash_node_baseIPNS_11__hash_nodeINS_12basic_stringIcNS_11char_traitsIcEENS1_IcEEEEPvEEEEEEEC2B7v160006IiNS_18__default_init_tagEEEOT_OT0_, symObjAddr: 0xB898, symBinAddr: 0x10000F928, symSize: 0x40 }
  - { offsetInCU: 0x1B81C, offset: 0x1B81C, size: 0x8, addend: 0x0, symName: __ZNSt3__122__compressed_pair_elemINS_9allocatorIPNS_16__hash_node_baseIPNS_11__hash_nodeINS_12basic_stringIcNS_11char_traitsIcEENS1_IcEEEEPvEEEEEELi1ELb1EEC2B7v160006ENS_18__default_init_tagE, symObjAddr: 0xB8D8, symBinAddr: 0x10000F968, symSize: 0x2C }
  - { offsetInCU: 0x1B851, offset: 0x1B851, size: 0x8, addend: 0x0, symName: __ZNSt3__19allocatorIPNS_16__hash_node_baseIPNS_11__hash_nodeINS_12basic_stringIcNS_11char_traitsIcEENS0_IcEEEEPvEEEEEC2B7v160006Ev, symObjAddr: 0xB904, symBinAddr: 0x10000F994, symSize: 0x2C }
  - { offsetInCU: 0x1B87B, offset: 0x1B87B, size: 0x8, addend: 0x0, symName: __ZNSt3__116__non_trivial_ifILb1ENS_9allocatorIPNS_16__hash_node_baseIPNS_11__hash_nodeINS_12basic_stringIcNS_11char_traitsIcEENS1_IcEEEEPvEEEEEEEC2B7v160006Ev, symObjAddr: 0xB930, symBinAddr: 0x10000F9C0, symSize: 0x14 }
  - { offsetInCU: 0x1B8A5, offset: 0x1B8A5, size: 0x8, addend: 0x0, symName: __ZNSt3__117__compressed_pairINS_16__hash_node_baseIPNS_11__hash_nodeINS_12basic_stringIcNS_11char_traitsIcEENS_9allocatorIcEEEEPvEEEENS6_ISA_EEEC2B7v160006ILb1EvEEv, symObjAddr: 0xB944, symBinAddr: 0x10000F9D4, symSize: 0x34 }
  - { offsetInCU: 0x1B8DA, offset: 0x1B8DA, size: 0x8, addend: 0x0, symName: __ZNSt3__122__compressed_pair_elemINS_16__hash_node_baseIPNS_11__hash_nodeINS_12basic_stringIcNS_11char_traitsIcEENS_9allocatorIcEEEEPvEEEELi0ELb0EEC2B7v160006ENS_16__value_init_tagE, symObjAddr: 0xB978, symBinAddr: 0x10000FA08, symSize: 0x2C }
  - { offsetInCU: 0x1B90F, offset: 0x1B90F, size: 0x8, addend: 0x0, symName: __ZNSt3__122__compressed_pair_elemINS_9allocatorINS_11__hash_nodeINS_12basic_stringIcNS_11char_traitsIcEENS1_IcEEEEPvEEEELi1ELb1EEC2B7v160006ENS_16__value_init_tagE, symObjAddr: 0xB9A4, symBinAddr: 0x10000FA34, symSize: 0x2C }
  - { offsetInCU: 0x1B944, offset: 0x1B944, size: 0x8, addend: 0x0, symName: __ZNSt3__116__hash_node_baseIPNS_11__hash_nodeINS_12basic_stringIcNS_11char_traitsIcEENS_9allocatorIcEEEEPvEEEC1B7v160006Ev, symObjAddr: 0xB9D0, symBinAddr: 0x10000FA60, symSize: 0x2C }
  - { offsetInCU: 0x1B96E, offset: 0x1B96E, size: 0x8, addend: 0x0, symName: __ZNSt3__116__hash_node_baseIPNS_11__hash_nodeINS_12basic_stringIcNS_11char_traitsIcEENS_9allocatorIcEEEEPvEEEC2B7v160006Ev, symObjAddr: 0xB9FC, symBinAddr: 0x10000FA8C, symSize: 0x18 }
  - { offsetInCU: 0x1B998, offset: 0x1B998, size: 0x8, addend: 0x0, symName: __ZNSt3__19allocatorINS_11__hash_nodeINS_12basic_stringIcNS_11char_traitsIcEENS0_IcEEEEPvEEEC2B7v160006Ev, symObjAddr: 0xBA14, symBinAddr: 0x10000FAA4, symSize: 0x2C }
  - { offsetInCU: 0x1B9C2, offset: 0x1B9C2, size: 0x8, addend: 0x0, symName: __ZNSt3__116__non_trivial_ifILb1ENS_9allocatorINS_11__hash_nodeINS_12basic_stringIcNS_11char_traitsIcEENS1_IcEEEEPvEEEEEC2B7v160006Ev, symObjAddr: 0xBA40, symBinAddr: 0x10000FAD0, symSize: 0x14 }
  - { offsetInCU: 0x1B9EC, offset: 0x1B9EC, size: 0x8, addend: 0x0, symName: __ZNSt3__117__compressed_pairImNS_4hashINS_12basic_stringIcNS_11char_traitsIcEENS_9allocatorIcEEEEEEEC2B7v160006IiNS_18__default_init_tagEEEOT_OT0_, symObjAddr: 0xBA54, symBinAddr: 0x10000FAE4, symSize: 0x40 }
  - { offsetInCU: 0x1BA44, offset: 0x1BA44, size: 0x8, addend: 0x0, symName: __ZNSt3__122__compressed_pair_elemINS_4hashINS_12basic_stringIcNS_11char_traitsIcEENS_9allocatorIcEEEEEELi1ELb1EEC2B7v160006ENS_18__default_init_tagE, symObjAddr: 0xBA94, symBinAddr: 0x10000FB24, symSize: 0x14 }
  - { offsetInCU: 0x1BA79, offset: 0x1BA79, size: 0x8, addend: 0x0, symName: __ZNSt3__117__compressed_pairIfNS_8equal_toINS_12basic_stringIcNS_11char_traitsIcEENS_9allocatorIcEEEEEEEC2B7v160006IfNS_18__default_init_tagEEEOT_OT0_, symObjAddr: 0xBAA8, symBinAddr: 0x10000FB38, symSize: 0x40 }
  - { offsetInCU: 0x1BAD1, offset: 0x1BAD1, size: 0x8, addend: 0x0, symName: __ZNSt3__122__compressed_pair_elemINS_8equal_toINS_12basic_stringIcNS_11char_traitsIcEENS_9allocatorIcEEEEEELi1ELb1EEC2B7v160006ENS_18__default_init_tagE, symObjAddr: 0xBAE8, symBinAddr: 0x10000FB78, symSize: 0x14 }
  - { offsetInCU: 0x1BB06, offset: 0x1BB06, size: 0x8, addend: 0x0, symName: __ZNSt3__110unique_ptrIA_PNS_16__hash_node_baseIPNS_11__hash_nodeINS_12basic_stringIcNS_11char_traitsIcEENS_9allocatorIcEEEEPvEEEENS_25__bucket_list_deallocatorINS6_ISD_EEEEED2B7v160006Ev, symObjAddr: 0xBAFC, symBinAddr: 0x10000FB8C, symSize: 0x30 }
  - { offsetInCU: 0x1BB30, offset: 0x1BB30, size: 0x8, addend: 0x0, symName: __ZNSt3__110unique_ptrIA_PNS_16__hash_node_baseIPNS_11__hash_nodeINS_12basic_stringIcNS_11char_traitsIcEENS_9allocatorIcEEEEPvEEEENS_25__bucket_list_deallocatorINS6_ISD_EEEEE5resetB7v160006EDn, symObjAddr: 0xBB2C, symBinAddr: 0x10000FBBC, symSize: 0x6C }
  - { offsetInCU: 0x1BB71, offset: 0x1BB71, size: 0x8, addend: 0x0, symName: __ZNSt3__117__compressed_pairIPPNS_16__hash_node_baseIPNS_11__hash_nodeINS_12basic_stringIcNS_11char_traitsIcEENS_9allocatorIcEEEEPvEEEENS_25__bucket_list_deallocatorINS6_ISD_EEEEE5firstB7v160006Ev, symObjAddr: 0xBB98, symBinAddr: 0x10000FC28, symSize: 0x24 }
  - { offsetInCU: 0x1BB97, offset: 0x1BB97, size: 0x8, addend: 0x0, symName: __ZNSt3__117__compressed_pairIPPNS_16__hash_node_baseIPNS_11__hash_nodeINS_12basic_stringIcNS_11char_traitsIcEENS_9allocatorIcEEEEPvEEEENS_25__bucket_list_deallocatorINS6_ISD_EEEEE6secondB7v160006Ev, symObjAddr: 0xBBBC, symBinAddr: 0x10000FC4C, symSize: 0x28 }
  - { offsetInCU: 0x1BBBD, offset: 0x1BBBD, size: 0x8, addend: 0x0, symName: __ZNSt3__125__bucket_list_deallocatorINS_9allocatorIPNS_16__hash_node_baseIPNS_11__hash_nodeINS_12basic_stringIcNS_11char_traitsIcEENS1_IcEEEEPvEEEEEEEclB7v160006EPSD_, symObjAddr: 0xBBE4, symBinAddr: 0x10000FC74, symSize: 0x58 }
  - { offsetInCU: 0x1BBF2, offset: 0x1BBF2, size: 0x8, addend: 0x0, symName: __ZNSt3__122__compressed_pair_elemIPPNS_16__hash_node_baseIPNS_11__hash_nodeINS_12basic_stringIcNS_11char_traitsIcEENS_9allocatorIcEEEEPvEEEELi0ELb0EE5__getB7v160006Ev, symObjAddr: 0xBC3C, symBinAddr: 0x10000FCCC, symSize: 0x14 }
  - { offsetInCU: 0x1BC18, offset: 0x1BC18, size: 0x8, addend: 0x0, symName: __ZNSt3__122__compressed_pair_elemINS_25__bucket_list_deallocatorINS_9allocatorIPNS_16__hash_node_baseIPNS_11__hash_nodeINS_12basic_stringIcNS_11char_traitsIcEENS2_IcEEEEPvEEEEEEEELi1ELb0EE5__getB7v160006Ev, symObjAddr: 0xBC50, symBinAddr: 0x10000FCE0, symSize: 0x14 }
  - { offsetInCU: 0x1BC3E, offset: 0x1BC3E, size: 0x8, addend: 0x0, symName: __ZNSt3__116allocator_traitsINS_9allocatorIPNS_16__hash_node_baseIPNS_11__hash_nodeINS_12basic_stringIcNS_11char_traitsIcEENS1_IcEEEEPvEEEEEEE10deallocateB7v160006ERSE_PSD_m, symObjAddr: 0xBC64, symBinAddr: 0x10000FCF4, symSize: 0x34 }
  - { offsetInCU: 0x1BC80, offset: 0x1BC80, size: 0x8, addend: 0x0, symName: __ZNSt3__125__bucket_list_deallocatorINS_9allocatorIPNS_16__hash_node_baseIPNS_11__hash_nodeINS_12basic_stringIcNS_11char_traitsIcEENS1_IcEEEEPvEEEEEEE7__allocB7v160006Ev, symObjAddr: 0xBC98, symBinAddr: 0x10000FD28, symSize: 0x24 }
  - { offsetInCU: 0x1BCA6, offset: 0x1BCA6, size: 0x8, addend: 0x0, symName: __ZNSt3__125__bucket_list_deallocatorINS_9allocatorIPNS_16__hash_node_baseIPNS_11__hash_nodeINS_12basic_stringIcNS_11char_traitsIcEENS1_IcEEEEPvEEEEEEE4sizeB7v160006Ev, symObjAddr: 0xBCBC, symBinAddr: 0x10000FD4C, symSize: 0x24 }
  - { offsetInCU: 0x1BCCC, offset: 0x1BCCC, size: 0x8, addend: 0x0, symName: __ZNSt3__19allocatorIPNS_16__hash_node_baseIPNS_11__hash_nodeINS_12basic_stringIcNS_11char_traitsIcEENS0_IcEEEEPvEEEEE10deallocateB7v160006EPSC_m, symObjAddr: 0xBCE0, symBinAddr: 0x10000FD70, symSize: 0x70 }
  - { offsetInCU: 0x1BD0E, offset: 0x1BD0E, size: 0x8, addend: 0x0, symName: __ZNSt3__117__compressed_pairImNS_9allocatorIPNS_16__hash_node_baseIPNS_11__hash_nodeINS_12basic_stringIcNS_11char_traitsIcEENS1_IcEEEEPvEEEEEEE6secondB7v160006Ev, symObjAddr: 0xBD50, symBinAddr: 0x10000FDE0, symSize: 0x24 }
  - { offsetInCU: 0x1BD34, offset: 0x1BD34, size: 0x8, addend: 0x0, symName: __ZNSt3__122__compressed_pair_elemINS_9allocatorIPNS_16__hash_node_baseIPNS_11__hash_nodeINS_12basic_stringIcNS_11char_traitsIcEENS1_IcEEEEPvEEEEEELi1ELb1EE5__getB7v160006Ev, symObjAddr: 0xBD74, symBinAddr: 0x10000FE04, symSize: 0x14 }
  - { offsetInCU: 0x1BD5A, offset: 0x1BD5A, size: 0x8, addend: 0x0, symName: __ZNSt3__117__compressed_pairImNS_9allocatorIPNS_16__hash_node_baseIPNS_11__hash_nodeINS_12basic_stringIcNS_11char_traitsIcEENS1_IcEEEEPvEEEEEEE5firstB7v160006Ev, symObjAddr: 0xBD88, symBinAddr: 0x10000FE18, symSize: 0x24 }
  - { offsetInCU: 0x1BD80, offset: 0x1BD80, size: 0x8, addend: 0x0, symName: __ZNSt3__112__hash_tableINS_12basic_stringIcNS_11char_traitsIcEENS_9allocatorIcEEEENS_4hashIS6_EENS_8equal_toIS6_EENS4_IS6_EEED2Ev, symObjAddr: 0xBDAC, symBinAddr: 0x10000FE3C, symSize: 0x80 }
  - { offsetInCU: 0x1BDAC, offset: 0x1BDAC, size: 0x8, addend: 0x0, symName: __ZNSt3__112__hash_tableINS_12basic_stringIcNS_11char_traitsIcEENS_9allocatorIcEEEENS_4hashIS6_EENS_8equal_toIS6_EENS4_IS6_EEE17__deallocate_nodeEPNS_16__hash_node_baseIPNS_11__hash_nodeIS6_PvEEEE, symObjAddr: 0xBE2C, symBinAddr: 0x10000FEBC, symSize: 0xBC }
  - { offsetInCU: 0x1BE15, offset: 0x1BE15, size: 0x8, addend: 0x0, symName: __ZNSt3__117__compressed_pairINS_16__hash_node_baseIPNS_11__hash_nodeINS_12basic_stringIcNS_11char_traitsIcEENS_9allocatorIcEEEEPvEEEENS6_ISA_EEE5firstB7v160006Ev, symObjAddr: 0xBEE8, symBinAddr: 0x10000FF78, symSize: 0x24 }
  - { offsetInCU: 0x1BE3B, offset: 0x1BE3B, size: 0x8, addend: 0x0, symName: __ZNSt3__112__hash_tableINS_12basic_stringIcNS_11char_traitsIcEENS_9allocatorIcEEEENS_4hashIS6_EENS_8equal_toIS6_EENS4_IS6_EEE12__node_allocB7v160006Ev, symObjAddr: 0xBF1C, symBinAddr: 0x10000FFAC, symSize: 0x28 }
  - { offsetInCU: 0x1BE61, offset: 0x1BE61, size: 0x8, addend: 0x0, symName: __ZNSt3__116__hash_node_baseIPNS_11__hash_nodeINS_12basic_stringIcNS_11char_traitsIcEENS_9allocatorIcEEEEPvEEE8__upcastB7v160006Ev, symObjAddr: 0xBF44, symBinAddr: 0x10000FFD4, symSize: 0x24 }
  - { offsetInCU: 0x1BE87, offset: 0x1BE87, size: 0x8, addend: 0x0, symName: __ZNSt3__116allocator_traitsINS_9allocatorINS_11__hash_nodeINS_12basic_stringIcNS_11char_traitsIcEENS1_IcEEEEPvEEEEE7destroyB7v160006IS7_vvEEvRSA_PT_, symObjAddr: 0xBF68, symBinAddr: 0x10000FFF8, symSize: 0x28 }
  - { offsetInCU: 0x1BEC2, offset: 0x1BEC2, size: 0x8, addend: 0x0, symName: __ZNSt3__122__hash_key_value_typesINS_12basic_stringIcNS_11char_traitsIcEENS_9allocatorIcEEEEE9__get_ptrB7v160006ERS6_, symObjAddr: 0xBF90, symBinAddr: 0x100010020, symSize: 0x14 }
  - { offsetInCU: 0x1BEE5, offset: 0x1BEE5, size: 0x8, addend: 0x0, symName: __ZNSt3__116allocator_traitsINS_9allocatorINS_11__hash_nodeINS_12basic_stringIcNS_11char_traitsIcEENS1_IcEEEEPvEEEEE10deallocateB7v160006ERSA_PS9_m, symObjAddr: 0xBFA4, symBinAddr: 0x100010034, symSize: 0x34 }
  - { offsetInCU: 0x1BF27, offset: 0x1BF27, size: 0x8, addend: 0x0, symName: __ZNSt3__117__compressed_pairINS_16__hash_node_baseIPNS_11__hash_nodeINS_12basic_stringIcNS_11char_traitsIcEENS_9allocatorIcEEEEPvEEEENS6_ISA_EEE6secondB7v160006Ev, symObjAddr: 0xBFD8, symBinAddr: 0x100010068, symSize: 0x24 }
  - { offsetInCU: 0x1BF4D, offset: 0x1BF4D, size: 0x8, addend: 0x0, symName: __ZNSt3__122__compressed_pair_elemINS_9allocatorINS_11__hash_nodeINS_12basic_stringIcNS_11char_traitsIcEENS1_IcEEEEPvEEEELi1ELb1EE5__getB7v160006Ev, symObjAddr: 0xBFFC, symBinAddr: 0x10001008C, symSize: 0x14 }
  - { offsetInCU: 0x1BF73, offset: 0x1BF73, size: 0x8, addend: 0x0, symName: __ZNSt3__114pointer_traitsIPNS_16__hash_node_baseIPNS_11__hash_nodeINS_12basic_stringIcNS_11char_traitsIcEENS_9allocatorIcEEEEPvEEEEE10pointer_toB7v160006ERSC_, symObjAddr: 0xC010, symBinAddr: 0x1000100A0, symSize: 0x14 }
  - { offsetInCU: 0x1BF96, offset: 0x1BF96, size: 0x8, addend: 0x0, symName: __ZNSt3__19allocatorINS_11__hash_nodeINS_12basic_stringIcNS_11char_traitsIcEENS0_IcEEEEPvEEE10deallocateB7v160006EPS8_m, symObjAddr: 0xC024, symBinAddr: 0x1000100B4, symSize: 0x74 }
  - { offsetInCU: 0x1BFD8, offset: 0x1BFD8, size: 0x8, addend: 0x0, symName: __ZNSt3__122__compressed_pair_elemINS_16__hash_node_baseIPNS_11__hash_nodeINS_12basic_stringIcNS_11char_traitsIcEENS_9allocatorIcEEEEPvEEEELi0ELb0EE5__getB7v160006Ev, symObjAddr: 0xC098, symBinAddr: 0x100010128, symSize: 0x14 }
  - { offsetInCU: 0x1BFFE, offset: 0x1BFFE, size: 0x8, addend: 0x0, symName: __ZNSt3__113unordered_setINS_12basic_stringIcNS_11char_traitsIcEENS_9allocatorIcEEEENS_4hashIS6_EENS_8equal_toIS6_EENS4_IS6_EEED2B7v160006Ev, symObjAddr: 0xC0AC, symBinAddr: 0x10001013C, symSize: 0x2C }
  - { offsetInCU: 0x1C028, offset: 0x1C028, size: 0x8, addend: 0x0, symName: __ZNSt3__111char_traitsIcE4findEPKcmRS2_, symObjAddr: 0xC310, symBinAddr: 0x1000103A0, symSize: 0x84 }
  - { offsetInCU: 0x1C067, offset: 0x1C067, size: 0x8, addend: 0x0, symName: __ZNSt3__19allocatorIcEC1B7v160006Ev, symObjAddr: 0xC3C8, symBinAddr: 0x100010458, symSize: 0x2C }
  - { offsetInCU: 0x1C091, offset: 0x1C091, size: 0x8, addend: 0x0, symName: __ZNSt3__112__hash_tableINS_12basic_stringIcNS_11char_traitsIcEENS_9allocatorIcEEEENS_4hashIS6_EENS_8equal_toIS6_EENS4_IS6_EEE4findIS6_EENS_15__hash_iteratorIPNS_11__hash_nodeIS6_PvEEEERKT_, symObjAddr: 0xC3F4, symBinAddr: 0x100010484, symSize: 0x1B4 }
  - { offsetInCU: 0x1C11B, offset: 0x1C11B, size: 0x8, addend: 0x0, symName: __ZNSt3__121__hash_const_iteratorIPNS_11__hash_nodeINS_12basic_stringIcNS_11char_traitsIcEENS_9allocatorIcEEEEPvEEEC1B7v160006ERKNS_15__hash_iteratorISA_EE, symObjAddr: 0xC5A8, symBinAddr: 0x100010638, symSize: 0x34 }
  - { offsetInCU: 0x1C154, offset: 0x1C154, size: 0x8, addend: 0x0, symName: __ZNSt3__112__hash_tableINS_12basic_stringIcNS_11char_traitsIcEENS_9allocatorIcEEEENS_4hashIS6_EENS_8equal_toIS6_EENS4_IS6_EEE13hash_functionB7v160006Ev, symObjAddr: 0xC5DC, symBinAddr: 0x10001066C, symSize: 0x28 }
  - { offsetInCU: 0x1C17A, offset: 0x1C17A, size: 0x8, addend: 0x0, symName: __ZNKSt3__113__string_hashIcNS_9allocatorIcEEEclERKNS_12basic_stringIcNS_11char_traitsIcEES2_EE, symObjAddr: 0xC604, symBinAddr: 0x100010694, symSize: 0x78 }
  - { offsetInCU: 0x1C1AF, offset: 0x1C1AF, size: 0x8, addend: 0x0, symName: __ZNKSt3__112__hash_tableINS_12basic_stringIcNS_11char_traitsIcEENS_9allocatorIcEEEENS_4hashIS6_EENS_8equal_toIS6_EENS4_IS6_EEE12bucket_countB7v160006Ev, symObjAddr: 0xC67C, symBinAddr: 0x10001070C, symSize: 0x28 }
  - { offsetInCU: 0x1C1D5, offset: 0x1C1D5, size: 0x8, addend: 0x0, symName: __ZNKSt3__110unique_ptrIA_PNS_16__hash_node_baseIPNS_11__hash_nodeINS_12basic_stringIcNS_11char_traitsIcEENS_9allocatorIcEEEEPvEEEENS_25__bucket_list_deallocatorINS6_ISD_EEEEEixB7v160006Em, symObjAddr: 0xC6A4, symBinAddr: 0x100010734, symSize: 0x34 }
  - { offsetInCU: 0x1C20A, offset: 0x1C20A, size: 0x8, addend: 0x0, symName: __ZNKSt3__116__hash_node_baseIPNS_11__hash_nodeINS_12basic_stringIcNS_11char_traitsIcEENS_9allocatorIcEEEEPvEEE6__hashB7v160006Ev, symObjAddr: 0xC6D8, symBinAddr: 0x100010768, symSize: 0x18 }
  - { offsetInCU: 0x1C230, offset: 0x1C230, size: 0x8, addend: 0x0, symName: __ZNSt3__112__hash_tableINS_12basic_stringIcNS_11char_traitsIcEENS_9allocatorIcEEEENS_4hashIS6_EENS_8equal_toIS6_EENS4_IS6_EEE6key_eqB7v160006Ev, symObjAddr: 0xC6F0, symBinAddr: 0x100010780, symSize: 0x28 }
  - { offsetInCU: 0x1C256, offset: 0x1C256, size: 0x8, addend: 0x0, symName: __ZNKSt3__18equal_toINS_12basic_stringIcNS_11char_traitsIcEENS_9allocatorIcEEEEEclB7v160006ERKS6_S9_, symObjAddr: 0xC718, symBinAddr: 0x1000107A8, symSize: 0x34 }
  - { offsetInCU: 0x1C29A, offset: 0x1C29A, size: 0x8, addend: 0x0, symName: __ZNSt3__115__hash_iteratorIPNS_11__hash_nodeINS_12basic_stringIcNS_11char_traitsIcEENS_9allocatorIcEEEEPvEEEC1B7v160006EPNS_16__hash_node_baseISA_EEPKv, symObjAddr: 0xC74C, symBinAddr: 0x1000107DC, symSize: 0x3C }
  - { offsetInCU: 0x1C2E2, offset: 0x1C2E2, size: 0x8, addend: 0x0, symName: __ZNSt3__112__hash_tableINS_12basic_stringIcNS_11char_traitsIcEENS_9allocatorIcEEEENS_4hashIS6_EENS_8equal_toIS6_EENS4_IS6_EEE3endEv, symObjAddr: 0xC788, symBinAddr: 0x100010818, symSize: 0x30 }
  - { offsetInCU: 0x1C309, offset: 0x1C309, size: 0x8, addend: 0x0, symName: __ZNSt3__117__compressed_pairImNS_4hashINS_12basic_stringIcNS_11char_traitsIcEENS_9allocatorIcEEEEEEE6secondB7v160006Ev, symObjAddr: 0xC7B8, symBinAddr: 0x100010848, symSize: 0x24 }
  - { offsetInCU: 0x1C32F, offset: 0x1C32F, size: 0x8, addend: 0x0, symName: __ZNSt3__122__compressed_pair_elemINS_4hashINS_12basic_stringIcNS_11char_traitsIcEENS_9allocatorIcEEEEEELi1ELb1EE5__getB7v160006Ev, symObjAddr: 0xC7DC, symBinAddr: 0x10001086C, symSize: 0x14 }
  - { offsetInCU: 0x1C355, offset: 0x1C355, size: 0x8, addend: 0x0, symName: __ZNSt3__121__murmur2_or_cityhashImLm64EEclEPKvm, symObjAddr: 0xC82C, symBinAddr: 0x1000108BC, symSize: 0x410 }
  - { offsetInCU: 0x1C3F0, offset: 0x1C3F0, size: 0x8, addend: 0x0, symName: __ZNSt3__121__murmur2_or_cityhashImLm64EE18__hash_len_0_to_16EPKcm, symObjAddr: 0xCC3C, symBinAddr: 0x100010CCC, symSize: 0x1C0 }
  - { offsetInCU: 0x1C4CC, offset: 0x1C4CC, size: 0x8, addend: 0x0, symName: __ZNSt3__121__murmur2_or_cityhashImLm64EE19__hash_len_17_to_32EPKcm, symObjAddr: 0xCDFC, symBinAddr: 0x100010E8C, symSize: 0x130 }
  - { offsetInCU: 0x1C535, offset: 0x1C535, size: 0x8, addend: 0x0, symName: __ZNSt3__121__murmur2_or_cityhashImLm64EE19__hash_len_33_to_64EPKcm, symObjAddr: 0xCF2C, symBinAddr: 0x100010FBC, symSize: 0x2B8 }
  - { offsetInCU: 0x1C5E7, offset: 0x1C5E7, size: 0x8, addend: 0x0, symName: __ZNSt3__121__murmur2_or_cityhashImLm64EE13__hash_len_16Emm, symObjAddr: 0xD204, symBinAddr: 0x100011294, symSize: 0x80 }
  - { offsetInCU: 0x1C642, offset: 0x1C642, size: 0x8, addend: 0x0, symName: __ZNSt3__121__murmur2_or_cityhashImLm64EE29__weak_hash_len_32_with_seedsEPKcmm, symObjAddr: 0xD284, symBinAddr: 0x100011314, symSize: 0x88 }
  - { offsetInCU: 0x1C681, offset: 0x1C681, size: 0x8, addend: 0x0, symName: __ZNSt3__121__murmur2_or_cityhashImLm64EE8__rotateEmi, symObjAddr: 0xD30C, symBinAddr: 0x10001139C, symSize: 0x64 }
  - { offsetInCU: 0x1C6B2, offset: 0x1C6B2, size: 0x8, addend: 0x0, symName: __ZNSt3__14pairImmEaSB7v160006ERKS1_, symObjAddr: 0xD370, symBinAddr: 0x100011400, symSize: 0x30 }
  - { offsetInCU: 0x1C6E6, offset: 0x1C6E6, size: 0x8, addend: 0x0, symName: __ZNSt3__121__murmur2_or_cityhashImLm64EE11__shift_mixEm, symObjAddr: 0xD3DC, symBinAddr: 0x10001146C, symSize: 0x1C }
  - { offsetInCU: 0x1C709, offset: 0x1C709, size: 0x8, addend: 0x0, symName: __ZNSt3__121__murmur2_or_cityhashImLm64EE22__rotate_by_at_least_1Emi, symObjAddr: 0xD3F8, symBinAddr: 0x100011488, symSize: 0x38 }
  - { offsetInCU: 0x1C73A, offset: 0x1C73A, size: 0x8, addend: 0x0, symName: __ZNSt3__121__murmur2_or_cityhashImLm64EE29__weak_hash_len_32_with_seedsEmmmmmm, symObjAddr: 0xD450, symBinAddr: 0x1000114E0, symSize: 0xD8 }
  - { offsetInCU: 0x1C7B1, offset: 0x1C7B1, size: 0x8, addend: 0x0, symName: __ZNSt3__14pairImmEC1B7v160006ERKmS3_, symObjAddr: 0xD528, symBinAddr: 0x1000115B8, symSize: 0x3C }
  - { offsetInCU: 0x1C7F7, offset: 0x1C7F7, size: 0x8, addend: 0x0, symName: __ZNSt3__14pairImmEC2B7v160006ERKmS3_, symObjAddr: 0xD564, symBinAddr: 0x1000115F4, symSize: 0x34 }
  - { offsetInCU: 0x1C83D, offset: 0x1C83D, size: 0x8, addend: 0x0, symName: __ZNKSt3__110unique_ptrIA_PNS_16__hash_node_baseIPNS_11__hash_nodeINS_12basic_stringIcNS_11char_traitsIcEENS_9allocatorIcEEEEPvEEEENS_25__bucket_list_deallocatorINS6_ISD_EEEEE11get_deleterB7v160006Ev, symObjAddr: 0xD598, symBinAddr: 0x100011628, symSize: 0x24 }
  - { offsetInCU: 0x1C863, offset: 0x1C863, size: 0x8, addend: 0x0, symName: __ZNKSt3__125__bucket_list_deallocatorINS_9allocatorIPNS_16__hash_node_baseIPNS_11__hash_nodeINS_12basic_stringIcNS_11char_traitsIcEENS1_IcEEEEPvEEEEEEE4sizeB7v160006Ev, symObjAddr: 0xD5BC, symBinAddr: 0x10001164C, symSize: 0x28 }
  - { offsetInCU: 0x1C889, offset: 0x1C889, size: 0x8, addend: 0x0, symName: __ZNKSt3__117__compressed_pairIPPNS_16__hash_node_baseIPNS_11__hash_nodeINS_12basic_stringIcNS_11char_traitsIcEENS_9allocatorIcEEEEPvEEEENS_25__bucket_list_deallocatorINS6_ISD_EEEEE6secondB7v160006Ev, symObjAddr: 0xD5E4, symBinAddr: 0x100011674, symSize: 0x28 }
  - { offsetInCU: 0x1C8AF, offset: 0x1C8AF, size: 0x8, addend: 0x0, symName: __ZNKSt3__122__compressed_pair_elemINS_25__bucket_list_deallocatorINS_9allocatorIPNS_16__hash_node_baseIPNS_11__hash_nodeINS_12basic_stringIcNS_11char_traitsIcEENS2_IcEEEEPvEEEEEEEELi1ELb0EE5__getB7v160006Ev, symObjAddr: 0xD60C, symBinAddr: 0x10001169C, symSize: 0x14 }
  - { offsetInCU: 0x1C8D5, offset: 0x1C8D5, size: 0x8, addend: 0x0, symName: __ZNKSt3__117__compressed_pairImNS_9allocatorIPNS_16__hash_node_baseIPNS_11__hash_nodeINS_12basic_stringIcNS_11char_traitsIcEENS1_IcEEEEPvEEEEEEE5firstB7v160006Ev, symObjAddr: 0xD620, symBinAddr: 0x1000116B0, symSize: 0x24 }
  - { offsetInCU: 0x1C8FB, offset: 0x1C8FB, size: 0x8, addend: 0x0, symName: __ZNKSt3__117__compressed_pairIPPNS_16__hash_node_baseIPNS_11__hash_nodeINS_12basic_stringIcNS_11char_traitsIcEENS_9allocatorIcEEEEPvEEEENS_25__bucket_list_deallocatorINS6_ISD_EEEEE5firstB7v160006Ev, symObjAddr: 0xD644, symBinAddr: 0x1000116D4, symSize: 0x24 }
  - { offsetInCU: 0x1C921, offset: 0x1C921, size: 0x8, addend: 0x0, symName: __ZNKSt3__122__compressed_pair_elemIPPNS_16__hash_node_baseIPNS_11__hash_nodeINS_12basic_stringIcNS_11char_traitsIcEENS_9allocatorIcEEEEPvEEEELi0ELb0EE5__getB7v160006Ev, symObjAddr: 0xD668, symBinAddr: 0x1000116F8, symSize: 0x14 }
  - { offsetInCU: 0x1C947, offset: 0x1C947, size: 0x8, addend: 0x0, symName: __ZNSt3__117__compressed_pairIfNS_8equal_toINS_12basic_stringIcNS_11char_traitsIcEENS_9allocatorIcEEEEEEE6secondB7v160006Ev, symObjAddr: 0xD67C, symBinAddr: 0x10001170C, symSize: 0x24 }
  - { offsetInCU: 0x1C96D, offset: 0x1C96D, size: 0x8, addend: 0x0, symName: __ZNSt3__122__compressed_pair_elemINS_8equal_toINS_12basic_stringIcNS_11char_traitsIcEENS_9allocatorIcEEEEEELi1ELb1EE5__getB7v160006Ev, symObjAddr: 0xD6A0, symBinAddr: 0x100011730, symSize: 0x14 }
  - { offsetInCU: 0x1C993, offset: 0x1C993, size: 0x8, addend: 0x0, symName: __ZNSt3__115__hash_iteratorIPNS_11__hash_nodeINS_12basic_stringIcNS_11char_traitsIcEENS_9allocatorIcEEEEPvEEEC2B7v160006EPNS_16__hash_node_baseISA_EEPKv, symObjAddr: 0xD6B4, symBinAddr: 0x100011744, symSize: 0x24 }
  - { offsetInCU: 0x1C9DB, offset: 0x1C9DB, size: 0x8, addend: 0x0, symName: __ZNSt3__121__hash_const_iteratorIPNS_11__hash_nodeINS_12basic_stringIcNS_11char_traitsIcEENS_9allocatorIcEEEEPvEEEC2B7v160006ERKNS_15__hash_iteratorISA_EE, symObjAddr: 0xD6D8, symBinAddr: 0x100011768, symSize: 0x24 }
  - { offsetInCU: 0x1CA14, offset: 0x1CA14, size: 0x8, addend: 0x0, symName: __ZNSt3__112__hash_tableINS_12basic_stringIcNS_11char_traitsIcEENS_9allocatorIcEEEENS_4hashIS6_EENS_8equal_toIS6_EENS4_IS6_EEE15__insert_uniqueB7v160006ERKS6_, symObjAddr: 0xD6FC, symBinAddr: 0x10001178C, symSize: 0x50 }
  - { offsetInCU: 0x1CA49, offset: 0x1CA49, size: 0x8, addend: 0x0, symName: __ZNSt3__14pairINS_21__hash_const_iteratorIPNS_11__hash_nodeINS_12basic_stringIcNS_11char_traitsIcEENS_9allocatorIcEEEEPvEEEEbEC1B7v160006INS_15__hash_iteratorISB_EEbEERKNS0_IT_T0_EE, symObjAddr: 0xD74C, symBinAddr: 0x1000117DC, symSize: 0x34 }
  - { offsetInCU: 0x1CA93, offset: 0x1CA93, size: 0x8, addend: 0x0, symName: __ZNSt3__112__hash_tableINS_12basic_stringIcNS_11char_traitsIcEENS_9allocatorIcEEEENS_4hashIS6_EENS_8equal_toIS6_EENS4_IS6_EEE25__emplace_unique_key_argsIS6_JRKS6_EEENS_4pairINS_15__hash_iteratorIPNS_11__hash_nodeIS6_PvEEEEbEERKT_DpOT0_, symObjAddr: 0xD780, symBinAddr: 0x100011810, symSize: 0x490 }
  - { offsetInCU: 0x1CB72, offset: 0x1CB72, size: 0x8, addend: 0x0, symName: __ZNSt3__122__hash_key_value_typesINS_12basic_stringIcNS_11char_traitsIcEENS_9allocatorIcEEEEE9__get_keyB7v160006ERKS6_, symObjAddr: 0xDC10, symBinAddr: 0x100011CA0, symSize: 0x14 }
  - { offsetInCU: 0x1CB95, offset: 0x1CB95, size: 0x8, addend: 0x0, symName: __ZNSt3__112__hash_tableINS_12basic_stringIcNS_11char_traitsIcEENS_9allocatorIcEEEENS_4hashIS6_EENS_8equal_toIS6_EENS4_IS6_EEE21__construct_node_hashIRKS6_JEEENS_10unique_ptrINS_11__hash_nodeIS6_PvEENS_22__hash_node_destructorINS4_ISJ_EEEEEEmOT_DpOT0_, symObjAddr: 0xDC24, symBinAddr: 0x100011CB4, symSize: 0x140 }
  - { offsetInCU: 0x1CC07, offset: 0x1CC07, size: 0x8, addend: 0x0, symName: __ZNSt3__112__hash_tableINS_12basic_stringIcNS_11char_traitsIcEENS_9allocatorIcEEEENS_4hashIS6_EENS_8equal_toIS6_EENS4_IS6_EEE4sizeB7v160006Ev, symObjAddr: 0xDD64, symBinAddr: 0x100011DF4, symSize: 0x28 }
  - { offsetInCU: 0x1CC2D, offset: 0x1CC2D, size: 0x8, addend: 0x0, symName: __ZNSt3__112__hash_tableINS_12basic_stringIcNS_11char_traitsIcEENS_9allocatorIcEEEENS_4hashIS6_EENS_8equal_toIS6_EENS4_IS6_EEE15max_load_factorB7v160006Ev, symObjAddr: 0xDD8C, symBinAddr: 0x100011E1C, symSize: 0x28 }
  - { offsetInCU: 0x1CC53, offset: 0x1CC53, size: 0x8, addend: 0x0, symName: __ZNSt3__112__hash_tableINS_12basic_stringIcNS_11char_traitsIcEENS_9allocatorIcEEEENS_4hashIS6_EENS_8equal_toIS6_EENS4_IS6_EEE15__rehash_uniqueB7v160006Em, symObjAddr: 0xDDB4, symBinAddr: 0x100011E44, symSize: 0x2C }
  - { offsetInCU: 0x1CC88, offset: 0x1CC88, size: 0x8, addend: 0x0, symName: __ZNSt3__116__hash_node_baseIPNS_11__hash_nodeINS_12basic_stringIcNS_11char_traitsIcEENS_9allocatorIcEEEEPvEEE5__ptrB7v160006Ev, symObjAddr: 0xDDE0, symBinAddr: 0x100011E70, symSize: 0x24 }
  - { offsetInCU: 0x1CCAE, offset: 0x1CCAE, size: 0x8, addend: 0x0, symName: __ZNKSt3__110unique_ptrINS_11__hash_nodeINS_12basic_stringIcNS_11char_traitsIcEENS_9allocatorIcEEEEPvEENS_22__hash_node_destructorINS5_IS9_EEEEEptB7v160006Ev, symObjAddr: 0xDE04, symBinAddr: 0x100011E94, symSize: 0x28 }
  - { offsetInCU: 0x1CCD4, offset: 0x1CCD4, size: 0x8, addend: 0x0, symName: __ZNKSt3__110unique_ptrINS_11__hash_nodeINS_12basic_stringIcNS_11char_traitsIcEENS_9allocatorIcEEEEPvEENS_22__hash_node_destructorINS5_IS9_EEEEE3getB7v160006Ev, symObjAddr: 0xDE2C, symBinAddr: 0x100011EBC, symSize: 0x28 }
  - { offsetInCU: 0x1CCFA, offset: 0x1CCFA, size: 0x8, addend: 0x0, symName: __ZNSt3__110unique_ptrINS_11__hash_nodeINS_12basic_stringIcNS_11char_traitsIcEENS_9allocatorIcEEEEPvEENS_22__hash_node_destructorINS5_IS9_EEEEE7releaseB7v160006Ev, symObjAddr: 0xDE54, symBinAddr: 0x100011EE4, symSize: 0x44 }
  - { offsetInCU: 0x1CD2F, offset: 0x1CD2F, size: 0x8, addend: 0x0, symName: __ZNSt3__110unique_ptrINS_11__hash_nodeINS_12basic_stringIcNS_11char_traitsIcEENS_9allocatorIcEEEEPvEENS_22__hash_node_destructorINS5_IS9_EEEEED1B7v160006Ev, symObjAddr: 0xDE98, symBinAddr: 0x100011F28, symSize: 0x2C }
  - { offsetInCU: 0x1CD59, offset: 0x1CD59, size: 0x8, addend: 0x0, symName: __ZNSt3__14pairINS_15__hash_iteratorIPNS_11__hash_nodeINS_12basic_stringIcNS_11char_traitsIcEENS_9allocatorIcEEEEPvEEEEbEC1B7v160006ERKSC_RKb, symObjAddr: 0xDEC4, symBinAddr: 0x100011F54, symSize: 0x3C }
  - { offsetInCU: 0x1CD9F, offset: 0x1CD9F, size: 0x8, addend: 0x0, symName: __ZNSt3__116allocator_traitsINS_9allocatorINS_11__hash_nodeINS_12basic_stringIcNS_11char_traitsIcEENS1_IcEEEEPvEEEEE8allocateB7v160006ERSA_m, symObjAddr: 0xDF00, symBinAddr: 0x100011F90, symSize: 0x2C }
  - { offsetInCU: 0x1CDD2, offset: 0x1CDD2, size: 0x8, addend: 0x0, symName: __ZNSt3__122__hash_node_destructorINS_9allocatorINS_11__hash_nodeINS_12basic_stringIcNS_11char_traitsIcEENS1_IcEEEEPvEEEEEC1B7v160006ERSA_b, symObjAddr: 0xDF2C, symBinAddr: 0x100011FBC, symSize: 0x48 }
  - { offsetInCU: 0x1CE1F, offset: 0x1CE1F, size: 0x8, addend: 0x0, symName: __ZNSt3__110unique_ptrINS_11__hash_nodeINS_12basic_stringIcNS_11char_traitsIcEENS_9allocatorIcEEEEPvEENS_22__hash_node_destructorINS5_IS9_EEEEEC1B7v160006ILb1EvEEPS9_NS_16__dependent_typeINS_27__unique_ptr_deleter_sfinaeISC_EEXT_EE20__good_rval_ref_typeE, symObjAddr: 0xDF74, symBinAddr: 0x100012004, symSize: 0x3C }
  - { offsetInCU: 0x1CE70, offset: 0x1CE70, size: 0x8, addend: 0x0, symName: __ZNSt3__116allocator_traitsINS_9allocatorINS_11__hash_nodeINS_12basic_stringIcNS_11char_traitsIcEENS1_IcEEEEPvEEEEE9constructB7v160006IS7_JRKS7_EvEEvRSA_PT_DpOT0_, symObjAddr: 0xDFB0, symBinAddr: 0x100012040, symSize: 0x34 }
  - { offsetInCU: 0x1CEC7, offset: 0x1CEC7, size: 0x8, addend: 0x0, symName: __ZNSt3__110unique_ptrINS_11__hash_nodeINS_12basic_stringIcNS_11char_traitsIcEENS_9allocatorIcEEEEPvEENS_22__hash_node_destructorINS5_IS9_EEEEE11get_deleterB7v160006Ev, symObjAddr: 0xDFE4, symBinAddr: 0x100012074, symSize: 0x24 }
  - { offsetInCU: 0x1CEED, offset: 0x1CEED, size: 0x8, addend: 0x0, symName: __ZNSt3__19allocatorINS_11__hash_nodeINS_12basic_stringIcNS_11char_traitsIcEENS0_IcEEEEPvEEE8allocateB7v160006Em, symObjAddr: 0xE008, symBinAddr: 0x100012098, symSize: 0x8C }
  - { offsetInCU: 0x1CF2B, offset: 0x1CF2B, size: 0x8, addend: 0x0, symName: __ZNSt3__116allocator_traitsINS_9allocatorINS_11__hash_nodeINS_12basic_stringIcNS_11char_traitsIcEENS1_IcEEEEPvEEEEE8max_sizeB7v160006ISA_vEEmRKSA_, symObjAddr: 0xE094, symBinAddr: 0x100012124, symSize: 0x24 }
  - { offsetInCU: 0x1CF59, offset: 0x1CF59, size: 0x8, addend: 0x0, symName: __ZNKSt3__19allocatorINS_11__hash_nodeINS_12basic_stringIcNS_11char_traitsIcEENS0_IcEEEEPvEEE8max_sizeB7v160006Ev, symObjAddr: 0xE0B8, symBinAddr: 0x100012148, symSize: 0x18 }
  - { offsetInCU: 0x1CF7F, offset: 0x1CF7F, size: 0x8, addend: 0x0, symName: __ZNSt3__122__hash_node_destructorINS_9allocatorINS_11__hash_nodeINS_12basic_stringIcNS_11char_traitsIcEENS1_IcEEEEPvEEEEEC2B7v160006ERSA_b, symObjAddr: 0xE0D0, symBinAddr: 0x100012160, symSize: 0x38 }
  - { offsetInCU: 0x1CFC7, offset: 0x1CFC7, size: 0x8, addend: 0x0, symName: __ZNSt3__110unique_ptrINS_11__hash_nodeINS_12basic_stringIcNS_11char_traitsIcEENS_9allocatorIcEEEEPvEENS_22__hash_node_destructorINS5_IS9_EEEEEC2B7v160006ILb1EvEEPS9_NS_16__dependent_typeINS_27__unique_ptr_deleter_sfinaeISC_EEXT_EE20__good_rval_ref_typeE, symObjAddr: 0xE108, symBinAddr: 0x100012198, symSize: 0x5C }
  - { offsetInCU: 0x1D018, offset: 0x1D018, size: 0x8, addend: 0x0, symName: __ZNSt3__117__compressed_pairIPNS_11__hash_nodeINS_12basic_stringIcNS_11char_traitsIcEENS_9allocatorIcEEEEPvEENS_22__hash_node_destructorINS5_IS9_EEEEEC1B7v160006IRSA_SD_EEOT_OT0_, symObjAddr: 0xE164, symBinAddr: 0x1000121F4, symSize: 0x3C }
  - { offsetInCU: 0x1D070, offset: 0x1D070, size: 0x8, addend: 0x0, symName: __ZNSt3__117__compressed_pairIPNS_11__hash_nodeINS_12basic_stringIcNS_11char_traitsIcEENS_9allocatorIcEEEEPvEENS_22__hash_node_destructorINS5_IS9_EEEEEC2B7v160006IRSA_SD_EEOT_OT0_, symObjAddr: 0xE1A0, symBinAddr: 0x100012230, symSize: 0x48 }
  - { offsetInCU: 0x1D0C8, offset: 0x1D0C8, size: 0x8, addend: 0x0, symName: __ZNSt3__122__compressed_pair_elemIPNS_11__hash_nodeINS_12basic_stringIcNS_11char_traitsIcEENS_9allocatorIcEEEEPvEELi0ELb0EEC2B7v160006IRSA_vEEOT_, symObjAddr: 0xE1E8, symBinAddr: 0x100012278, symSize: 0x24 }
  - { offsetInCU: 0x1D10A, offset: 0x1D10A, size: 0x8, addend: 0x0, symName: __ZNSt3__122__compressed_pair_elemINS_22__hash_node_destructorINS_9allocatorINS_11__hash_nodeINS_12basic_stringIcNS_11char_traitsIcEENS2_IcEEEEPvEEEEEELi1ELb0EEC2B7v160006ISC_vEEOT_, symObjAddr: 0xE20C, symBinAddr: 0x10001229C, symSize: 0x24 }
  - { offsetInCU: 0x1D14C, offset: 0x1D14C, size: 0x8, addend: 0x0, symName: __ZNSt3__19allocatorINS_11__hash_nodeINS_12basic_stringIcNS_11char_traitsIcEENS0_IcEEEEPvEEE9constructB7v160006IS6_JRKS6_EEEvPT_DpOT0_, symObjAddr: 0xE230, symBinAddr: 0x1000122C0, symSize: 0x30 }
  - { offsetInCU: 0x1D1A2, offset: 0x1D1A2, size: 0x8, addend: 0x0, symName: __ZNSt3__117__compressed_pairIPNS_11__hash_nodeINS_12basic_stringIcNS_11char_traitsIcEENS_9allocatorIcEEEEPvEENS_22__hash_node_destructorINS5_IS9_EEEEE6secondB7v160006Ev, symObjAddr: 0xE260, symBinAddr: 0x1000122F0, symSize: 0x28 }
  - { offsetInCU: 0x1D1C8, offset: 0x1D1C8, size: 0x8, addend: 0x0, symName: __ZNSt3__122__compressed_pair_elemINS_22__hash_node_destructorINS_9allocatorINS_11__hash_nodeINS_12basic_stringIcNS_11char_traitsIcEENS2_IcEEEEPvEEEEEELi1ELb0EE5__getB7v160006Ev, symObjAddr: 0xE288, symBinAddr: 0x100012318, symSize: 0x14 }
  - { offsetInCU: 0x1D1EE, offset: 0x1D1EE, size: 0x8, addend: 0x0, symName: __ZNSt3__117__compressed_pairImNS_4hashINS_12basic_stringIcNS_11char_traitsIcEENS_9allocatorIcEEEEEEE5firstB7v160006Ev, symObjAddr: 0xE29C, symBinAddr: 0x10001232C, symSize: 0x24 }
  - { offsetInCU: 0x1D214, offset: 0x1D214, size: 0x8, addend: 0x0, symName: __ZNSt3__117__compressed_pairIfNS_8equal_toINS_12basic_stringIcNS_11char_traitsIcEENS_9allocatorIcEEEEEEE5firstB7v160006Ev, symObjAddr: 0xE2C0, symBinAddr: 0x100012350, symSize: 0x24 }
  - { offsetInCU: 0x1D23A, offset: 0x1D23A, size: 0x8, addend: 0x0, symName: __ZNSt3__112__hash_tableINS_12basic_stringIcNS_11char_traitsIcEENS_9allocatorIcEEEENS_4hashIS6_EENS_8equal_toIS6_EENS4_IS6_EEE8__rehashILb1EEEvm, symObjAddr: 0xE2E4, symBinAddr: 0x100012374, symSize: 0x1A8 }
  - { offsetInCU: 0x1D289, offset: 0x1D289, size: 0x8, addend: 0x0, symName: __ZNSt3__112__hash_tableINS_12basic_stringIcNS_11char_traitsIcEENS_9allocatorIcEEEENS_4hashIS6_EENS_8equal_toIS6_EENS4_IS6_EEE11__do_rehashILb1EEEvm, symObjAddr: 0xE48C, symBinAddr: 0x10001251C, symSize: 0x290 }
  - { offsetInCU: 0x1D36F, offset: 0x1D36F, size: 0x8, addend: 0x0, symName: __ZNSt3__110unique_ptrIA_PNS_16__hash_node_baseIPNS_11__hash_nodeINS_12basic_stringIcNS_11char_traitsIcEENS_9allocatorIcEEEEPvEEEENS_25__bucket_list_deallocatorINS6_ISD_EEEEE11get_deleterB7v160006Ev, symObjAddr: 0xE72C, symBinAddr: 0x1000127BC, symSize: 0x24 }
  - { offsetInCU: 0x1D395, offset: 0x1D395, size: 0x8, addend: 0x0, symName: __ZNSt3__110unique_ptrIA_PNS_16__hash_node_baseIPNS_11__hash_nodeINS_12basic_stringIcNS_11char_traitsIcEENS_9allocatorIcEEEEPvEEEENS_25__bucket_list_deallocatorINS6_ISD_EEEEE5resetB7v160006IPSD_EENS_9enable_ifIXsr28_CheckArrayPointerConversionIT_EE5valueEvE4typeESM_, symObjAddr: 0xE750, symBinAddr: 0x1000127E0, symSize: 0x78 }
  - { offsetInCU: 0x1D3E2, offset: 0x1D3E2, size: 0x8, addend: 0x0, symName: __ZNSt3__116allocator_traitsINS_9allocatorIPNS_16__hash_node_baseIPNS_11__hash_nodeINS_12basic_stringIcNS_11char_traitsIcEENS1_IcEEEEPvEEEEEEE8allocateB7v160006ERSE_m, symObjAddr: 0xE7C8, symBinAddr: 0x100012858, symSize: 0x2C }
  - { offsetInCU: 0x1D415, offset: 0x1D415, size: 0x8, addend: 0x0, symName: __ZNSt3__19allocatorIPNS_16__hash_node_baseIPNS_11__hash_nodeINS_12basic_stringIcNS_11char_traitsIcEENS0_IcEEEEPvEEEEE8allocateB7v160006Em, symObjAddr: 0xE7F4, symBinAddr: 0x100012884, symSize: 0x84 }
  - { offsetInCU: 0x1D453, offset: 0x1D453, size: 0x8, addend: 0x0, symName: __ZNSt3__116allocator_traitsINS_9allocatorIPNS_16__hash_node_baseIPNS_11__hash_nodeINS_12basic_stringIcNS_11char_traitsIcEENS1_IcEEEEPvEEEEEEE8max_sizeB7v160006ISE_vEEmRKSE_, symObjAddr: 0xE878, symBinAddr: 0x100012908, symSize: 0x24 }
  - { offsetInCU: 0x1D481, offset: 0x1D481, size: 0x8, addend: 0x0, symName: __ZNKSt3__19allocatorIPNS_16__hash_node_baseIPNS_11__hash_nodeINS_12basic_stringIcNS_11char_traitsIcEENS0_IcEEEEPvEEEEE8max_sizeB7v160006Ev, symObjAddr: 0xE89C, symBinAddr: 0x10001292C, symSize: 0x14 }
  - { offsetInCU: 0x1D4A7, offset: 0x1D4A7, size: 0x8, addend: 0x0, symName: __ZNKSt3__117__compressed_pairIPNS_11__hash_nodeINS_12basic_stringIcNS_11char_traitsIcEENS_9allocatorIcEEEEPvEENS_22__hash_node_destructorINS5_IS9_EEEEE5firstB7v160006Ev, symObjAddr: 0xE8B0, symBinAddr: 0x100012940, symSize: 0x24 }
  - { offsetInCU: 0x1D4CD, offset: 0x1D4CD, size: 0x8, addend: 0x0, symName: __ZNKSt3__122__compressed_pair_elemIPNS_11__hash_nodeINS_12basic_stringIcNS_11char_traitsIcEENS_9allocatorIcEEEEPvEELi0ELb0EE5__getB7v160006Ev, symObjAddr: 0xE8D4, symBinAddr: 0x100012964, symSize: 0x14 }
  - { offsetInCU: 0x1D4F3, offset: 0x1D4F3, size: 0x8, addend: 0x0, symName: __ZNSt3__117__compressed_pairIPNS_11__hash_nodeINS_12basic_stringIcNS_11char_traitsIcEENS_9allocatorIcEEEEPvEENS_22__hash_node_destructorINS5_IS9_EEEEE5firstB7v160006Ev, symObjAddr: 0xE8E8, symBinAddr: 0x100012978, symSize: 0x24 }
  - { offsetInCU: 0x1D519, offset: 0x1D519, size: 0x8, addend: 0x0, symName: __ZNSt3__122__compressed_pair_elemIPNS_11__hash_nodeINS_12basic_stringIcNS_11char_traitsIcEENS_9allocatorIcEEEEPvEELi0ELb0EE5__getB7v160006Ev, symObjAddr: 0xE90C, symBinAddr: 0x10001299C, symSize: 0x14 }
  - { offsetInCU: 0x1D53F, offset: 0x1D53F, size: 0x8, addend: 0x0, symName: __ZNSt3__110unique_ptrINS_11__hash_nodeINS_12basic_stringIcNS_11char_traitsIcEENS_9allocatorIcEEEEPvEENS_22__hash_node_destructorINS5_IS9_EEEEED2B7v160006Ev, symObjAddr: 0xE920, symBinAddr: 0x1000129B0, symSize: 0x30 }
  - { offsetInCU: 0x1D569, offset: 0x1D569, size: 0x8, addend: 0x0, symName: __ZNSt3__110unique_ptrINS_11__hash_nodeINS_12basic_stringIcNS_11char_traitsIcEENS_9allocatorIcEEEEPvEENS_22__hash_node_destructorINS5_IS9_EEEEE5resetB7v160006EPS9_, symObjAddr: 0xE950, symBinAddr: 0x1000129E0, symSize: 0x78 }
  - { offsetInCU: 0x1D5AD, offset: 0x1D5AD, size: 0x8, addend: 0x0, symName: __ZNSt3__122__hash_node_destructorINS_9allocatorINS_11__hash_nodeINS_12basic_stringIcNS_11char_traitsIcEENS1_IcEEEEPvEEEEEclB7v160006EPS9_, symObjAddr: 0xE9C8, symBinAddr: 0x100012A58, symSize: 0xA4 }
  - { offsetInCU: 0x1D5E2, offset: 0x1D5E2, size: 0x8, addend: 0x0, symName: __ZNSt3__14pairINS_15__hash_iteratorIPNS_11__hash_nodeINS_12basic_stringIcNS_11char_traitsIcEENS_9allocatorIcEEEEPvEEEEbEC2B7v160006ERKSC_RKb, symObjAddr: 0xEA6C, symBinAddr: 0x100012AFC, symSize: 0x38 }
  - { offsetInCU: 0x1D628, offset: 0x1D628, size: 0x8, addend: 0x0, symName: __ZNSt3__14pairINS_21__hash_const_iteratorIPNS_11__hash_nodeINS_12basic_stringIcNS_11char_traitsIcEENS_9allocatorIcEEEEPvEEEEbEC2B7v160006INS_15__hash_iteratorISB_EEbEERKNS0_IT_T0_EE, symObjAddr: 0xEAA4, symBinAddr: 0x100012B34, symSize: 0x44 }
  - { offsetInCU: 0x1D672, offset: 0x1D672, size: 0x8, addend: 0x0, symName: __ZNSt3__112__hash_tableINS_12basic_stringIcNS_11char_traitsIcEENS_9allocatorIcEEEENS_4hashIS6_EENS_8equal_toIS6_EENS4_IS6_EEE5beginEv, symObjAddr: 0xEAE8, symBinAddr: 0x100012B78, symSize: 0x40 }
  - { offsetInCU: 0x49A2, offset: 0x222F6, size: 0x8, addend: 0x0, symName: __ZN13BitacoraLineaC2ENSt3__112basic_stringIcNS0_11char_traitsIcEENS0_9allocatorIcEEEES6_S6_S6_S6_S6_S6_S6_, symObjAddr: 0x0, symBinAddr: 0x100012C0C, symSize: 0x200 }
  - { offsetInCU: 0x4A47, offset: 0x2239B, size: 0x8, addend: 0x0, symName: __ZN13BitacoraLineaC1ENSt3__112basic_stringIcNS0_11char_traitsIcEENS0_9allocatorIcEEEES6_S6_S6_S6_S6_S6_S6_, symObjAddr: 0x20C, symBinAddr: 0x100012E0C, symSize: 0x74 }
  - { offsetInCU: 0x4AEB, offset: 0x2243F, size: 0x8, addend: 0x0, symName: __ZNK13BitacoraLinea8getFechaEv, symObjAddr: 0x280, symBinAddr: 0x100012E80, symSize: 0x38 }
  - { offsetInCU: 0x4B13, offset: 0x22467, size: 0x8, addend: 0x0, symName: __ZNK13BitacoraLinea7getHoraEv, symObjAddr: 0x2B8, symBinAddr: 0x100012EB8, symSize: 0x3C }
  - { offsetInCU: 0x4B3B, offset: 0x2248F, size: 0x8, addend: 0x0, symName: __ZNK13BitacoraLinea11getIPOrigenEv, symObjAddr: 0x2F4, symBinAddr: 0x100012EF4, symSize: 0x3C }
  - { offsetInCU: 0x4B63, offset: 0x224B7, size: 0x8, addend: 0x0, symName: __ZNK13BitacoraLinea15getPuertoOrigenEv, symObjAddr: 0x330, symBinAddr: 0x100012F30, symSize: 0x3C }
  - { offsetInCU: 0x4B8A, offset: 0x224DE, size: 0x8, addend: 0x0, symName: __ZNK13BitacoraLinea15getNombreOrigenEv, symObjAddr: 0x36C, symBinAddr: 0x100012F6C, symSize: 0x3C }
  - { offsetInCU: 0x4BB2, offset: 0x22506, size: 0x8, addend: 0x0, symName: __ZNK13BitacoraLinea12getIPDestinoEv, symObjAddr: 0x3A8, symBinAddr: 0x100012FA8, symSize: 0x3C }
  - { offsetInCU: 0x4BDA, offset: 0x2252E, size: 0x8, addend: 0x0, symName: __ZNK13BitacoraLinea16getPuertoDestinoEv, symObjAddr: 0x3E4, symBinAddr: 0x100012FE4, symSize: 0x3C }
  - { offsetInCU: 0x4C02, offset: 0x22556, size: 0x8, addend: 0x0, symName: __ZNK13BitacoraLinea16getNombreDestinoEv, symObjAddr: 0x420, symBinAddr: 0x100013020, symSize: 0x3C }
  - { offsetInCU: 0x6DFE, offset: 0x29386, size: 0x8, addend: 0x0, symName: __ZNSt3__16copy_nB7v160006IPKcmPcEENS_9enable_ifIXsr33__is_cpp17_random_access_iteratorIT_EE5valueET1_E4typeES5_T0_S6_, symObjAddr: 0xB17C, symBinAddr: 0x10001BAE8, symSize: 0x44 }
  - { offsetInCU: 0x13229, offset: 0x357B1, size: 0x8, addend: 0x0, symName: __ZNSt3__1rsB7v160006IcNS_11char_traitsIcEENS_9allocatorIcEEEERNS_13basic_istreamIT_T0_EES9_RNS_12basic_stringIS6_S7_T1_EE, symObjAddr: 0x1BCC, symBinAddr: 0x100014A98, symSize: 0x314 }
  - { offsetInCU: 0x132F6, offset: 0x3587E, size: 0x8, addend: 0x0, symName: __ZNSt3__1plB7v160006IcNS_11char_traitsIcEENS_9allocatorIcEEEENS_12basic_stringIT_T0_T1_EERKS9_SB_, symObjAddr: 0x1EE0, symBinAddr: 0x100014DAC, symSize: 0x134 }
  - { offsetInCU: 0x13397, offset: 0x3591F, size: 0x8, addend: 0x0, symName: __ZNSt3__1plB7v160006IcNS_11char_traitsIcEENS_9allocatorIcEEEENS_12basic_stringIT_T0_T1_EERKS9_S6_, symObjAddr: 0x2014, symBinAddr: 0x100014EE0, symSize: 0x110 }
  - { offsetInCU: 0x13429, offset: 0x359B1, size: 0x8, addend: 0x0, symName: __ZNSt3__1neB7v160006ERKNS_14__map_iteratorINS_15__tree_iteratorINS_12__value_typeINS_12basic_stringIcNS_11char_traitsIcEENS_9allocatorIcEEEEiEEPNS_11__tree_nodeIS9_PvEElEEEESH_, symObjAddr: 0x4474, symBinAddr: 0x100017340, symSize: 0x30 }
  - { offsetInCU: 0x13466, offset: 0x359EE, size: 0x8, addend: 0x0, symName: __ZNSt3__1neB7v160006IPNS_12basic_stringIcNS_11char_traitsIcEENS_9allocatorIcEEEEEEbRKNS_11__wrap_iterIT_EESC_, symObjAddr: 0x5CA4, symBinAddr: 0x100018AC8, symSize: 0x34 }
  - { offsetInCU: 0x134A9, offset: 0x35A31, size: 0x8, addend: 0x0, symName: __ZNSt3__119__debug_db_insert_cB7v160006INS_6vectorIP6VertexINS_12basic_stringIcNS_11char_traitsIcEENS_9allocatorIcEEEE13BitacoraLineaENS6_ISB_EEEEEEvPT_, symObjAddr: 0x6F7C, symBinAddr: 0x1000196E0, symSize: 0x10 }
  - { offsetInCU: 0x134DA, offset: 0x35A62, size: 0x8, addend: 0x0, symName: __ZNSt3__115__debug_db_swapB7v160006INS_6vectorI13BitacoraLineaNS_9allocatorIS2_EEEEEEvPT_S7_, symObjAddr: 0x8144, symBinAddr: 0x100019940, symSize: 0x14 }
  - { offsetInCU: 0x13519, offset: 0x35AA1, size: 0x8, addend: 0x0, symName: __ZNSt3__1neB7v160006IPP6VertexINS_12basic_stringIcNS_11char_traitsIcEENS_9allocatorIcEEEE13BitacoraLineaEEEbRKNS_11__wrap_iterIT_EESG_, symObjAddr: 0x8F4C, symBinAddr: 0x100019EA0, symSize: 0x34 }
  - { offsetInCU: 0x1355C, offset: 0x35AE4, size: 0x8, addend: 0x0, symName: __ZNSt3__1eqB7v160006IPP6VertexINS_12basic_stringIcNS_11char_traitsIcEENS_9allocatorIcEEEE13BitacoraLineaEEEbRKNS_11__wrap_iterIT_EESG_, symObjAddr: 0x910C, symBinAddr: 0x10001A060, symSize: 0x48 }
  - { offsetInCU: 0x1359F, offset: 0x35B27, size: 0x8, addend: 0x0, symName: __ZNSt3__1neB7v160006IPP4EdgeINS_12basic_stringIcNS_11char_traitsIcEENS_9allocatorIcEEEE13BitacoraLineaEEEbRKNS_11__wrap_iterIT_EESG_, symObjAddr: 0x92FC, symBinAddr: 0x10001A250, symSize: 0x34 }
  - { offsetInCU: 0x135E2, offset: 0x35B6A, size: 0x8, addend: 0x0, symName: __ZNSt3__1eqB7v160006IPP4EdgeINS_12basic_stringIcNS_11char_traitsIcEENS_9allocatorIcEEEE13BitacoraLineaEEEbRKNS_11__wrap_iterIT_EESG_, symObjAddr: 0x94BC, symBinAddr: 0x10001A410, symSize: 0x48 }
  - { offsetInCU: 0x13625, offset: 0x35BAD, size: 0x8, addend: 0x0, symName: __ZNSt3__125__debug_db_invalidate_allB7v160006INS_6vectorIP4EdgeINS_12basic_stringIcNS_11char_traitsIcEENS_9allocatorIcEEEE13BitacoraLineaENS6_ISB_EEEEEEvPT_, symObjAddr: 0x968C, symBinAddr: 0x10001A5E0, symSize: 0x10 }
  - { offsetInCU: 0x13656, offset: 0x35BDE, size: 0x8, addend: 0x0, symName: __ZNSt3__112__to_addressB7v160006IP4EdgeINS_12basic_stringIcNS_11char_traitsIcEENS_9allocatorIcEEEE13BitacoraLineaEEEPT_SC_, symObjAddr: 0x9790, symBinAddr: 0x10001A6E4, symSize: 0x14 }
  - { offsetInCU: 0x1368B, offset: 0x35C13, size: 0x8, addend: 0x0, symName: __ZNSt3__118__debug_db_erase_cB7v160006INS_6vectorIP4EdgeINS_12basic_stringIcNS_11char_traitsIcEENS_9allocatorIcEEEE13BitacoraLineaENS6_ISB_EEEEEEvPT_, symObjAddr: 0x9ABC, symBinAddr: 0x10001AA10, symSize: 0x10 }
  - { offsetInCU: 0x136BC, offset: 0x35C44, size: 0x8, addend: 0x0, symName: __ZNSt3__125__debug_db_invalidate_allB7v160006INS_6vectorIP6VertexINS_12basic_stringIcNS_11char_traitsIcEENS_9allocatorIcEEEE13BitacoraLineaENS6_ISB_EEEEEEvPT_, symObjAddr: 0x9C74, symBinAddr: 0x10001ABC8, symSize: 0x10 }
  - { offsetInCU: 0x136ED, offset: 0x35C75, size: 0x8, addend: 0x0, symName: __ZNSt3__112__to_addressB7v160006IP6VertexINS_12basic_stringIcNS_11char_traitsIcEENS_9allocatorIcEEEE13BitacoraLineaEEEPT_SC_, symObjAddr: 0x9D78, symBinAddr: 0x10001ACCC, symSize: 0x14 }
  - { offsetInCU: 0x13722, offset: 0x35CAA, size: 0x8, addend: 0x0, symName: __ZNSt3__118__debug_db_erase_cB7v160006INS_6vectorIP6VertexINS_12basic_stringIcNS_11char_traitsIcEENS_9allocatorIcEEEE13BitacoraLineaENS6_ISB_EEEEEEvPT_, symObjAddr: 0xA0A4, symBinAddr: 0x10001AFF8, symSize: 0x10 }
  - { offsetInCU: 0x13753, offset: 0x35CDB, size: 0x8, addend: 0x0, symName: __ZNSt3__1neB7v160006IP13BitacoraLineaEEbRKNS_11__wrap_iterIT_EES7_, symObjAddr: 0xA1B8, symBinAddr: 0x10001B10C, symSize: 0x34 }
  - { offsetInCU: 0x13796, offset: 0x35D1E, size: 0x8, addend: 0x0, symName: __ZNSt3__1eqB7v160006IP13BitacoraLineaEEbRKNS_11__wrap_iterIT_EES7_, symObjAddr: 0xA314, symBinAddr: 0x10001B268, symSize: 0x48 }
  - { offsetInCU: 0x13D63, offset: 0x362EB, size: 0x8, addend: 0x0, symName: __ZNSt3__112__to_addressB7v160006IcEEPT_S2_, symObjAddr: 0xAD44, symBinAddr: 0x10001B828, symSize: 0x14 }
  - { offsetInCU: 0x13D98, offset: 0x36320, size: 0x8, addend: 0x0, symName: __ZNSt3__14copyB7v160006IPKcPcEET0_T_S5_S4_, symObjAddr: 0xB1C0, symBinAddr: 0x10001BB2C, symSize: 0x40 }
  - { offsetInCU: 0x13DF2, offset: 0x3637A, size: 0x8, addend: 0x0, symName: __ZNSt3__16__copyB7v160006INS_17_ClassicAlgPolicyEPKcS3_PcEENS_4pairIT0_T2_EES6_T1_S7_, symObjAddr: 0xB200, symBinAddr: 0x10001BB6C, symSize: 0x44 }
  - { offsetInCU: 0x13E5E, offset: 0x363E6, size: 0x8, addend: 0x0, symName: __ZNSt3__123__dispatch_copy_or_moveB7v160006INS_17_ClassicAlgPolicyENS_11__copy_loopIS1_EENS_14__copy_trivialEPKcS6_PcEENS_4pairIT2_T4_EES9_T3_SA_, symObjAddr: 0xB244, symBinAddr: 0x10001BBB0, symSize: 0x54 }
  - { offsetInCU: 0x13EDC, offset: 0x36464, size: 0x8, addend: 0x0, symName: __ZNSt3__121__unwrap_and_dispatchB7v160006INS_10__overloadINS_11__copy_loopINS_17_ClassicAlgPolicyEEENS_14__copy_trivialEEEPKcS8_PcLi0EEENS_4pairIT0_T2_EESB_T1_SC_, symObjAddr: 0xB298, symBinAddr: 0x10001BC04, symSize: 0xB4 }
  - { offsetInCU: 0x13F6A, offset: 0x364F2, size: 0x8, addend: 0x0, symName: __ZNSt3__114__unwrap_rangeB7v160006IPKcS2_EENS_4pairIT0_S4_EET_S6_, symObjAddr: 0xB34C, symBinAddr: 0x10001BCB8, symSize: 0x60 }
  - { offsetInCU: 0x140A9, offset: 0x36631, size: 0x8, addend: 0x0, symName: __ZNSt3__113__unwrap_iterB7v160006IPcNS_18__unwrap_iter_implIS1_Lb1EEELi0EEEDTclsrT0_8__unwrapclsr3stdE7declvalIT_EEEES5_, symObjAddr: 0xB3F4, symBinAddr: 0x10001BD60, symSize: 0x24 }
  - { offsetInCU: 0x140ED, offset: 0x36675, size: 0x8, addend: 0x0, symName: __ZNSt3__19make_pairB7v160006IPKcPcEENS_4pairINS_18__unwrap_ref_decayIT_E4typeENS5_IT0_E4typeEEEOS6_OS9_, symObjAddr: 0xB418, symBinAddr: 0x10001BD84, symSize: 0x38 }
  - { offsetInCU: 0x1413C, offset: 0x366C4, size: 0x8, addend: 0x0, symName: __ZNSt3__114__rewrap_rangeB7v160006IPKcS2_EET_S3_T0_, symObjAddr: 0xB450, symBinAddr: 0x10001BDBC, symSize: 0x2C }
  - { offsetInCU: 0x14188, offset: 0x36710, size: 0x8, addend: 0x0, symName: __ZNSt3__113__rewrap_iterB7v160006IPcS1_NS_18__unwrap_iter_implIS1_Lb1EEEEET_S4_T0_, symObjAddr: 0xB47C, symBinAddr: 0x10001BDE8, symSize: 0x50 }
  - { offsetInCU: 0x141DD, offset: 0x36765, size: 0x8, addend: 0x0, symName: __ZNSt3__19make_pairB7v160006IPKcS2_EENS_4pairINS_18__unwrap_ref_decayIT_E4typeENS4_IT0_E4typeEEEOS5_OS8_, symObjAddr: 0xB4CC, symBinAddr: 0x10001BE38, symSize: 0x38 }
  - { offsetInCU: 0x1422C, offset: 0x367B4, size: 0x8, addend: 0x0, symName: __ZNSt3__113__unwrap_iterB7v160006IPKcNS_18__unwrap_iter_implIS2_Lb1EEELi0EEEDTclsrT0_8__unwrapclsr3stdE7declvalIT_EEEES6_, symObjAddr: 0xB504, symBinAddr: 0x10001BE70, symSize: 0x24 }
  - { offsetInCU: 0x14370, offset: 0x368F8, size: 0x8, addend: 0x0, symName: __ZNSt3__119__copy_trivial_implB7v160006IKccEENS_4pairIPT_PT0_EES4_S4_S6_, symObjAddr: 0xB5BC, symBinAddr: 0x10001BF28, symSize: 0x7C }
  - { offsetInCU: 0x143D8, offset: 0x36960, size: 0x8, addend: 0x0, symName: __ZNSt3__19make_pairB7v160006IRPKcPcEENS_4pairINS_18__unwrap_ref_decayIT_E4typeENS6_IT0_E4typeEEEOS7_OSA_, symObjAddr: 0xB638, symBinAddr: 0x10001BFA4, symSize: 0x38 }
  - { offsetInCU: 0x1447A, offset: 0x36A02, size: 0x8, addend: 0x0, symName: __ZNSt3__113__rewrap_iterB7v160006IPKcS2_NS_18__unwrap_iter_implIS2_Lb1EEEEET_S5_T0_, symObjAddr: 0xB704, symBinAddr: 0x10001C070, symSize: 0x50 }
  - { offsetInCU: 0x144CF, offset: 0x36A57, size: 0x8, addend: 0x0, symName: __ZNSt3__16fill_nB7v160006IPcmcEET_S2_T0_RKT1_, symObjAddr: 0xB7E4, symBinAddr: 0x10001C150, symSize: 0x44 }
  - { offsetInCU: 0x14532, offset: 0x36ABA, size: 0x8, addend: 0x0, symName: __ZNSt3__18__fill_nB7v160006IPcmcEET_S2_T0_RKT1_, symObjAddr: 0xB828, symBinAddr: 0x10001C194, symSize: 0x64 }
  - { offsetInCU: 0x14595, offset: 0x36B1D, size: 0x8, addend: 0x0, symName: __ZNSt3__121__convert_to_integralB7v160006Em, symObjAddr: 0xB88C, symBinAddr: 0x10001C1F8, symSize: 0x14 }
  - { offsetInCU: 0x14612, offset: 0x36B9A, size: 0x8, addend: 0x0, symName: __ZNSt3__127__tree_balance_after_insertB7v160006IPNS_16__tree_node_baseIPvEEEEvT_S5_, symObjAddr: 0xCC80, symBinAddr: 0x10001D174, symSize: 0x340 }
  - { offsetInCU: 0x14687, offset: 0x36C0F, size: 0x8, addend: 0x0, symName: __ZNSt3__120__tree_is_left_childB7v160006IPNS_16__tree_node_baseIPvEEEEbT_, symObjAddr: 0xD000, symBinAddr: 0x10001D4F4, symSize: 0x2C }
  - { offsetInCU: 0x146BC, offset: 0x36C44, size: 0x8, addend: 0x0, symName: __ZNSt3__118__tree_left_rotateB7v160006IPNS_16__tree_node_baseIPvEEEEvT_, symObjAddr: 0xD02C, symBinAddr: 0x10001D520, symSize: 0xEC }
  - { offsetInCU: 0x146FE, offset: 0x36C86, size: 0x8, addend: 0x0, symName: __ZNSt3__119__tree_right_rotateB7v160006IPNS_16__tree_node_baseIPvEEEEvT_, symObjAddr: 0xD118, symBinAddr: 0x10001D60C, symSize: 0xCC }
  - { offsetInCU: 0x14740, offset: 0x36CC8, size: 0x8, addend: 0x0, symName: __ZNSt3__1neB7v160006IPN21ConexionesComputadoraI13BitacoraLineaE3SitEEEbRKNS_11__wrap_iterIT_EESA_, symObjAddr: 0xDBB4, symBinAddr: 0x10001E094, symSize: 0x34 }
  - { offsetInCU: 0x14783, offset: 0x36D0B, size: 0x8, addend: 0x0, symName: __ZNSt3__119__debug_db_insert_cB7v160006INS_6vectorIN21ConexionesComputadoraI13BitacoraLineaE3SitENS_9allocatorIS5_EEEEEEvPT_, symObjAddr: 0xE4A0, symBinAddr: 0x10001E8E8, symSize: 0x10 }
  - { offsetInCU: 0x147B4, offset: 0x36D3C, size: 0x8, addend: 0x0, symName: __ZNSt3__112__to_addressB7v160006IN21ConexionesComputadoraI13BitacoraLineaE3SitEEEPT_S6_, symObjAddr: 0xE87C, symBinAddr: 0x10001ECC4, symSize: 0x14 }
  - { offsetInCU: 0x147E9, offset: 0x36D71, size: 0x8, addend: 0x0, symName: __ZNSt3__119__allocate_at_leastB7v160006INS_9allocatorIN21ConexionesComputadoraI13BitacoraLineaE3SitEEEEENS_19__allocation_resultINS_16allocator_traitsIT_E7pointerEEERS9_m, symObjAddr: 0xEF1C, symBinAddr: 0x10001F2E4, symSize: 0x40 }
  - { offsetInCU: 0x1482C, offset: 0x36DB4, size: 0x8, addend: 0x0, symName: __ZNSt3__142__uninitialized_allocator_move_if_noexceptB7v160006INS_9allocatorIN21ConexionesComputadoraI13BitacoraLineaE3SitEEENS_16reverse_iteratorIPS5_EES9_S9_EET2_RT_T0_T1_SA_, symObjAddr: 0xF1B4, symBinAddr: 0x10001F57C, symSize: 0x134 }
  - { offsetInCU: 0x148CC, offset: 0x36E54, size: 0x8, addend: 0x0, symName: __ZNSt3__14swapB7v160006IPN21ConexionesComputadoraI13BitacoraLineaE3SitEEEvRT_S7_, symObjAddr: 0xF334, symBinAddr: 0x10001F6FC, symSize: 0x3C }
  - { offsetInCU: 0x1491D, offset: 0x36EA5, size: 0x8, addend: 0x0, symName: __ZNSt3__125__debug_db_invalidate_allB7v160006INS_6vectorIN21ConexionesComputadoraI13BitacoraLineaE3SitENS_9allocatorIS5_EEEEEEvPT_, symObjAddr: 0xF41C, symBinAddr: 0x10001F7E4, symSize: 0x10 }
  - { offsetInCU: 0x1494E, offset: 0x36ED6, size: 0x8, addend: 0x0, symName: __ZNSt3__122__make_exception_guardB7v160006INS_29_AllocatorDestroyRangeReverseINS_9allocatorIN21ConexionesComputadoraI13BitacoraLineaE3SitEEENS_16reverse_iteratorIPS6_EEEEEENS_28__exception_guard_exceptionsIT_EESD_, symObjAddr: 0xF474, symBinAddr: 0x10001F83C, symSize: 0x4C }
  - { offsetInCU: 0x14984, offset: 0x36F0C, size: 0x8, addend: 0x0, symName: __ZNSt3__1neB7v160006IPN21ConexionesComputadoraI13BitacoraLineaE3SitES5_EEbRKNS_16reverse_iteratorIT_EERKNS6_IT0_EE, symObjAddr: 0xF504, symBinAddr: 0x10001F8CC, symSize: 0x48 }
  - { offsetInCU: 0x149D0, offset: 0x36F58, size: 0x8, addend: 0x0, symName: __ZNSt3__112__to_addressB7v160006INS_16reverse_iteratorIPN21ConexionesComputadoraI13BitacoraLineaE3SitEEEvEENS_5decayIDTclsr19__to_address_helperIT_EE6__callclsr3stdE7declvalIRKS9_EEEEE4typeESB_, symObjAddr: 0xF580, symBinAddr: 0x10001F948, symSize: 0x24 }
  - { offsetInCU: 0x14A2F, offset: 0x36FB7, size: 0x8, addend: 0x0, symName: __ZNSt3__119__allocator_destroyB7v160006INS_9allocatorIN21ConexionesComputadoraI13BitacoraLineaE3SitEEENS_16reverse_iteratorINS7_IPS5_EEEESA_EEvRT_T0_T1_, symObjAddr: 0xF86C, symBinAddr: 0x10001FC34, symSize: 0x70 }
  - { offsetInCU: 0x14A94, offset: 0x3701C, size: 0x8, addend: 0x0, symName: __ZNSt3__1neB7v160006INS_16reverse_iteratorIPN21ConexionesComputadoraI13BitacoraLineaE3SitEEES7_EEbRKNS1_IT_EERKNS1_IT0_EE, symObjAddr: 0xF918, symBinAddr: 0x10001FCE0, symSize: 0x60 }
  - { offsetInCU: 0x14AE0, offset: 0x37068, size: 0x8, addend: 0x0, symName: __ZNSt3__112__to_addressB7v160006INS_16reverse_iteratorINS1_IPN21ConexionesComputadoraI13BitacoraLineaE3SitEEEEEvEENS_5decayIDTclsr19__to_address_helperIT_EE6__callclsr3stdE7declvalIRKSA_EEEEE4typeESC_, symObjAddr: 0xF9A4, symBinAddr: 0x10001FD6C, symSize: 0x24 }
  - { offsetInCU: 0x14B3F, offset: 0x370C7, size: 0x8, addend: 0x0, symName: __ZNSt3__1eqB7v160006IPN21ConexionesComputadoraI13BitacoraLineaE3SitEEEbRKNS_11__wrap_iterIT_EESA_, symObjAddr: 0xFE88, symBinAddr: 0x100020250, symSize: 0x48 }
  - { offsetInCU: 0x14B82, offset: 0x3710A, size: 0x8, addend: 0x0, symName: __ZNSt3__118__debug_db_erase_cB7v160006INS_6vectorIN21ConexionesComputadoraI13BitacoraLineaE3SitENS_9allocatorIS5_EEEEEEvPT_, symObjAddr: 0x100A8, symBinAddr: 0x100020470, symSize: 0x10 }
  - { offsetInCU: 0x14BB3, offset: 0x3713B, size: 0x8, addend: 0x0, symName: __ZNSt3__1neB7v160006ERKNS_14__map_iteratorINS_15__tree_iteratorINS_12__value_typeINS_12basic_stringIcNS_11char_traitsIcEENS_9allocatorIcEEEENS_3mapIS8_iNS_4lessIS8_EENS6_INS_4pairIKS8_iEEEEEEEEPNS_11__tree_nodeISH_PvEElEEEESP_, symObjAddr: 0x11E30, symBinAddr: 0x1000206F8, symSize: 0x30 }
  - { offsetInCU: 0x14BF0, offset: 0x37178, size: 0x8, addend: 0x0, symName: __ZNSt3__1neB7v160006ERKNS_20__map_const_iteratorINS_21__tree_const_iteratorINS_12__value_typeINS_12basic_stringIcNS_11char_traitsIcEENS_9allocatorIcEEEEiEEPNS_11__tree_nodeIS9_PvEElEEEESH_, symObjAddr: 0x11EF8, symBinAddr: 0x1000207C0, symSize: 0x30 }
  - { offsetInCU: 0x14C4B, offset: 0x371D3, size: 0x8, addend: 0x0, symName: __ZNSt3__1neB7v160006ERKNS_15__tree_iteratorINS_12__value_typeINS_12basic_stringIcNS_11char_traitsIcEENS_9allocatorIcEEEENS_3mapIS7_iNS_4lessIS7_EENS5_INS_4pairIKS7_iEEEEEEEEPNS_11__tree_nodeISG_PvEElEESN_, symObjAddr: 0x1316C, symBinAddr: 0x100021A34, symSize: 0x34 }
  - { offsetInCU: 0x14C88, offset: 0x37210, size: 0x8, addend: 0x0, symName: __ZNSt3__1eqB7v160006ERKNS_15__tree_iteratorINS_12__value_typeINS_12basic_stringIcNS_11char_traitsIcEENS_9allocatorIcEEEENS_3mapIS7_iNS_4lessIS7_EENS5_INS_4pairIKS7_iEEEEEEEEPNS_11__tree_nodeISG_PvEElEESN_, symObjAddr: 0x131A0, symBinAddr: 0x100021A68, symSize: 0x30 }
  - { offsetInCU: 0x14CF8, offset: 0x37280, size: 0x8, addend: 0x0, symName: __ZNSt3__1neB7v160006ERKNS_21__tree_const_iteratorINS_12__value_typeINS_12basic_stringIcNS_11char_traitsIcEENS_9allocatorIcEEEEiEEPNS_11__tree_nodeIS8_PvEElEESF_, symObjAddr: 0x1334C, symBinAddr: 0x100021C14, symSize: 0x34 }
  - { offsetInCU: 0x14D35, offset: 0x372BD, size: 0x8, addend: 0x0, symName: __ZNSt3__1eqB7v160006ERKNS_21__tree_const_iteratorINS_12__value_typeINS_12basic_stringIcNS_11char_traitsIcEENS_9allocatorIcEEEEiEEPNS_11__tree_nodeIS8_PvEElEESF_, symObjAddr: 0x13380, symBinAddr: 0x100021C48, symSize: 0x30 }
  - { offsetInCU: 0x14DA5, offset: 0x3732D, size: 0x8, addend: 0x0, symName: __ZNSt3__116__tree_next_iterB7v160006IPNS_15__tree_end_nodeIPNS_16__tree_node_baseIPvEEEES5_EET_T0_, symObjAddr: 0x13440, symBinAddr: 0x100021D08, symSize: 0x80 }
  - { offsetInCU: 0x14DE3, offset: 0x3736B, size: 0x8, addend: 0x0, symName: __ZNSt3__110__tree_minB7v160006IPNS_16__tree_node_baseIPvEEEET_S5_, symObjAddr: 0x134C0, symBinAddr: 0x100021D88, symSize: 0x40 }
  - { offsetInCU: 0x14E36, offset: 0x373BE, size: 0x8, addend: 0x0, symName: __ZNSt3__119__debug_db_insert_cB7v160006INS_6vectorIP4EdgeINS_12basic_stringIcNS_11char_traitsIcEENS_9allocatorIcEEEE13BitacoraLineaENS6_ISB_EEEEEEvPT_, symObjAddr: 0x14F8C, symBinAddr: 0x100023854, symSize: 0x10 }
  - { offsetInCU: 0x14E67, offset: 0x373EF, size: 0x8, addend: 0x0, symName: __ZNSt3__119__allocate_at_leastB7v160006INS_9allocatorIP6VertexINS_12basic_stringIcNS_11char_traitsIcEENS1_IcEEEE13BitacoraLineaEEEEENS_19__allocation_resultINS_16allocator_traitsIT_E7pointerEEERSE_m, symObjAddr: 0x15844, symBinAddr: 0x10002410C, symSize: 0x40 }
  - { offsetInCU: 0x14EAA, offset: 0x37432, size: 0x8, addend: 0x0, symName: __ZNSt3__142__uninitialized_allocator_move_if_noexceptB7v160006INS_9allocatorIP6VertexINS_12basic_stringIcNS_11char_traitsIcEENS1_IcEEEE13BitacoraLineaEEENS_16reverse_iteratorIPSA_EESE_SA_vEET1_RT_T0_SI_SF_, symObjAddr: 0x15A24, symBinAddr: 0x1000242EC, symSize: 0xE8 }
  - { offsetInCU: 0x14F28, offset: 0x374B0, size: 0x8, addend: 0x0, symName: __ZNSt3__14swapB7v160006IPP6VertexINS_12basic_stringIcNS_11char_traitsIcEENS_9allocatorIcEEEE13BitacoraLineaEEEvRT_SD_, symObjAddr: 0x15B58, symBinAddr: 0x100024420, symSize: 0x3C }
  - { offsetInCU: 0x14F79, offset: 0x37501, size: 0x8, addend: 0x0, symName: __ZNSt3__1neB7v160006IPP6VertexINS_12basic_stringIcNS_11char_traitsIcEENS_9allocatorIcEEEE13BitacoraLineaESB_EEbRKNS_16reverse_iteratorIT_EERKNSC_IT0_EE, symObjAddr: 0x15C40, symBinAddr: 0x100024508, symSize: 0x48 }
  - { offsetInCU: 0x14FEC, offset: 0x37574, size: 0x8, addend: 0x0, symName: __ZNSt3__114__construct_atB7v160006IP6VertexINS_12basic_stringIcNS_11char_traitsIcEENS_9allocatorIcEEEE13BitacoraLineaEJSA_EPSA_EEPT_SD_DpOT0_, symObjAddr: 0x15C88, symBinAddr: 0x100024550, symSize: 0x2C }
  - { offsetInCU: 0x1505E, offset: 0x375E6, size: 0x8, addend: 0x0, symName: __ZNSt3__112__to_addressB7v160006INS_16reverse_iteratorIPP6VertexINS_12basic_stringIcNS_11char_traitsIcEENS_9allocatorIcEEEE13BitacoraLineaEEEvEENS_5decayIDTclsr19__to_address_helperIT_EE6__callclsr3stdE7declvalIRKSF_EEEEE4typeESH_, symObjAddr: 0x15CB4, symBinAddr: 0x10002457C, symSize: 0x24 }
  - { offsetInCU: 0x15094, offset: 0x3761C, size: 0x8, addend: 0x0, symName: __ZNSt3__14moveB7v160006INS_16reverse_iteratorIPP6VertexINS_12basic_stringIcNS_11char_traitsIcEENS_9allocatorIcEEEE13BitacoraLineaEEESD_EET0_T_SF_SE_, symObjAddr: 0x15D20, symBinAddr: 0x1000245E8, symSize: 0x78 }
  - { offsetInCU: 0x15117, offset: 0x3769F, size: 0x8, addend: 0x0, symName: __ZNSt3__16__moveB7v160006INS_17_ClassicAlgPolicyENS_16reverse_iteratorIPP6VertexINS_12basic_stringIcNS_11char_traitsIcEENS_9allocatorIcEEEE13BitacoraLineaEEESE_SE_EENS_4pairIT0_T2_EESG_T1_SH_, symObjAddr: 0x15E08, symBinAddr: 0x1000246D0, symSize: 0x64 }
  - { offsetInCU: 0x15183, offset: 0x3770B, size: 0x8, addend: 0x0, symName: __ZNSt3__123__dispatch_copy_or_moveB7v160006INS_17_ClassicAlgPolicyENS_11__move_loopIS1_EENS_14__move_trivialENS_16reverse_iteratorIPP6VertexINS_12basic_stringIcNS_11char_traitsIcEENS_9allocatorIcEEEE13BitacoraLineaEEESH_SH_EENS_4pairIT2_T4_EESJ_T3_SK_, symObjAddr: 0x15E6C, symBinAddr: 0x100024734, symSize: 0x7C }
  - { offsetInCU: 0x15201, offset: 0x37789, size: 0x8, addend: 0x0, symName: __ZNSt3__121__unwrap_and_dispatchB7v160006INS_10__overloadINS_11__move_loopINS_17_ClassicAlgPolicyEEENS_14__move_trivialEEENS_16reverse_iteratorIPP6VertexINS_12basic_stringIcNS_11char_traitsIcEENS_9allocatorIcEEEE13BitacoraLineaEEESJ_SJ_Li0EEENS_4pairIT0_T2_EESL_T1_SM_, symObjAddr: 0x15EE8, symBinAddr: 0x1000247B0, symSize: 0x12C }
  - { offsetInCU: 0x15291, offset: 0x37819, size: 0x8, addend: 0x0, symName: __ZNSt3__114__unwrap_rangeB7v160006INS_16reverse_iteratorIPP6VertexINS_12basic_stringIcNS_11char_traitsIcEENS_9allocatorIcEEEE13BitacoraLineaEEESD_EENS_4pairIT0_SF_EET_SH_, symObjAddr: 0x16014, symBinAddr: 0x1000248DC, symSize: 0x84 }
  - { offsetInCU: 0x15424, offset: 0x379AC, size: 0x8, addend: 0x0, symName: __ZNSt3__113__unwrap_iterB7v160006INS_16reverse_iteratorIPP6VertexINS_12basic_stringIcNS_11char_traitsIcEENS_9allocatorIcEEEE13BitacoraLineaEEENS_18__unwrap_iter_implISD_Lb0EEELi0EEEDTclsrT0_8__unwrapclsr3stdE7declvalIT_EEEESH_, symObjAddr: 0x16138, symBinAddr: 0x100024A00, symSize: 0x44 }
  - { offsetInCU: 0x15468, offset: 0x379F0, size: 0x8, addend: 0x0, symName: __ZNSt3__19make_pairB7v160006INS_16reverse_iteratorIPP6VertexINS_12basic_stringIcNS_11char_traitsIcEENS_9allocatorIcEEEE13BitacoraLineaEEESD_EENS_4pairINS_18__unwrap_ref_decayIT_E4typeENSF_IT0_E4typeEEEOSG_OSJ_, symObjAddr: 0x1617C, symBinAddr: 0x100024A44, symSize: 0x38 }
  - { offsetInCU: 0x154B7, offset: 0x37A3F, size: 0x8, addend: 0x0, symName: __ZNSt3__114__rewrap_rangeB7v160006INS_16reverse_iteratorIPP6VertexINS_12basic_stringIcNS_11char_traitsIcEENS_9allocatorIcEEEE13BitacoraLineaEEESD_EET_SE_T0_, symObjAddr: 0x161B4, symBinAddr: 0x100024A7C, symSize: 0x5C }
  - { offsetInCU: 0x15503, offset: 0x37A8B, size: 0x8, addend: 0x0, symName: __ZNSt3__113__rewrap_iterB7v160006INS_16reverse_iteratorIPP6VertexINS_12basic_stringIcNS_11char_traitsIcEENS_9allocatorIcEEEE13BitacoraLineaEEESD_NS_18__unwrap_iter_implISD_Lb0EEEEET_SG_T0_, symObjAddr: 0x16210, symBinAddr: 0x100024AD8, symSize: 0x88 }
  - { offsetInCU: 0x1563D, offset: 0x37BC5, size: 0x8, addend: 0x0, symName: __ZNSt3__119__allocate_at_leastB7v160006INS_9allocatorIP4EdgeINS_12basic_stringIcNS_11char_traitsIcEENS1_IcEEEE13BitacoraLineaEEEEENS_19__allocation_resultINS_16allocator_traitsIT_E7pointerEEERSE_m, symObjAddr: 0x16EC0, symBinAddr: 0x100025788, symSize: 0x40 }
  - { offsetInCU: 0x15680, offset: 0x37C08, size: 0x8, addend: 0x0, symName: __ZNSt3__142__uninitialized_allocator_move_if_noexceptB7v160006INS_9allocatorIP4EdgeINS_12basic_stringIcNS_11char_traitsIcEENS1_IcEEEE13BitacoraLineaEEENS_16reverse_iteratorIPSA_EESE_SA_vEET1_RT_T0_SI_SF_, symObjAddr: 0x170A0, symBinAddr: 0x100025968, symSize: 0xE8 }
  - { offsetInCU: 0x156FE, offset: 0x37C86, size: 0x8, addend: 0x0, symName: __ZNSt3__14swapB7v160006IPP4EdgeINS_12basic_stringIcNS_11char_traitsIcEENS_9allocatorIcEEEE13BitacoraLineaEEEvRT_SD_, symObjAddr: 0x171D4, symBinAddr: 0x100025A9C, symSize: 0x3C }
  - { offsetInCU: 0x1574F, offset: 0x37CD7, size: 0x8, addend: 0x0, symName: __ZNSt3__1neB7v160006IPP4EdgeINS_12basic_stringIcNS_11char_traitsIcEENS_9allocatorIcEEEE13BitacoraLineaESB_EEbRKNS_16reverse_iteratorIT_EERKNSC_IT0_EE, symObjAddr: 0x172BC, symBinAddr: 0x100025B84, symSize: 0x48 }
  - { offsetInCU: 0x157C2, offset: 0x37D4A, size: 0x8, addend: 0x0, symName: __ZNSt3__114__construct_atB7v160006IP4EdgeINS_12basic_stringIcNS_11char_traitsIcEENS_9allocatorIcEEEE13BitacoraLineaEJSA_EPSA_EEPT_SD_DpOT0_, symObjAddr: 0x17304, symBinAddr: 0x100025BCC, symSize: 0x2C }
  - { offsetInCU: 0x15834, offset: 0x37DBC, size: 0x8, addend: 0x0, symName: __ZNSt3__112__to_addressB7v160006INS_16reverse_iteratorIPP4EdgeINS_12basic_stringIcNS_11char_traitsIcEENS_9allocatorIcEEEE13BitacoraLineaEEEvEENS_5decayIDTclsr19__to_address_helperIT_EE6__callclsr3stdE7declvalIRKSF_EEEEE4typeESH_, symObjAddr: 0x17330, symBinAddr: 0x100025BF8, symSize: 0x24 }
  - { offsetInCU: 0x1586A, offset: 0x37DF2, size: 0x8, addend: 0x0, symName: __ZNSt3__14moveB7v160006INS_16reverse_iteratorIPP4EdgeINS_12basic_stringIcNS_11char_traitsIcEENS_9allocatorIcEEEE13BitacoraLineaEEESD_EET0_T_SF_SE_, symObjAddr: 0x1739C, symBinAddr: 0x100025C64, symSize: 0x78 }
  - { offsetInCU: 0x158ED, offset: 0x37E75, size: 0x8, addend: 0x0, symName: __ZNSt3__16__moveB7v160006INS_17_ClassicAlgPolicyENS_16reverse_iteratorIPP4EdgeINS_12basic_stringIcNS_11char_traitsIcEENS_9allocatorIcEEEE13BitacoraLineaEEESE_SE_EENS_4pairIT0_T2_EESG_T1_SH_, symObjAddr: 0x17484, symBinAddr: 0x100025D4C, symSize: 0x64 }
  - { offsetInCU: 0x15959, offset: 0x37EE1, size: 0x8, addend: 0x0, symName: __ZNSt3__123__dispatch_copy_or_moveB7v160006INS_17_ClassicAlgPolicyENS_11__move_loopIS1_EENS_14__move_trivialENS_16reverse_iteratorIPP4EdgeINS_12basic_stringIcNS_11char_traitsIcEENS_9allocatorIcEEEE13BitacoraLineaEEESH_SH_EENS_4pairIT2_T4_EESJ_T3_SK_, symObjAddr: 0x174E8, symBinAddr: 0x100025DB0, symSize: 0x7C }
  - { offsetInCU: 0x159D7, offset: 0x37F5F, size: 0x8, addend: 0x0, symName: __ZNSt3__121__unwrap_and_dispatchB7v160006INS_10__overloadINS_11__move_loopINS_17_ClassicAlgPolicyEEENS_14__move_trivialEEENS_16reverse_iteratorIPP4EdgeINS_12basic_stringIcNS_11char_traitsIcEENS_9allocatorIcEEEE13BitacoraLineaEEESJ_SJ_Li0EEENS_4pairIT0_T2_EESL_T1_SM_, symObjAddr: 0x17564, symBinAddr: 0x100025E2C, symSize: 0x12C }
  - { offsetInCU: 0x15A67, offset: 0x37FEF, size: 0x8, addend: 0x0, symName: __ZNSt3__114__unwrap_rangeB7v160006INS_16reverse_iteratorIPP4EdgeINS_12basic_stringIcNS_11char_traitsIcEENS_9allocatorIcEEEE13BitacoraLineaEEESD_EENS_4pairIT0_SF_EET_SH_, symObjAddr: 0x17690, symBinAddr: 0x100025F58, symSize: 0x84 }
  - { offsetInCU: 0x15B60, offset: 0x380E8, size: 0x8, addend: 0x0, symName: __ZNSt3__113__unwrap_iterB7v160006INS_16reverse_iteratorIPP4EdgeINS_12basic_stringIcNS_11char_traitsIcEENS_9allocatorIcEEEE13BitacoraLineaEEENS_18__unwrap_iter_implISD_Lb0EEELi0EEEDTclsrT0_8__unwrapclsr3stdE7declvalIT_EEEESH_, symObjAddr: 0x177B4, symBinAddr: 0x10002607C, symSize: 0x44 }
  - { offsetInCU: 0x15BA4, offset: 0x3812C, size: 0x8, addend: 0x0, symName: __ZNSt3__19make_pairB7v160006INS_16reverse_iteratorIPP4EdgeINS_12basic_stringIcNS_11char_traitsIcEENS_9allocatorIcEEEE13BitacoraLineaEEESD_EENS_4pairINS_18__unwrap_ref_decayIT_E4typeENSF_IT0_E4typeEEEOSG_OSJ_, symObjAddr: 0x177F8, symBinAddr: 0x1000260C0, symSize: 0x38 }
  - { offsetInCU: 0x15BF3, offset: 0x3817B, size: 0x8, addend: 0x0, symName: __ZNSt3__114__rewrap_rangeB7v160006INS_16reverse_iteratorIPP4EdgeINS_12basic_stringIcNS_11char_traitsIcEENS_9allocatorIcEEEE13BitacoraLineaEEESD_EET_SE_T0_, symObjAddr: 0x17830, symBinAddr: 0x1000260F8, symSize: 0x5C }
  - { offsetInCU: 0x15C3F, offset: 0x381C7, size: 0x8, addend: 0x0, symName: __ZNSt3__113__rewrap_iterB7v160006INS_16reverse_iteratorIPP4EdgeINS_12basic_stringIcNS_11char_traitsIcEENS_9allocatorIcEEEE13BitacoraLineaEEESD_NS_18__unwrap_iter_implISD_Lb0EEEEET_SG_T0_, symObjAddr: 0x1788C, symBinAddr: 0x100026154, symSize: 0x88 }
  - { offsetInCU: 0x15D00, offset: 0x38288, size: 0x8, addend: 0x0, symName: __ZNSt3__1neB7v160006IPKP6VertexINS_12basic_stringIcNS_11char_traitsIcEENS_9allocatorIcEEEE13BitacoraLineaEEEbRKNS_11__wrap_iterIT_EESH_, symObjAddr: 0x17C90, symBinAddr: 0x100026558, symSize: 0x34 }
  - { offsetInCU: 0x15D43, offset: 0x382CB, size: 0x8, addend: 0x0, symName: __ZNSt3__1neB7v160006IPKP4EdgeINS_12basic_stringIcNS_11char_traitsIcEENS_9allocatorIcEEEE13BitacoraLineaEEEbRKNS_11__wrap_iterIT_EESH_, symObjAddr: 0x17D54, symBinAddr: 0x10002661C, symSize: 0x34 }
  - { offsetInCU: 0x15D86, offset: 0x3830E, size: 0x8, addend: 0x0, symName: __ZNSt3__1eqB7v160006IPKP6VertexINS_12basic_stringIcNS_11char_traitsIcEENS_9allocatorIcEEEE13BitacoraLineaEEEbRKNS_11__wrap_iterIT_EESH_, symObjAddr: 0x17E8C, symBinAddr: 0x100026754, symSize: 0x48 }
  - { offsetInCU: 0x15DC9, offset: 0x38351, size: 0x8, addend: 0x0, symName: __ZNSt3__1eqB7v160006IPKP4EdgeINS_12basic_stringIcNS_11char_traitsIcEENS_9allocatorIcEEEE13BitacoraLineaEEEbRKNS_11__wrap_iterIT_EESH_, symObjAddr: 0x17F80, symBinAddr: 0x100026848, symSize: 0x48 }
  - { offsetInCU: 0x15E0C, offset: 0x38394, size: 0x8, addend: 0x0, symName: __ZNSt3__1neB7v160006ERKNS_15__tree_iteratorINS_12__value_typeINS_12basic_stringIcNS_11char_traitsIcEENS_9allocatorIcEEEEiEEPNS_11__tree_nodeIS8_PvEElEESF_, symObjAddr: 0x180F0, symBinAddr: 0x1000269B8, symSize: 0x34 }
  - { offsetInCU: 0x15E49, offset: 0x383D1, size: 0x8, addend: 0x0, symName: __ZNSt3__1eqB7v160006ERKNS_15__tree_iteratorINS_12__value_typeINS_12basic_stringIcNS_11char_traitsIcEENS_9allocatorIcEEEEiEEPNS_11__tree_nodeIS8_PvEElEESF_, symObjAddr: 0x18124, symBinAddr: 0x1000269EC, symSize: 0x30 }
  - { offsetInCU: 0x15F46, offset: 0x384CE, size: 0x8, addend: 0x0, symName: __ZNSt3__1eqB7v160006IPNS_12basic_stringIcNS_11char_traitsIcEENS_9allocatorIcEEEEEEbRKNS_11__wrap_iterIT_EESC_, symObjAddr: 0x18F48, symBinAddr: 0x1000274AC, symSize: 0x48 }
  - { offsetInCU: 0x17B73, offset: 0x3A0FB, size: 0x8, addend: 0x0, symName: __ZNSt3__16vectorIN21ConexionesComputadoraI13BitacoraLineaE3SitENS_9allocatorIS4_EEE26__swap_out_circular_bufferERNS_14__split_bufferIS4_RS6_EE, symObjAddr: 0xEA80, symBinAddr: 0x10001EEC8, symSize: 0x118 }
  - { offsetInCU: 0x181EB, offset: 0x3A773, size: 0x8, addend: 0x0, symName: __ZNSt3__16vectorIP6VertexINS_12basic_stringIcNS_11char_traitsIcEENS_9allocatorIcEEEE13BitacoraLineaENS5_ISA_EEE26__swap_out_circular_bufferERNS_14__split_bufferISA_RSB_EE, symObjAddr: 0x154C8, symBinAddr: 0x100023D90, symSize: 0x118 }
  - { offsetInCU: 0x18241, offset: 0x3A7C9, size: 0x8, addend: 0x0, symName: __ZNSt3__16vectorIP4EdgeINS_12basic_stringIcNS_11char_traitsIcEENS_9allocatorIcEEEE13BitacoraLineaENS5_ISA_EEE26__swap_out_circular_bufferERNS_14__split_bufferISA_RSB_EE, symObjAddr: 0x16B44, symBinAddr: 0x10002540C, symSize: 0x118 }
  - { offsetInCU: 0x1A315, offset: 0x3C89D, size: 0x8, addend: 0x0, symName: _main, symObjAddr: 0x0, symBinAddr: 0x10001305C, symSize: 0x1620 }
  - { offsetInCU: 0x1A5D1, offset: 0x3CB59, size: 0x8, addend: 0x0, symName: __ZNSt3__16vectorI13BitacoraLineaNS_9allocatorIS1_EEEaSB7v160006EOS4_, symObjAddr: 0x16BC, symBinAddr: 0x1000146AC, symSize: 0x34 }
  - { offsetInCU: 0x1A607, offset: 0x3CB8F, size: 0x8, addend: 0x0, symName: __ZN21ConexionesComputadoraI13BitacoraLineaEC1Ev, symObjAddr: 0x17E8, symBinAddr: 0x1000146E0, symSize: 0x2C }
  - { offsetInCU: 0x1A631, offset: 0x3CBB9, size: 0x8, addend: 0x0, symName: __ZN21ConexionesComputadoraI13BitacoraLineaE5setIpENSt3__112basic_stringIcNS2_11char_traitsIcEENS2_9allocatorIcEEEE, symObjAddr: 0x1814, symBinAddr: 0x10001470C, symSize: 0x150 }
  - { offsetInCU: 0x1A675, offset: 0x3CBFD, size: 0x8, addend: 0x0, symName: __ZN21ConexionesComputadoraI13BitacoraLineaE16llenarconexionesERNSt3__16vectorIS0_NS2_9allocatorIS0_EEEENS2_12basic_stringIcNS2_11char_traitsIcEENS4_IcEEEE, symObjAddr: 0x1964, symBinAddr: 0x10001485C, symSize: 0x23C }
  - { offsetInCU: 0x1A749, offset: 0x3CCD1, size: 0x8, addend: 0x0, symName: __ZN21ConexionesComputadoraI13BitacoraLineaE16conexionesPorDiaENSt3__112basic_stringIcNS2_11char_traitsIcEENS2_9allocatorIcEEEE, symObjAddr: 0x2124, symBinAddr: 0x100014FF0, symSize: 0x2AC }
  - { offsetInCU: 0x1A7B1, offset: 0x3CD39, size: 0x8, addend: 0x0, symName: __ZN21ConexionesComputadoraI13BitacoraLineaE11top5CadaDiaEv, symObjAddr: 0x23D0, symBinAddr: 0x10001529C, symSize: 0x738 }
  - { offsetInCU: 0x1A9CB, offset: 0x3CF53, size: 0x8, addend: 0x0, symName: __ZN21ConexionesComputadoraI13BitacoraLineaE11subsequenteEv, symObjAddr: 0x2B08, symBinAddr: 0x1000159D4, symSize: 0x7CC }
  - { offsetInCU: 0x1AC41, offset: 0x3D1C9, size: 0x8, addend: 0x0, symName: __ZN21ConexionesComputadoraI13BitacoraLineaE19sitioConTraficoAltoEv, symObjAddr: 0x32D4, symBinAddr: 0x1000161A0, symSize: 0x854 }
  - { offsetInCU: 0x1AEC1, offset: 0x3D449, size: 0x8, addend: 0x0, symName: __ZN21ConexionesComputadoraI13BitacoraLineaE17llenarconexionesAERNSt3__16vectorIS0_NS2_9allocatorIS0_EEEENS2_12basic_stringIcNS2_11char_traitsIcEENS4_IcEEEE, symObjAddr: 0x3B28, symBinAddr: 0x1000169F4, symSize: 0x514 }
  - { offsetInCU: 0x1AF6E, offset: 0x3D4F6, size: 0x8, addend: 0x0, symName: __ZN21ConexionesComputadoraI13BitacoraLineaE22ConexionesSalientesdeAENSt3__112basic_stringIcNS2_11char_traitsIcEENS2_9allocatorIcEEEE, symObjAddr: 0x403C, symBinAddr: 0x100016F08, symSize: 0x3C8 }
  - { offsetInCU: 0x1B06B, offset: 0x3D5F3, size: 0x8, addend: 0x0, symName: __ZNSt3__13mapINS_12basic_stringIcNS_11char_traitsIcEENS_9allocatorIcEEEEiNS_4lessIS6_EENS4_INS_4pairIKS6_iEEEEE5beginB7v160006Ev, symObjAddr: 0x4404, symBinAddr: 0x1000172D0, symSize: 0x38 }
  - { offsetInCU: 0x1B091, offset: 0x3D619, size: 0x8, addend: 0x0, symName: __ZNSt3__13mapINS_12basic_stringIcNS_11char_traitsIcEENS_9allocatorIcEEEEiNS_4lessIS6_EENS4_INS_4pairIKS6_iEEEEE3endB7v160006Ev, symObjAddr: 0x443C, symBinAddr: 0x100017308, symSize: 0x38 }
  - { offsetInCU: 0x1B0B7, offset: 0x3D63F, size: 0x8, addend: 0x0, symName: __ZNKSt3__114__map_iteratorINS_15__tree_iteratorINS_12__value_typeINS_12basic_stringIcNS_11char_traitsIcEENS_9allocatorIcEEEEiEEPNS_11__tree_nodeIS9_PvEElEEEdeB7v160006Ev, symObjAddr: 0x44A4, symBinAddr: 0x100017370, symSize: 0x28 }
  - { offsetInCU: 0x1B0DD, offset: 0x3D665, size: 0x8, addend: 0x0, symName: __ZNSt3__114__map_iteratorINS_15__tree_iteratorINS_12__value_typeINS_12basic_stringIcNS_11char_traitsIcEENS_9allocatorIcEEEEiEEPNS_11__tree_nodeIS9_PvEElEEEppB7v160006Ev, symObjAddr: 0x4518, symBinAddr: 0x100017398, symSize: 0x2C }
  - { offsetInCU: 0x1B103, offset: 0x3D68B, size: 0x8, addend: 0x0, symName: __ZN21ConexionesComputadoraI13BitacoraLineaE16EsLaMasConectadaENSt3__112basic_stringIcNS2_11char_traitsIcEENS2_9allocatorIcEEEE, symObjAddr: 0x4544, symBinAddr: 0x1000173C4, symSize: 0x208 }
  - { offsetInCU: 0x1B22F, offset: 0x3D7B7, size: 0x8, addend: 0x0, symName: __ZN21ConexionesComputadoraI13BitacoraLineaE20ConexionesEntrantesAENSt3__112basic_stringIcNS2_11char_traitsIcEENS2_9allocatorIcEEEE, symObjAddr: 0x474C, symBinAddr: 0x1000175CC, symSize: 0xBC }
  - { offsetInCU: 0x1B292, offset: 0x3D81A, size: 0x8, addend: 0x0, symName: __ZN21ConexionesComputadoraI13BitacoraLineaE19llenarconexionesIntERNSt3__16vectorIS0_NS2_9allocatorIS0_EEEE, symObjAddr: 0x4808, symBinAddr: 0x100017688, symSize: 0x4BC }
  - { offsetInCU: 0x1B341, offset: 0x3D8C9, size: 0x8, addend: 0x0, symName: __ZN21ConexionesComputadoraI13BitacoraLineaE19NumeroDeConexionesCENSt3__112basic_stringIcNS2_11char_traitsIcEENS2_9allocatorIcEEEE, symObjAddr: 0x4CC4, symBinAddr: 0x100017B44, symSize: 0x178 }
  - { offsetInCU: 0x1B3F8, offset: 0x3D980, size: 0x8, addend: 0x0, symName: __ZN21ConexionesComputadoraI13BitacoraLineaE22ultimaconexionEntranteEv, symObjAddr: 0x4E3C, symBinAddr: 0x100017CBC, symSize: 0x40 }
  - { offsetInCU: 0x1B42D, offset: 0x3D9B5, size: 0x8, addend: 0x0, symName: __ZN21ConexionesComputadoraI13BitacoraLineaE11esIPInternaENSt3__112basic_stringIcNS2_11char_traitsIcEENS2_9allocatorIcEEEE, symObjAddr: 0x4E7C, symBinAddr: 0x100017CFC, symSize: 0xA4 }
  - { offsetInCU: 0x1B463, offset: 0x3D9EB, size: 0x8, addend: 0x0, symName: __ZN21ConexionesComputadoraI13BitacoraLineaE24totalConexionesEntrantesEv, symObjAddr: 0x4F4C, symBinAddr: 0x100017DA0, symSize: 0x1A4 }
  - { offsetInCU: 0x1B4AD, offset: 0x3DA35, size: 0x8, addend: 0x0, symName: __ZN21ConexionesComputadoraI13BitacoraLineaE24totalConexionesSalientesEv, symObjAddr: 0x50F0, symBinAddr: 0x100017F44, symSize: 0x28 }
  - { offsetInCU: 0x1B4D4, offset: 0x3DA5C, size: 0x8, addend: 0x0, symName: __ZN21ConexionesComputadoraI13BitacoraLineaE27tieneTresConexionesSeguidasEv, symObjAddr: 0x5118, symBinAddr: 0x100017F6C, symSize: 0x328 }
  - { offsetInCU: 0x1B53B, offset: 0x3DAC3, size: 0x8, addend: 0x0, symName: __ZN21ConexionesComputadoraI13BitacoraLineaE11topPorFechaEi, symObjAddr: 0x5470, symBinAddr: 0x100018294, symSize: 0x284 }
  - { offsetInCU: 0x1B625, offset: 0x3DBAD, size: 0x8, addend: 0x0, symName: __ZN21ConexionesComputadoraI13BitacoraLineaE3topEiNSt3__112basic_stringIcNS2_11char_traitsIcEENS2_9allocatorIcEEEE, symObjAddr: 0x56F4, symBinAddr: 0x100018518, symSize: 0x550 }
  - { offsetInCU: 0x1B755, offset: 0x3DCDD, size: 0x8, addend: 0x0, symName: __ZNSt3__16vectorINS_12basic_stringIcNS_11char_traitsIcEENS_9allocatorIcEEEENS4_IS6_EEE5beginB7v160006Ev, symObjAddr: 0x5C44, symBinAddr: 0x100018A68, symSize: 0x30 }
  - { offsetInCU: 0x1B77C, offset: 0x3DD04, size: 0x8, addend: 0x0, symName: __ZNSt3__16vectorINS_12basic_stringIcNS_11char_traitsIcEENS_9allocatorIcEEEENS4_IS6_EEE3endB7v160006Ev, symObjAddr: 0x5C74, symBinAddr: 0x100018A98, symSize: 0x30 }
  - { offsetInCU: 0x1B7A3, offset: 0x3DD2B, size: 0x8, addend: 0x0, symName: __ZNKSt3__111__wrap_iterIPNS_12basic_stringIcNS_11char_traitsIcEENS_9allocatorIcEEEEEdeB7v160006Ev, symObjAddr: 0x5CD8, symBinAddr: 0x100018AFC, symSize: 0x18 }
  - { offsetInCU: 0x1B7C9, offset: 0x3DD51, size: 0x8, addend: 0x0, symName: __ZNSt3__111__wrap_iterIPNS_12basic_stringIcNS_11char_traitsIcEENS_9allocatorIcEEEEEppB7v160006Ev, symObjAddr: 0x5CF0, symBinAddr: 0x100018B14, symSize: 0x20 }
  - { offsetInCU: 0x1B7EF, offset: 0x3DD77, size: 0x8, addend: 0x0, symName: __ZNKSt3__13mapINS_12basic_stringIcNS_11char_traitsIcEENS_9allocatorIcEEEEiNS_4lessIS6_EENS4_INS_4pairIKS6_iEEEEE5emptyB7v160006Ev, symObjAddr: 0x5D10, symBinAddr: 0x100018B34, symSize: 0x34 }
  - { offsetInCU: 0x1B815, offset: 0x3DD9D, size: 0x8, addend: 0x0, symName: __ZNSt3__13mapINS_12basic_stringIcNS_11char_traitsIcEENS_9allocatorIcEEEEiNS_4lessIS6_EENS4_INS_4pairIKS6_iEEEEED1B7v160006Ev, symObjAddr: 0x5D6C, symBinAddr: 0x100018B68, symSize: 0x2C }
  - { offsetInCU: 0x1B83F, offset: 0x3DDC7, size: 0x8, addend: 0x0, symName: __ZN21ConexionesComputadoraI13BitacoraLineaED1Ev, symObjAddr: 0x5DC4, symBinAddr: 0x100018B94, symSize: 0x2C }
  - { offsetInCU: 0x1B968, offset: 0x3DEF0, size: 0x8, addend: 0x0, symName: __ZN8BitacoraD1Ev, symObjAddr: 0x5DF0, symBinAddr: 0x100018BC0, symSize: 0x2C }
  - { offsetInCU: 0x1B994, offset: 0x3DF1C, size: 0x8, addend: 0x0, symName: __ZN21ConexionesComputadoraI13BitacoraLineaEC2Ev, symObjAddr: 0x5E1C, symBinAddr: 0x100018BEC, symSize: 0x1EC }
  - { offsetInCU: 0x1B9BE, offset: 0x3DF46, size: 0x8, addend: 0x0, symName: __ZN5StackI13BitacoraLineaEC1Ev, symObjAddr: 0x6008, symBinAddr: 0x100018DD8, symSize: 0x2C }
  - { offsetInCU: 0x1B9E8, offset: 0x3DF70, size: 0x8, addend: 0x0, symName: __ZN10LinkedListI13BitacoraLineaEC1Ev, symObjAddr: 0x6034, symBinAddr: 0x100018E04, symSize: 0x2C }
  - { offsetInCU: 0x1BA12, offset: 0x3DF9A, size: 0x8, addend: 0x0, symName: __ZN5GraphINSt3__112basic_stringIcNS0_11char_traitsIcEENS0_9allocatorIcEEEE13BitacoraLineaEC1Ev, symObjAddr: 0x6060, symBinAddr: 0x100018E30, symSize: 0x2C }
  - { offsetInCU: 0x1BA3C, offset: 0x3DFC4, size: 0x8, addend: 0x0, symName: __ZN5StackI13BitacoraLineaEC2Ev, symObjAddr: 0x608C, symBinAddr: 0x100018E5C, symSize: 0x44 }
  - { offsetInCU: 0x1BA66, offset: 0x3DFEE, size: 0x8, addend: 0x0, symName: __ZN10LinkedListI13BitacoraLineaEC2Ev, symObjAddr: 0x60D0, symBinAddr: 0x100018EA0, symSize: 0x2C }
  - { offsetInCU: 0x1BA90, offset: 0x3E018, size: 0x8, addend: 0x0, symName: __ZN5StackI13BitacoraLineaED1Ev, symObjAddr: 0x60FC, symBinAddr: 0x100018ECC, symSize: 0x2C }
  - { offsetInCU: 0x1BABA, offset: 0x3E042, size: 0x8, addend: 0x0, symName: __ZN5StackI13BitacoraLineaED0Ev, symObjAddr: 0x6128, symBinAddr: 0x100018EF8, symSize: 0x58 }
  - { offsetInCU: 0x1BAE4, offset: 0x3E06C, size: 0x8, addend: 0x0, symName: __ZN10LinkedListI13BitacoraLineaE5clearEv, symObjAddr: 0x6180, symBinAddr: 0x100018F50, symSize: 0xB4 }
  - { offsetInCU: 0x1BB1A, offset: 0x3E0A2, size: 0x8, addend: 0x0, symName: __ZNK10LinkedListI13BitacoraLineaE5indexEP4NodeIS0_E, symObjAddr: 0x6234, symBinAddr: 0x100019004, symSize: 0xD8 }
  - { offsetInCU: 0x1BB4F, offset: 0x3E0D7, size: 0x8, addend: 0x0, symName: __ZNK10LinkedListI13BitacoraLineaE5indexERKS0_, symObjAddr: 0x630C, symBinAddr: 0x1000190DC, symSize: 0x1A0 }
  - { offsetInCU: 0x1BBA2, offset: 0x3E12A, size: 0x8, addend: 0x0, symName: __ZNK10LinkedListI13BitacoraLineaE5countERKS0_, symObjAddr: 0x64AC, symBinAddr: 0x10001927C, symSize: 0xAC }
  - { offsetInCU: 0x1BBF5, offset: 0x3E17D, size: 0x8, addend: 0x0, symName: __ZN10LinkedListI13BitacoraLineaE7reverseEv, symObjAddr: 0x6558, symBinAddr: 0x100019328, symSize: 0x90 }
  - { offsetInCU: 0x1BC3A, offset: 0x3E1C2, size: 0x8, addend: 0x0, symName: __ZN10LinkedListI13BitacoraLineaED1Ev, symObjAddr: 0x65E8, symBinAddr: 0x1000193B8, symSize: 0x2C }
  - { offsetInCU: 0x1BC65, offset: 0x3E1ED, size: 0x8, addend: 0x0, symName: __ZN10LinkedListI13BitacoraLineaED0Ev, symObjAddr: 0x6614, symBinAddr: 0x1000193E4, symSize: 0x58 }
  - { offsetInCU: 0x1BC90, offset: 0x3E218, size: 0x8, addend: 0x0, symName: __ZN10LinkedListI13BitacoraLineaED2Ev, symObjAddr: 0x666C, symBinAddr: 0x10001943C, symSize: 0x44 }
  - { offsetInCU: 0x1BCBB, offset: 0x3E243, size: 0x8, addend: 0x0, symName: __ZN5StackI13BitacoraLineaED2Ev, symObjAddr: 0x66B0, symBinAddr: 0x100019480, symSize: 0x2C }
  - { offsetInCU: 0x1BCE5, offset: 0x3E26D, size: 0x8, addend: 0x0, symName: __ZNK10LinkedListI13BitacoraLineaE5emptyEv, symObjAddr: 0x66DC, symBinAddr: 0x1000194AC, symSize: 0x24 }
  - { offsetInCU: 0x1BD0C, offset: 0x3E294, size: 0x8, addend: 0x0, symName: __ZNK4NodeI13BitacoraLineaE7getNextEv, symObjAddr: 0x6700, symBinAddr: 0x1000194D0, symSize: 0x18 }
  - { offsetInCU: 0x1BD32, offset: 0x3E2BA, size: 0x8, addend: 0x0, symName: __ZNK4NodeI13BitacoraLineaE7getInfoEv, symObjAddr: 0x6718, symBinAddr: 0x1000194E8, symSize: 0x3C }
  - { offsetInCU: 0x1BD58, offset: 0x3E2E0, size: 0x8, addend: 0x0, symName: __ZNK13BitacoraLineaneERKS_, symObjAddr: 0x6968, symBinAddr: 0x100019524, symSize: 0x34 }
  - { offsetInCU: 0x1BD8C, offset: 0x3E314, size: 0x8, addend: 0x0, symName: __ZNK13BitacoraLineaeqERKS_, symObjAddr: 0x699C, symBinAddr: 0x100019558, symSize: 0x88 }
  - { offsetInCU: 0x1BDC0, offset: 0x3E348, size: 0x8, addend: 0x0, symName: __ZN4NodeI13BitacoraLineaE7setNextEPS1_, symObjAddr: 0x6E7C, symBinAddr: 0x1000195E0, symSize: 0x20 }
  - { offsetInCU: 0x1BDF4, offset: 0x3E37C, size: 0x8, addend: 0x0, symName: __ZN5GraphINSt3__112basic_stringIcNS0_11char_traitsIcEENS0_9allocatorIcEEEE13BitacoraLineaEC2Ev, symObjAddr: 0x6E9C, symBinAddr: 0x100019600, symSize: 0x2C }
  - { offsetInCU: 0x1BE1E, offset: 0x3E3A6, size: 0x8, addend: 0x0, symName: __ZNSt3__16vectorIP6VertexINS_12basic_stringIcNS_11char_traitsIcEENS_9allocatorIcEEEE13BitacoraLineaENS5_ISA_EEEC1B7v160006Ev, symObjAddr: 0x6EC8, symBinAddr: 0x10001962C, symSize: 0x2C }
  - { offsetInCU: 0x1BE48, offset: 0x3E3D0, size: 0x8, addend: 0x0, symName: __ZNSt3__16vectorIP6VertexINS_12basic_stringIcNS_11char_traitsIcEENS_9allocatorIcEEEE13BitacoraLineaENS5_ISA_EEEC2B7v160006Ev, symObjAddr: 0x6EF4, symBinAddr: 0x100019658, symSize: 0x4C }
  - { offsetInCU: 0x1BE7C, offset: 0x3E404, size: 0x8, addend: 0x0, symName: __ZNSt3__117__compressed_pairIPP6VertexINS_12basic_stringIcNS_11char_traitsIcEENS_9allocatorIcEEEE13BitacoraLineaENS5_ISA_EEEC1B7v160006IDnNS_18__default_init_tagEEEOT_OT0_, symObjAddr: 0x6F40, symBinAddr: 0x1000196A4, symSize: 0x3C }
  - { offsetInCU: 0x1BED4, offset: 0x3E45C, size: 0x8, addend: 0x0, symName: __ZNSt3__117__compressed_pairIPP6VertexINS_12basic_stringIcNS_11char_traitsIcEENS_9allocatorIcEEEE13BitacoraLineaENS5_ISA_EEEC2B7v160006IDnNS_18__default_init_tagEEEOT_OT0_, symObjAddr: 0x6F8C, symBinAddr: 0x1000196F0, symSize: 0x40 }
  - { offsetInCU: 0x1BF2C, offset: 0x3E4B4, size: 0x8, addend: 0x0, symName: __ZNSt3__122__compressed_pair_elemIPP6VertexINS_12basic_stringIcNS_11char_traitsIcEENS_9allocatorIcEEEE13BitacoraLineaELi0ELb0EEC2B7v160006IDnvEEOT_, symObjAddr: 0x6FCC, symBinAddr: 0x100019730, symSize: 0x1C }
  - { offsetInCU: 0x1BF6E, offset: 0x3E4F6, size: 0x8, addend: 0x0, symName: __ZNSt3__122__compressed_pair_elemINS_9allocatorIP6VertexINS_12basic_stringIcNS_11char_traitsIcEENS1_IcEEEE13BitacoraLineaEEELi1ELb1EEC2B7v160006ENS_18__default_init_tagE, symObjAddr: 0x6FE8, symBinAddr: 0x10001974C, symSize: 0x2C }
  - { offsetInCU: 0x1BFA3, offset: 0x3E52B, size: 0x8, addend: 0x0, symName: __ZNSt3__19allocatorIP6VertexINS_12basic_stringIcNS_11char_traitsIcEENS0_IcEEEE13BitacoraLineaEEC2B7v160006Ev, symObjAddr: 0x7014, symBinAddr: 0x100019778, symSize: 0x2C }
  - { offsetInCU: 0x1BFCD, offset: 0x3E555, size: 0x8, addend: 0x0, symName: __ZNSt3__116__non_trivial_ifILb1ENS_9allocatorIP6VertexINS_12basic_stringIcNS_11char_traitsIcEENS1_IcEEEE13BitacoraLineaEEEEC2B7v160006Ev, symObjAddr: 0x7040, symBinAddr: 0x1000197A4, symSize: 0x14 }
  - { offsetInCU: 0x1BFF7, offset: 0x3E57F, size: 0x8, addend: 0x0, symName: __ZN8BitacoraD2Ev, symObjAddr: 0x71F0, symBinAddr: 0x1000197B8, symSize: 0x2C }
  - { offsetInCU: 0x1C02D, offset: 0x3E5B5, size: 0x8, addend: 0x0, symName: __ZNSt3__16vectorI13BitacoraLineaNS_9allocatorIS1_EEE13__move_assignERS4_NS_17integral_constantIbLb1EEE, symObjAddr: 0x7FC0, symBinAddr: 0x1000197E4, symSize: 0xA4 }
  - { offsetInCU: 0x1C06F, offset: 0x3E5F7, size: 0x8, addend: 0x0, symName: __ZNSt3__16vectorI13BitacoraLineaNS_9allocatorIS1_EEE13__vdeallocateEv, symObjAddr: 0x8064, symBinAddr: 0x100019888, symSize: 0x8C }
  - { offsetInCU: 0x1C096, offset: 0x3E61E, size: 0x8, addend: 0x0, symName: __ZNSt3__16vectorI13BitacoraLineaNS_9allocatorIS1_EEE19__move_assign_allocB7v160006ERS4_, symObjAddr: 0x80F0, symBinAddr: 0x100019914, symSize: 0x2C }
  - { offsetInCU: 0x1C0CB, offset: 0x3E653, size: 0x8, addend: 0x0, symName: __ZNSt3__16vectorI13BitacoraLineaNS_9allocatorIS1_EEE5clearB7v160006Ev, symObjAddr: 0x8158, symBinAddr: 0x100019954, symSize: 0x68 }
  - { offsetInCU: 0x1C100, offset: 0x3E688, size: 0x8, addend: 0x0, symName: __ZNKSt3__16vectorI13BitacoraLineaNS_9allocatorIS1_EEE17__annotate_shrinkB7v160006Em, symObjAddr: 0x81C0, symBinAddr: 0x1000199BC, symSize: 0xD0 }
  - { offsetInCU: 0x1C135, offset: 0x3E6BD, size: 0x8, addend: 0x0, symName: __ZNSt3__16vectorI13BitacoraLineaNS_9allocatorIS1_EEE19__move_assign_allocB7v160006ERS4_NS_17integral_constantIbLb1EEE, symObjAddr: 0x82A0, symBinAddr: 0x100019A8C, symSize: 0x38 }
  - { offsetInCU: 0x1C180, offset: 0x3E708, size: 0x8, addend: 0x0, symName: __ZN21ConexionesComputadoraI13BitacoraLineaED2Ev, symObjAddr: 0x8B70, symBinAddr: 0x100019AC4, symSize: 0x25C }
  - { offsetInCU: 0x1C1AA, offset: 0x3E732, size: 0x8, addend: 0x0, symName: __ZN5GraphINSt3__112basic_stringIcNS0_11char_traitsIcEENS0_9allocatorIcEEEE13BitacoraLineaED1Ev, symObjAddr: 0x8DCC, symBinAddr: 0x100019D20, symSize: 0x2C }
  - { offsetInCU: 0x1C1D5, offset: 0x3E75D, size: 0x8, addend: 0x0, symName: __ZN5GraphINSt3__112basic_stringIcNS0_11char_traitsIcEENS0_9allocatorIcEEEE13BitacoraLineaED2Ev, symObjAddr: 0x8DF8, symBinAddr: 0x100019D4C, symSize: 0xF4 }
  - { offsetInCU: 0x1C24A, offset: 0x3E7D2, size: 0x8, addend: 0x0, symName: __ZNSt3__16vectorIP6VertexINS_12basic_stringIcNS_11char_traitsIcEENS_9allocatorIcEEEE13BitacoraLineaENS5_ISA_EEE5beginB7v160006Ev, symObjAddr: 0x8EEC, symBinAddr: 0x100019E40, symSize: 0x30 }
  - { offsetInCU: 0x1C271, offset: 0x3E7F9, size: 0x8, addend: 0x0, symName: __ZNSt3__16vectorIP6VertexINS_12basic_stringIcNS_11char_traitsIcEENS_9allocatorIcEEEE13BitacoraLineaENS5_ISA_EEE3endB7v160006Ev, symObjAddr: 0x8F1C, symBinAddr: 0x100019E70, symSize: 0x30 }
  - { offsetInCU: 0x1C298, offset: 0x3E820, size: 0x8, addend: 0x0, symName: __ZNKSt3__111__wrap_iterIPP6VertexINS_12basic_stringIcNS_11char_traitsIcEENS_9allocatorIcEEEE13BitacoraLineaEEdeB7v160006Ev, symObjAddr: 0x8F80, symBinAddr: 0x100019ED4, symSize: 0x18 }
  - { offsetInCU: 0x1C2BE, offset: 0x3E846, size: 0x8, addend: 0x0, symName: __ZN6VertexINSt3__112basic_stringIcNS0_11char_traitsIcEENS0_9allocatorIcEEEE13BitacoraLineaED1Ev, symObjAddr: 0x8F98, symBinAddr: 0x100019EEC, symSize: 0x2C }
  - { offsetInCU: 0x1C2E9, offset: 0x3E871, size: 0x8, addend: 0x0, symName: __ZNSt3__111__wrap_iterIPP6VertexINS_12basic_stringIcNS_11char_traitsIcEENS_9allocatorIcEEEE13BitacoraLineaEEppB7v160006Ev, symObjAddr: 0x8FC4, symBinAddr: 0x100019F18, symSize: 0x20 }
  - { offsetInCU: 0x1C30F, offset: 0x3E897, size: 0x8, addend: 0x0, symName: __ZNSt3__16vectorIP6VertexINS_12basic_stringIcNS_11char_traitsIcEENS_9allocatorIcEEEE13BitacoraLineaENS5_ISA_EEE5clearB7v160006Ev, symObjAddr: 0x8FE4, symBinAddr: 0x100019F38, symSize: 0x68 }
  - { offsetInCU: 0x1C344, offset: 0x3E8CC, size: 0x8, addend: 0x0, symName: __ZNSt3__16vectorIP6VertexINS_12basic_stringIcNS_11char_traitsIcEENS_9allocatorIcEEEE13BitacoraLineaENS5_ISA_EEED1B7v160006Ev, symObjAddr: 0x904C, symBinAddr: 0x100019FA0, symSize: 0x2C }
  - { offsetInCU: 0x1C36E, offset: 0x3E8F6, size: 0x8, addend: 0x0, symName: __ZNSt3__16vectorIP6VertexINS_12basic_stringIcNS_11char_traitsIcEENS_9allocatorIcEEEE13BitacoraLineaENS5_ISA_EEE11__make_iterB7v160006EPSA_, symObjAddr: 0x9078, symBinAddr: 0x100019FCC, symSize: 0x34 }
  - { offsetInCU: 0x1C3A3, offset: 0x3E92B, size: 0x8, addend: 0x0, symName: __ZNSt3__111__wrap_iterIPP6VertexINS_12basic_stringIcNS_11char_traitsIcEENS_9allocatorIcEEEE13BitacoraLineaEEC1B7v160006EPKvSB_, symObjAddr: 0x90AC, symBinAddr: 0x10001A000, symSize: 0x3C }
  - { offsetInCU: 0x1C3E9, offset: 0x3E971, size: 0x8, addend: 0x0, symName: __ZNSt3__111__wrap_iterIPP6VertexINS_12basic_stringIcNS_11char_traitsIcEENS_9allocatorIcEEEE13BitacoraLineaEEC2B7v160006EPKvSB_, symObjAddr: 0x90E8, symBinAddr: 0x10001A03C, symSize: 0x24 }
  - { offsetInCU: 0x1C42F, offset: 0x3E9B7, size: 0x8, addend: 0x0, symName: __ZNKSt3__111__wrap_iterIPP6VertexINS_12basic_stringIcNS_11char_traitsIcEENS_9allocatorIcEEEE13BitacoraLineaEE4baseB7v160006Ev, symObjAddr: 0x9154, symBinAddr: 0x10001A0A8, symSize: 0x18 }
  - { offsetInCU: 0x1C455, offset: 0x3E9DD, size: 0x8, addend: 0x0, symName: __ZN6VertexINSt3__112basic_stringIcNS0_11char_traitsIcEENS0_9allocatorIcEEEE13BitacoraLineaED2Ev, symObjAddr: 0x916C, symBinAddr: 0x10001A0C0, symSize: 0x130 }
  - { offsetInCU: 0x1C4CA, offset: 0x3EA52, size: 0x8, addend: 0x0, symName: __ZNSt3__16vectorIP4EdgeINS_12basic_stringIcNS_11char_traitsIcEENS_9allocatorIcEEEE13BitacoraLineaENS5_ISA_EEE5beginB7v160006Ev, symObjAddr: 0x929C, symBinAddr: 0x10001A1F0, symSize: 0x30 }
  - { offsetInCU: 0x1C4F1, offset: 0x3EA79, size: 0x8, addend: 0x0, symName: __ZNSt3__16vectorIP4EdgeINS_12basic_stringIcNS_11char_traitsIcEENS_9allocatorIcEEEE13BitacoraLineaENS5_ISA_EEE3endB7v160006Ev, symObjAddr: 0x92CC, symBinAddr: 0x10001A220, symSize: 0x30 }
  - { offsetInCU: 0x1C518, offset: 0x3EAA0, size: 0x8, addend: 0x0, symName: __ZNKSt3__111__wrap_iterIPP4EdgeINS_12basic_stringIcNS_11char_traitsIcEENS_9allocatorIcEEEE13BitacoraLineaEEdeB7v160006Ev, symObjAddr: 0x9330, symBinAddr: 0x10001A284, symSize: 0x18 }
  - { offsetInCU: 0x1C53E, offset: 0x3EAC6, size: 0x8, addend: 0x0, symName: __ZN4EdgeINSt3__112basic_stringIcNS0_11char_traitsIcEENS0_9allocatorIcEEEE13BitacoraLineaED1Ev, symObjAddr: 0x9348, symBinAddr: 0x10001A29C, symSize: 0x2C }
  - { offsetInCU: 0x1C569, offset: 0x3EAF1, size: 0x8, addend: 0x0, symName: __ZNSt3__111__wrap_iterIPP4EdgeINS_12basic_stringIcNS_11char_traitsIcEENS_9allocatorIcEEEE13BitacoraLineaEEppB7v160006Ev, symObjAddr: 0x9374, symBinAddr: 0x10001A2C8, symSize: 0x20 }
  - { offsetInCU: 0x1C58F, offset: 0x3EB17, size: 0x8, addend: 0x0, symName: __ZNSt3__16vectorIP4EdgeINS_12basic_stringIcNS_11char_traitsIcEENS_9allocatorIcEEEE13BitacoraLineaENS5_ISA_EEE5clearB7v160006Ev, symObjAddr: 0x9394, symBinAddr: 0x10001A2E8, symSize: 0x68 }
  - { offsetInCU: 0x1C5C4, offset: 0x3EB4C, size: 0x8, addend: 0x0, symName: __ZNSt3__16vectorIP4EdgeINS_12basic_stringIcNS_11char_traitsIcEENS_9allocatorIcEEEE13BitacoraLineaENS5_ISA_EEED1B7v160006Ev, symObjAddr: 0x93FC, symBinAddr: 0x10001A350, symSize: 0x2C }
  - { offsetInCU: 0x1C5EE, offset: 0x3EB76, size: 0x8, addend: 0x0, symName: __ZNSt3__16vectorIP4EdgeINS_12basic_stringIcNS_11char_traitsIcEENS_9allocatorIcEEEE13BitacoraLineaENS5_ISA_EEE11__make_iterB7v160006EPSA_, symObjAddr: 0x9428, symBinAddr: 0x10001A37C, symSize: 0x34 }
  - { offsetInCU: 0x1C623, offset: 0x3EBAB, size: 0x8, addend: 0x0, symName: __ZNSt3__111__wrap_iterIPP4EdgeINS_12basic_stringIcNS_11char_traitsIcEENS_9allocatorIcEEEE13BitacoraLineaEEC1B7v160006EPKvSB_, symObjAddr: 0x945C, symBinAddr: 0x10001A3B0, symSize: 0x3C }
  - { offsetInCU: 0x1C669, offset: 0x3EBF1, size: 0x8, addend: 0x0, symName: __ZNSt3__111__wrap_iterIPP4EdgeINS_12basic_stringIcNS_11char_traitsIcEENS_9allocatorIcEEEE13BitacoraLineaEEC2B7v160006EPKvSB_, symObjAddr: 0x9498, symBinAddr: 0x10001A3EC, symSize: 0x24 }
  - { offsetInCU: 0x1C6AF, offset: 0x3EC37, size: 0x8, addend: 0x0, symName: __ZNKSt3__111__wrap_iterIPP4EdgeINS_12basic_stringIcNS_11char_traitsIcEENS_9allocatorIcEEEE13BitacoraLineaEE4baseB7v160006Ev, symObjAddr: 0x9504, symBinAddr: 0x10001A458, symSize: 0x18 }
  - { offsetInCU: 0x1C6D5, offset: 0x3EC5D, size: 0x8, addend: 0x0, symName: __ZN4EdgeINSt3__112basic_stringIcNS0_11char_traitsIcEENS0_9allocatorIcEEEE13BitacoraLineaED2Ev, symObjAddr: 0x951C, symBinAddr: 0x10001A470, symSize: 0x6C }
  - { offsetInCU: 0x1C700, offset: 0x3EC88, size: 0x8, addend: 0x0, symName: __ZNKSt3__16vectorIP4EdgeINS_12basic_stringIcNS_11char_traitsIcEENS_9allocatorIcEEEE13BitacoraLineaENS5_ISA_EEE4sizeB7v160006Ev, symObjAddr: 0x9588, symBinAddr: 0x10001A4DC, symSize: 0x28 }
  - { offsetInCU: 0x1C726, offset: 0x3ECAE, size: 0x8, addend: 0x0, symName: __ZNSt3__16vectorIP4EdgeINS_12basic_stringIcNS_11char_traitsIcEENS_9allocatorIcEEEE13BitacoraLineaENS5_ISA_EEE7__clearB7v160006Ev, symObjAddr: 0x95B0, symBinAddr: 0x10001A504, symSize: 0x28 }
  - { offsetInCU: 0x1C74C, offset: 0x3ECD4, size: 0x8, addend: 0x0, symName: __ZNKSt3__16vectorIP4EdgeINS_12basic_stringIcNS_11char_traitsIcEENS_9allocatorIcEEEE13BitacoraLineaENS5_ISA_EEE17__annotate_shrinkB7v160006Em, symObjAddr: 0x95D8, symBinAddr: 0x10001A52C, symSize: 0xB4 }
  - { offsetInCU: 0x1C781, offset: 0x3ED09, size: 0x8, addend: 0x0, symName: __ZNSt3__16vectorIP4EdgeINS_12basic_stringIcNS_11char_traitsIcEENS_9allocatorIcEEEE13BitacoraLineaENS5_ISA_EEE22__base_destruct_at_endB7v160006EPSA_, symObjAddr: 0x969C, symBinAddr: 0x10001A5F0, symSize: 0xA0 }
  - { offsetInCU: 0x1C7C5, offset: 0x3ED4D, size: 0x8, addend: 0x0, symName: __ZNSt3__116allocator_traitsINS_9allocatorIP4EdgeINS_12basic_stringIcNS_11char_traitsIcEENS1_IcEEEE13BitacoraLineaEEEE7destroyB7v160006ISA_vEEvRSB_PT_, symObjAddr: 0x973C, symBinAddr: 0x10001A690, symSize: 0x2C }
  - { offsetInCU: 0x1C802, offset: 0x3ED8A, size: 0x8, addend: 0x0, symName: __ZNSt3__16vectorIP4EdgeINS_12basic_stringIcNS_11char_traitsIcEENS_9allocatorIcEEEE13BitacoraLineaENS5_ISA_EEE7__allocB7v160006Ev, symObjAddr: 0x9768, symBinAddr: 0x10001A6BC, symSize: 0x28 }
  - { offsetInCU: 0x1C828, offset: 0x3EDB0, size: 0x8, addend: 0x0, symName: __ZNSt3__19allocatorIP4EdgeINS_12basic_stringIcNS_11char_traitsIcEENS0_IcEEEE13BitacoraLineaEE7destroyB7v160006EPS9_, symObjAddr: 0x97A4, symBinAddr: 0x10001A6F8, symSize: 0x14 }
  - { offsetInCU: 0x1C85C, offset: 0x3EDE4, size: 0x8, addend: 0x0, symName: __ZNSt3__117__compressed_pairIPP4EdgeINS_12basic_stringIcNS_11char_traitsIcEENS_9allocatorIcEEEE13BitacoraLineaENS5_ISA_EEE6secondB7v160006Ev, symObjAddr: 0x97B8, symBinAddr: 0x10001A70C, symSize: 0x24 }
  - { offsetInCU: 0x1C882, offset: 0x3EE0A, size: 0x8, addend: 0x0, symName: __ZNSt3__122__compressed_pair_elemINS_9allocatorIP4EdgeINS_12basic_stringIcNS_11char_traitsIcEENS1_IcEEEE13BitacoraLineaEEELi1ELb1EE5__getB7v160006Ev, symObjAddr: 0x97DC, symBinAddr: 0x10001A730, symSize: 0x14 }
  - { offsetInCU: 0x1C8A8, offset: 0x3EE30, size: 0x8, addend: 0x0, symName: __ZNKSt3__16vectorIP4EdgeINS_12basic_stringIcNS_11char_traitsIcEENS_9allocatorIcEEEE13BitacoraLineaENS5_ISA_EEE31__annotate_contiguous_containerB7v160006EPKvSE_SE_SE_, symObjAddr: 0x97F0, symBinAddr: 0x10001A744, symSize: 0x20 }
  - { offsetInCU: 0x1C8FE, offset: 0x3EE86, size: 0x8, addend: 0x0, symName: __ZNKSt3__16vectorIP4EdgeINS_12basic_stringIcNS_11char_traitsIcEENS_9allocatorIcEEEE13BitacoraLineaENS5_ISA_EEE4dataB7v160006Ev, symObjAddr: 0x9810, symBinAddr: 0x10001A764, symSize: 0x28 }
  - { offsetInCU: 0x1C924, offset: 0x3EEAC, size: 0x8, addend: 0x0, symName: __ZNKSt3__16vectorIP4EdgeINS_12basic_stringIcNS_11char_traitsIcEENS_9allocatorIcEEEE13BitacoraLineaENS5_ISA_EEE8capacityB7v160006Ev, symObjAddr: 0x9838, symBinAddr: 0x10001A78C, symSize: 0x40 }
  - { offsetInCU: 0x1C94A, offset: 0x3EED2, size: 0x8, addend: 0x0, symName: __ZNKSt3__16vectorIP4EdgeINS_12basic_stringIcNS_11char_traitsIcEENS_9allocatorIcEEEE13BitacoraLineaENS5_ISA_EEE9__end_capB7v160006Ev, symObjAddr: 0x9878, symBinAddr: 0x10001A7CC, symSize: 0x28 }
  - { offsetInCU: 0x1C970, offset: 0x3EEF8, size: 0x8, addend: 0x0, symName: __ZNKSt3__117__compressed_pairIPP4EdgeINS_12basic_stringIcNS_11char_traitsIcEENS_9allocatorIcEEEE13BitacoraLineaENS5_ISA_EEE5firstB7v160006Ev, symObjAddr: 0x98A0, symBinAddr: 0x10001A7F4, symSize: 0x24 }
  - { offsetInCU: 0x1C996, offset: 0x3EF1E, size: 0x8, addend: 0x0, symName: __ZNKSt3__122__compressed_pair_elemIPP4EdgeINS_12basic_stringIcNS_11char_traitsIcEENS_9allocatorIcEEEE13BitacoraLineaELi0ELb0EE5__getB7v160006Ev, symObjAddr: 0x98C4, symBinAddr: 0x10001A818, symSize: 0x14 }
  - { offsetInCU: 0x1C9BC, offset: 0x3EF44, size: 0x8, addend: 0x0, symName: __ZNSt3__16vectorIP4EdgeINS_12basic_stringIcNS_11char_traitsIcEENS_9allocatorIcEEEE13BitacoraLineaENS5_ISA_EEED2B7v160006Ev, symObjAddr: 0x98D8, symBinAddr: 0x10001A82C, symSize: 0x3C }
  - { offsetInCU: 0x1C9E6, offset: 0x3EF6E, size: 0x8, addend: 0x0, symName: __ZNSt3__16vectorIP4EdgeINS_12basic_stringIcNS_11char_traitsIcEENS_9allocatorIcEEEE13BitacoraLineaENS5_ISA_EEE16__destroy_vectorC1ERSC_, symObjAddr: 0x9914, symBinAddr: 0x10001A868, symSize: 0x34 }
  - { offsetInCU: 0x1CA1F, offset: 0x3EFA7, size: 0x8, addend: 0x0, symName: __ZNSt3__16vectorIP4EdgeINS_12basic_stringIcNS_11char_traitsIcEENS_9allocatorIcEEEE13BitacoraLineaENS5_ISA_EEE16__destroy_vectorclB7v160006Ev, symObjAddr: 0x9948, symBinAddr: 0x10001A89C, symSize: 0x9C }
  - { offsetInCU: 0x1CA45, offset: 0x3EFCD, size: 0x8, addend: 0x0, symName: __ZNSt3__16vectorIP4EdgeINS_12basic_stringIcNS_11char_traitsIcEENS_9allocatorIcEEEE13BitacoraLineaENS5_ISA_EEE16__destroy_vectorC2ERSC_, symObjAddr: 0x99E4, symBinAddr: 0x10001A938, symSize: 0x20 }
  - { offsetInCU: 0x1CA7E, offset: 0x3F006, size: 0x8, addend: 0x0, symName: __ZNKSt3__16vectorIP4EdgeINS_12basic_stringIcNS_11char_traitsIcEENS_9allocatorIcEEEE13BitacoraLineaENS5_ISA_EEE17__annotate_deleteB7v160006Ev, symObjAddr: 0x9A04, symBinAddr: 0x10001A958, symSize: 0xB8 }
  - { offsetInCU: 0x1CAA4, offset: 0x3F02C, size: 0x8, addend: 0x0, symName: __ZNSt3__116allocator_traitsINS_9allocatorIP4EdgeINS_12basic_stringIcNS_11char_traitsIcEENS1_IcEEEE13BitacoraLineaEEEE10deallocateB7v160006ERSB_PSA_m, symObjAddr: 0x9ACC, symBinAddr: 0x10001AA20, symSize: 0x34 }
  - { offsetInCU: 0x1CAE6, offset: 0x3F06E, size: 0x8, addend: 0x0, symName: __ZNSt3__19allocatorIP4EdgeINS_12basic_stringIcNS_11char_traitsIcEENS0_IcEEEE13BitacoraLineaEE10deallocateB7v160006EPS9_m, symObjAddr: 0x9B00, symBinAddr: 0x10001AA54, symSize: 0x70 }
  - { offsetInCU: 0x1CB28, offset: 0x3F0B0, size: 0x8, addend: 0x0, symName: __ZNKSt3__16vectorIP6VertexINS_12basic_stringIcNS_11char_traitsIcEENS_9allocatorIcEEEE13BitacoraLineaENS5_ISA_EEE4sizeB7v160006Ev, symObjAddr: 0x9B70, symBinAddr: 0x10001AAC4, symSize: 0x28 }
  - { offsetInCU: 0x1CB4E, offset: 0x3F0D6, size: 0x8, addend: 0x0, symName: __ZNSt3__16vectorIP6VertexINS_12basic_stringIcNS_11char_traitsIcEENS_9allocatorIcEEEE13BitacoraLineaENS5_ISA_EEE7__clearB7v160006Ev, symObjAddr: 0x9B98, symBinAddr: 0x10001AAEC, symSize: 0x28 }
  - { offsetInCU: 0x1CB74, offset: 0x3F0FC, size: 0x8, addend: 0x0, symName: __ZNKSt3__16vectorIP6VertexINS_12basic_stringIcNS_11char_traitsIcEENS_9allocatorIcEEEE13BitacoraLineaENS5_ISA_EEE17__annotate_shrinkB7v160006Em, symObjAddr: 0x9BC0, symBinAddr: 0x10001AB14, symSize: 0xB4 }
  - { offsetInCU: 0x1CBA9, offset: 0x3F131, size: 0x8, addend: 0x0, symName: __ZNSt3__16vectorIP6VertexINS_12basic_stringIcNS_11char_traitsIcEENS_9allocatorIcEEEE13BitacoraLineaENS5_ISA_EEE22__base_destruct_at_endB7v160006EPSA_, symObjAddr: 0x9C84, symBinAddr: 0x10001ABD8, symSize: 0xA0 }
  - { offsetInCU: 0x1CBED, offset: 0x3F175, size: 0x8, addend: 0x0, symName: __ZNSt3__116allocator_traitsINS_9allocatorIP6VertexINS_12basic_stringIcNS_11char_traitsIcEENS1_IcEEEE13BitacoraLineaEEEE7destroyB7v160006ISA_vEEvRSB_PT_, symObjAddr: 0x9D24, symBinAddr: 0x10001AC78, symSize: 0x2C }
  - { offsetInCU: 0x1CC2A, offset: 0x3F1B2, size: 0x8, addend: 0x0, symName: __ZNSt3__16vectorIP6VertexINS_12basic_stringIcNS_11char_traitsIcEENS_9allocatorIcEEEE13BitacoraLineaENS5_ISA_EEE7__allocB7v160006Ev, symObjAddr: 0x9D50, symBinAddr: 0x10001ACA4, symSize: 0x28 }
  - { offsetInCU: 0x1CC50, offset: 0x3F1D8, size: 0x8, addend: 0x0, symName: __ZNSt3__19allocatorIP6VertexINS_12basic_stringIcNS_11char_traitsIcEENS0_IcEEEE13BitacoraLineaEE7destroyB7v160006EPS9_, symObjAddr: 0x9D8C, symBinAddr: 0x10001ACE0, symSize: 0x14 }
  - { offsetInCU: 0x1CC84, offset: 0x3F20C, size: 0x8, addend: 0x0, symName: __ZNSt3__117__compressed_pairIPP6VertexINS_12basic_stringIcNS_11char_traitsIcEENS_9allocatorIcEEEE13BitacoraLineaENS5_ISA_EEE6secondB7v160006Ev, symObjAddr: 0x9DA0, symBinAddr: 0x10001ACF4, symSize: 0x24 }
  - { offsetInCU: 0x1CCAA, offset: 0x3F232, size: 0x8, addend: 0x0, symName: __ZNSt3__122__compressed_pair_elemINS_9allocatorIP6VertexINS_12basic_stringIcNS_11char_traitsIcEENS1_IcEEEE13BitacoraLineaEEELi1ELb1EE5__getB7v160006Ev, symObjAddr: 0x9DC4, symBinAddr: 0x10001AD18, symSize: 0x14 }
  - { offsetInCU: 0x1CCD0, offset: 0x3F258, size: 0x8, addend: 0x0, symName: __ZNKSt3__16vectorIP6VertexINS_12basic_stringIcNS_11char_traitsIcEENS_9allocatorIcEEEE13BitacoraLineaENS5_ISA_EEE31__annotate_contiguous_containerB7v160006EPKvSE_SE_SE_, symObjAddr: 0x9DD8, symBinAddr: 0x10001AD2C, symSize: 0x20 }
  - { offsetInCU: 0x1CD26, offset: 0x3F2AE, size: 0x8, addend: 0x0, symName: __ZNKSt3__16vectorIP6VertexINS_12basic_stringIcNS_11char_traitsIcEENS_9allocatorIcEEEE13BitacoraLineaENS5_ISA_EEE4dataB7v160006Ev, symObjAddr: 0x9DF8, symBinAddr: 0x10001AD4C, symSize: 0x28 }
  - { offsetInCU: 0x1CD4C, offset: 0x3F2D4, size: 0x8, addend: 0x0, symName: __ZNKSt3__16vectorIP6VertexINS_12basic_stringIcNS_11char_traitsIcEENS_9allocatorIcEEEE13BitacoraLineaENS5_ISA_EEE8capacityB7v160006Ev, symObjAddr: 0x9E20, symBinAddr: 0x10001AD74, symSize: 0x40 }
  - { offsetInCU: 0x1CD72, offset: 0x3F2FA, size: 0x8, addend: 0x0, symName: __ZNKSt3__16vectorIP6VertexINS_12basic_stringIcNS_11char_traitsIcEENS_9allocatorIcEEEE13BitacoraLineaENS5_ISA_EEE9__end_capB7v160006Ev, symObjAddr: 0x9E60, symBinAddr: 0x10001ADB4, symSize: 0x28 }
  - { offsetInCU: 0x1CD98, offset: 0x3F320, size: 0x8, addend: 0x0, symName: __ZNKSt3__117__compressed_pairIPP6VertexINS_12basic_stringIcNS_11char_traitsIcEENS_9allocatorIcEEEE13BitacoraLineaENS5_ISA_EEE5firstB7v160006Ev, symObjAddr: 0x9E88, symBinAddr: 0x10001ADDC, symSize: 0x24 }
  - { offsetInCU: 0x1CDBE, offset: 0x3F346, size: 0x8, addend: 0x0, symName: __ZNKSt3__122__compressed_pair_elemIPP6VertexINS_12basic_stringIcNS_11char_traitsIcEENS_9allocatorIcEEEE13BitacoraLineaELi0ELb0EE5__getB7v160006Ev, symObjAddr: 0x9EAC, symBinAddr: 0x10001AE00, symSize: 0x14 }
  - { offsetInCU: 0x1CDE4, offset: 0x3F36C, size: 0x8, addend: 0x0, symName: __ZNSt3__16vectorIP6VertexINS_12basic_stringIcNS_11char_traitsIcEENS_9allocatorIcEEEE13BitacoraLineaENS5_ISA_EEED2B7v160006Ev, symObjAddr: 0x9EC0, symBinAddr: 0x10001AE14, symSize: 0x3C }
  - { offsetInCU: 0x1CE0E, offset: 0x3F396, size: 0x8, addend: 0x0, symName: __ZNSt3__16vectorIP6VertexINS_12basic_stringIcNS_11char_traitsIcEENS_9allocatorIcEEEE13BitacoraLineaENS5_ISA_EEE16__destroy_vectorC1ERSC_, symObjAddr: 0x9EFC, symBinAddr: 0x10001AE50, symSize: 0x34 }
  - { offsetInCU: 0x1CE47, offset: 0x3F3CF, size: 0x8, addend: 0x0, symName: __ZNSt3__16vectorIP6VertexINS_12basic_stringIcNS_11char_traitsIcEENS_9allocatorIcEEEE13BitacoraLineaENS5_ISA_EEE16__destroy_vectorclB7v160006Ev, symObjAddr: 0x9F30, symBinAddr: 0x10001AE84, symSize: 0x9C }
  - { offsetInCU: 0x1CE6D, offset: 0x3F3F5, size: 0x8, addend: 0x0, symName: __ZNSt3__16vectorIP6VertexINS_12basic_stringIcNS_11char_traitsIcEENS_9allocatorIcEEEE13BitacoraLineaENS5_ISA_EEE16__destroy_vectorC2ERSC_, symObjAddr: 0x9FCC, symBinAddr: 0x10001AF20, symSize: 0x20 }
  - { offsetInCU: 0x1CEA6, offset: 0x3F42E, size: 0x8, addend: 0x0, symName: __ZNKSt3__16vectorIP6VertexINS_12basic_stringIcNS_11char_traitsIcEENS_9allocatorIcEEEE13BitacoraLineaENS5_ISA_EEE17__annotate_deleteB7v160006Ev, symObjAddr: 0x9FEC, symBinAddr: 0x10001AF40, symSize: 0xB8 }
  - { offsetInCU: 0x1CECC, offset: 0x3F454, size: 0x8, addend: 0x0, symName: __ZNSt3__116allocator_traitsINS_9allocatorIP6VertexINS_12basic_stringIcNS_11char_traitsIcEENS1_IcEEEE13BitacoraLineaEEEE10deallocateB7v160006ERSB_PSA_m, symObjAddr: 0xA0B4, symBinAddr: 0x10001B008, symSize: 0x34 }
  - { offsetInCU: 0x1CF0E, offset: 0x3F496, size: 0x8, addend: 0x0, symName: __ZNSt3__19allocatorIP6VertexINS_12basic_stringIcNS_11char_traitsIcEENS0_IcEEEE13BitacoraLineaEE10deallocateB7v160006EPS9_m, symObjAddr: 0xA0E8, symBinAddr: 0x10001B03C, symSize: 0x70 }
  - { offsetInCU: 0x1CF50, offset: 0x3F4D8, size: 0x8, addend: 0x0, symName: __ZNSt3__16vectorI13BitacoraLineaNS_9allocatorIS1_EEE5beginB7v160006Ev, symObjAddr: 0xA158, symBinAddr: 0x10001B0AC, symSize: 0x30 }
  - { offsetInCU: 0x1CF77, offset: 0x3F4FF, size: 0x8, addend: 0x0, symName: __ZNSt3__16vectorI13BitacoraLineaNS_9allocatorIS1_EEE3endB7v160006Ev, symObjAddr: 0xA188, symBinAddr: 0x10001B0DC, symSize: 0x30 }
  - { offsetInCU: 0x1CF9E, offset: 0x3F526, size: 0x8, addend: 0x0, symName: __ZNKSt3__111__wrap_iterIP13BitacoraLineaEdeB7v160006Ev, symObjAddr: 0xA1EC, symBinAddr: 0x10001B140, symSize: 0x18 }
  - { offsetInCU: 0x1CFC4, offset: 0x3F54C, size: 0x8, addend: 0x0, symName: __ZN10LinkedListI13BitacoraLineaE11insert_backERKS0_, symObjAddr: 0xA204, symBinAddr: 0x10001B158, symSize: 0x30 }
  - { offsetInCU: 0x1CFF9, offset: 0x3F581, size: 0x8, addend: 0x0, symName: __ZN5StackI13BitacoraLineaE4pushERKS0_, symObjAddr: 0xA234, symBinAddr: 0x10001B188, symSize: 0x2C }
  - { offsetInCU: 0x1D02E, offset: 0x3F5B6, size: 0x8, addend: 0x0, symName: __ZNSt3__111__wrap_iterIP13BitacoraLineaEppB7v160006Ev, symObjAddr: 0xA260, symBinAddr: 0x10001B1B4, symSize: 0x20 }
  - { offsetInCU: 0x1D054, offset: 0x3F5DC, size: 0x8, addend: 0x0, symName: __ZNSt3__16vectorI13BitacoraLineaNS_9allocatorIS1_EEE11__make_iterB7v160006EPS1_, symObjAddr: 0xA280, symBinAddr: 0x10001B1D4, symSize: 0x34 }
  - { offsetInCU: 0x1D089, offset: 0x3F611, size: 0x8, addend: 0x0, symName: __ZNSt3__111__wrap_iterIP13BitacoraLineaEC1B7v160006EPKvS2_, symObjAddr: 0xA2B4, symBinAddr: 0x10001B208, symSize: 0x3C }
  - { offsetInCU: 0x1D0CF, offset: 0x3F657, size: 0x8, addend: 0x0, symName: __ZNSt3__111__wrap_iterIP13BitacoraLineaEC2B7v160006EPKvS2_, symObjAddr: 0xA2F0, symBinAddr: 0x10001B244, symSize: 0x24 }
  - { offsetInCU: 0x1D115, offset: 0x3F69D, size: 0x8, addend: 0x0, symName: __ZNKSt3__111__wrap_iterIP13BitacoraLineaE4baseB7v160006Ev, symObjAddr: 0xA35C, symBinAddr: 0x10001B2B0, symSize: 0x18 }
  - { offsetInCU: 0x1D13B, offset: 0x3F6C3, size: 0x8, addend: 0x0, symName: __ZN10LinkedListI13BitacoraLineaE6insertERKS0_i, symObjAddr: 0xA374, symBinAddr: 0x10001B2C8, symSize: 0x80 }
  - { offsetInCU: 0x1D18C, offset: 0x3F714, size: 0x8, addend: 0x0, symName: __ZN4NodeI13BitacoraLineaEC1ERKS0_, symObjAddr: 0xA3F4, symBinAddr: 0x10001B348, symSize: 0x34 }
  - { offsetInCU: 0x1D1C4, offset: 0x3F74C, size: 0x8, addend: 0x0, symName: __ZN10LinkedListI13BitacoraLineaE6insertEP4NodeIS0_Ei, symObjAddr: 0xA428, symBinAddr: 0x10001B37C, symSize: 0xE8 }
  - { offsetInCU: 0x1D224, offset: 0x3F7AC, size: 0x8, addend: 0x0, symName: __ZN4NodeI13BitacoraLineaEC2ERKS0_, symObjAddr: 0xA510, symBinAddr: 0x10001B464, symSize: 0x4C }
  - { offsetInCU: 0x1D25C, offset: 0x3F7E4, size: 0x8, addend: 0x0, symName: __ZN4NodeI13BitacoraLineaED1Ev, symObjAddr: 0xA55C, symBinAddr: 0x10001B4B0, symSize: 0x2C }
  - { offsetInCU: 0x1D287, offset: 0x3F80F, size: 0x8, addend: 0x0, symName: __ZN4NodeI13BitacoraLineaED0Ev, symObjAddr: 0xA588, symBinAddr: 0x10001B4DC, symSize: 0x58 }
  - { offsetInCU: 0x1D2B2, offset: 0x3F83A, size: 0x8, addend: 0x0, symName: __ZN4NodeI13BitacoraLineaED2Ev, symObjAddr: 0xA5E0, symBinAddr: 0x10001B534, symSize: 0x80 }
  - { offsetInCU: 0x1D2DD, offset: 0x3F865, size: 0x8, addend: 0x0, symName: __ZNK10LinkedListI13BitacoraLineaE2atEi, symObjAddr: 0xA660, symBinAddr: 0x10001B5B4, symSize: 0xE8 }
  - { offsetInCU: 0x1D330, offset: 0x3F8B8, size: 0x8, addend: 0x0, symName: __ZN10LinkedListI13BitacoraLineaE12insert_frontERKS0_, symObjAddr: 0xA748, symBinAddr: 0x10001B69C, symSize: 0x30 }
  - { offsetInCU: 0x1D3F2, offset: 0x3F97A, size: 0x8, addend: 0x0, symName: __ZNSt3__115basic_streambufIcNS_11char_traitsIcEEE5sgetcB7v160006Ev, symObjAddr: 0xA8F0, symBinAddr: 0x10001B6CC, symSize: 0x70 }
  - { offsetInCU: 0x1D418, offset: 0x3F9A0, size: 0x8, addend: 0x0, symName: __ZNKSt3__15ctypeIcE2isB7v160006Ejc, symObjAddr: 0xA978, symBinAddr: 0x10001B73C, symSize: 0x7C }
  - { offsetInCU: 0x1D45B, offset: 0x3F9E3, size: 0x8, addend: 0x0, symName: __Z7isasciii, symObjAddr: 0xAC98, symBinAddr: 0x10001B7B8, symSize: 0x24 }
  - { offsetInCU: 0x1D488, offset: 0x3FA10, size: 0x8, addend: 0x0, symName: __ZNSt3__116allocator_traitsINS_9allocatorIcEEE37select_on_container_copy_constructionB7v160006IS2_vvEES2_RKS2_, symObjAddr: 0xACD4, symBinAddr: 0x10001B7DC, symSize: 0x10 }
  - { offsetInCU: 0x1D4B7, offset: 0x3FA3F, size: 0x8, addend: 0x0, symName: __ZNSt3__112basic_stringIcNS_11char_traitsIcEENS_9allocatorIcEEEC1B7v160006ENS_24__uninitialized_size_tagEmRKS4_, symObjAddr: 0xAD08, symBinAddr: 0x10001B7EC, symSize: 0x3C }
  - { offsetInCU: 0x1D50B, offset: 0x3FA93, size: 0x8, addend: 0x0, symName: __ZNSt3__112basic_stringIcNS_11char_traitsIcEENS_9allocatorIcEEE13__get_pointerB7v160006Ev, symObjAddr: 0xAD58, symBinAddr: 0x10001B83C, symSize: 0x54 }
  - { offsetInCU: 0x1D531, offset: 0x3FAB9, size: 0x8, addend: 0x0, symName: __ZNSt3__111char_traitsIcE4copyEPcPKcm, symObjAddr: 0xADAC, symBinAddr: 0x10001B890, symSize: 0x80 }
  - { offsetInCU: 0x1D570, offset: 0x3FAF8, size: 0x8, addend: 0x0, symName: __ZNSt3__111char_traitsIcE6assignEPcmc, symObjAddr: 0xAE2C, symBinAddr: 0x10001B910, symSize: 0x58 }
  - { offsetInCU: 0x1D5AF, offset: 0x3FB37, size: 0x8, addend: 0x0, symName: __ZNSt3__112basic_stringIcNS_11char_traitsIcEENS_9allocatorIcEEEC2B7v160006ENS_24__uninitialized_size_tagEmRKS4_, symObjAddr: 0xAE84, symBinAddr: 0x10001B968, symSize: 0x118 }
  - { offsetInCU: 0x1D630, offset: 0x3FBB8, size: 0x8, addend: 0x0, symName: __ZNKSt3__112basic_stringIcNS_11char_traitsIcEENS_9allocatorIcEEE20__throw_length_errorB7v160006Ev, symObjAddr: 0xAFD8, symBinAddr: 0x10001BA80, symSize: 0x1C }
  - { offsetInCU: 0x1D656, offset: 0x3FBDE, size: 0x8, addend: 0x0, symName: __ZNSt3__112basic_stringIcNS_11char_traitsIcEENS_9allocatorIcEEE13__fits_in_ssoB7v160006Em, symObjAddr: 0xAFF4, symBinAddr: 0x10001BA9C, symSize: 0x4C }
  - { offsetInCU: 0x1D6B1, offset: 0x3FC39, size: 0x8, addend: 0x0, symName: __ZNKSt3__114__copy_trivialclB7v160006IKccLi0EEENS_4pairIPT_PT0_EES5_S5_S7_, symObjAddr: 0xB3AC, symBinAddr: 0x10001BD18, symSize: 0x48 }
  - { offsetInCU: 0x1D732, offset: 0x3FCBA, size: 0x8, addend: 0x0, symName: __ZNSt3__14pairIPKcS2_EC1B7v160006ERKS2_S5_, symObjAddr: 0xB528, symBinAddr: 0x10001BE94, symSize: 0x3C }
  - { offsetInCU: 0x1D778, offset: 0x3FD00, size: 0x8, addend: 0x0, symName: __ZNSt3__14pairIPKcS2_EC2B7v160006ERKS2_S5_, symObjAddr: 0xB564, symBinAddr: 0x10001BED0, symSize: 0x34 }
  - { offsetInCU: 0x1D7BE, offset: 0x3FD46, size: 0x8, addend: 0x0, symName: __ZNSt3__118__unwrap_iter_implIPKcLb1EE8__unwrapB7v160006ES2_, symObjAddr: 0xB598, symBinAddr: 0x10001BF04, symSize: 0x24 }
  - { offsetInCU: 0x1D7E1, offset: 0x3FD69, size: 0x8, addend: 0x0, symName: __ZNSt3__14pairIPKcPcEC1B7v160006ERKS2_RKS3_, symObjAddr: 0xB670, symBinAddr: 0x10001BFDC, symSize: 0x3C }
  - { offsetInCU: 0x1D827, offset: 0x3FDAF, size: 0x8, addend: 0x0, symName: __ZNSt3__14pairIPKcPcEC2B7v160006ERKS2_RKS3_, symObjAddr: 0xB6AC, symBinAddr: 0x10001C018, symSize: 0x34 }
  - { offsetInCU: 0x1D86D, offset: 0x3FDF5, size: 0x8, addend: 0x0, symName: __ZNSt3__118__unwrap_iter_implIPcLb1EE8__unwrapB7v160006ES1_, symObjAddr: 0xB6E0, symBinAddr: 0x10001C04C, symSize: 0x24 }
  - { offsetInCU: 0x1D890, offset: 0x3FE18, size: 0x8, addend: 0x0, symName: __ZNSt3__118__unwrap_iter_implIPKcLb1EE8__rewrapB7v160006ES2_S2_, symObjAddr: 0xB754, symBinAddr: 0x10001C0C0, symSize: 0x48 }
  - { offsetInCU: 0x1D8C1, offset: 0x3FE49, size: 0x8, addend: 0x0, symName: __ZNSt3__118__unwrap_iter_implIPcLb1EE8__rewrapB7v160006ES1_S1_, symObjAddr: 0xB79C, symBinAddr: 0x10001C108, symSize: 0x48 }
  - { offsetInCU: 0x1D8F2, offset: 0x3FE7A, size: 0x8, addend: 0x0, symName: __ZNSt3__13mapINS_12basic_stringIcNS_11char_traitsIcEENS_9allocatorIcEEEEiNS_4lessIS6_EENS4_INS_4pairIKS6_iEEEEEC1B7v160006Ev, symObjAddr: 0xB8A0, symBinAddr: 0x10001C20C, symSize: 0x2C }
  - { offsetInCU: 0x1D91C, offset: 0x3FEA4, size: 0x8, addend: 0x0, symName: __ZNK5StackI13BitacoraLineaE3topEv, symObjAddr: 0xB8CC, symBinAddr: 0x10001C238, symSize: 0x24 }
  - { offsetInCU: 0x1D943, offset: 0x3FECB, size: 0x8, addend: 0x0, symName: __ZNSt3__13mapINS_12basic_stringIcNS_11char_traitsIcEENS_9allocatorIcEEEEiNS_4lessIS6_EENS4_INS_4pairIKS6_iEEEEEixERSA_, symObjAddr: 0xB924, symBinAddr: 0x10001C25C, symSize: 0xC8 }
  - { offsetInCU: 0x1D9BB, offset: 0x3FF43, size: 0x8, addend: 0x0, symName: __ZNSt3__13mapINS_12basic_stringIcNS_11char_traitsIcEENS_9allocatorIcEEEEiNS_4lessIS6_EENS4_INS_4pairIKS6_iEEEEEC2B7v160006Ev, symObjAddr: 0xB9EC, symBinAddr: 0x10001C324, symSize: 0x40 }
  - { offsetInCU: 0x1D9E5, offset: 0x3FF6D, size: 0x8, addend: 0x0, symName: __ZNSt3__119__map_value_compareINS_12basic_stringIcNS_11char_traitsIcEENS_9allocatorIcEEEENS_12__value_typeIS6_iEENS_4lessIS6_EELb1EEC1B7v160006ESA_, symObjAddr: 0xBA2C, symBinAddr: 0x10001C364, symSize: 0x2C }
  - { offsetInCU: 0x1DA1E, offset: 0x3FFA6, size: 0x8, addend: 0x0, symName: __ZNSt3__16__treeINS_12__value_typeINS_12basic_stringIcNS_11char_traitsIcEENS_9allocatorIcEEEEiEENS_19__map_value_compareIS7_S8_NS_4lessIS7_EELb1EEENS5_IS8_EEEC1ERKSC_, symObjAddr: 0xBA58, symBinAddr: 0x10001C390, symSize: 0x34 }
  - { offsetInCU: 0x1DA59, offset: 0x3FFE1, size: 0x8, addend: 0x0, symName: __ZNSt3__119__map_value_compareINS_12basic_stringIcNS_11char_traitsIcEENS_9allocatorIcEEEENS_12__value_typeIS6_iEENS_4lessIS6_EELb1EEC2B7v160006ESA_, symObjAddr: 0xBA8C, symBinAddr: 0x10001C3C4, symSize: 0x14 }
  - { offsetInCU: 0x1DA92, offset: 0x4001A, size: 0x8, addend: 0x0, symName: __ZNSt3__16__treeINS_12__value_typeINS_12basic_stringIcNS_11char_traitsIcEENS_9allocatorIcEEEEiEENS_19__map_value_compareIS7_S8_NS_4lessIS7_EELb1EEENS5_IS8_EEEC2ERKSC_, symObjAddr: 0xBAA0, symBinAddr: 0x10001C3D8, symSize: 0x70 }
  - { offsetInCU: 0x1DACD, offset: 0x40055, size: 0x8, addend: 0x0, symName: __ZNSt3__117__compressed_pairINS_15__tree_end_nodeIPNS_16__tree_node_baseIPvEEEENS_9allocatorINS_11__tree_nodeINS_12__value_typeINS_12basic_stringIcNS_11char_traitsIcEENS7_IcEEEEiEES3_EEEEEC1B7v160006ILb1EvEEv, symObjAddr: 0xBB10, symBinAddr: 0x10001C448, symSize: 0x2C }
  - { offsetInCU: 0x1DB07, offset: 0x4008F, size: 0x8, addend: 0x0, symName: __ZNSt3__117__compressed_pairImNS_19__map_value_compareINS_12basic_stringIcNS_11char_traitsIcEENS_9allocatorIcEEEENS_12__value_typeIS7_iEENS_4lessIS7_EELb1EEEEC1B7v160006IiRKSC_EEOT_OT0_, symObjAddr: 0xBB3C, symBinAddr: 0x10001C474, symSize: 0x3C }
  - { offsetInCU: 0x1DB5F, offset: 0x400E7, size: 0x8, addend: 0x0, symName: __ZNSt3__16__treeINS_12__value_typeINS_12basic_stringIcNS_11char_traitsIcEENS_9allocatorIcEEEEiEENS_19__map_value_compareIS7_S8_NS_4lessIS7_EELb1EEENS5_IS8_EEE10__end_nodeB7v160006Ev, symObjAddr: 0xBB78, symBinAddr: 0x10001C4B0, symSize: 0x2C }
  - { offsetInCU: 0x1DB85, offset: 0x4010D, size: 0x8, addend: 0x0, symName: __ZNSt3__16__treeINS_12__value_typeINS_12basic_stringIcNS_11char_traitsIcEENS_9allocatorIcEEEEiEENS_19__map_value_compareIS7_S8_NS_4lessIS7_EELb1EEENS5_IS8_EEE12__begin_nodeB7v160006Ev, symObjAddr: 0xBBA4, symBinAddr: 0x10001C4DC, symSize: 0x14 }
  - { offsetInCU: 0x1DBAB, offset: 0x40133, size: 0x8, addend: 0x0, symName: __ZNSt3__117__compressed_pairINS_15__tree_end_nodeIPNS_16__tree_node_baseIPvEEEENS_9allocatorINS_11__tree_nodeINS_12__value_typeINS_12basic_stringIcNS_11char_traitsIcEENS7_IcEEEEiEES3_EEEEEC2B7v160006ILb1EvEEv, symObjAddr: 0xBBB8, symBinAddr: 0x10001C4F0, symSize: 0x34 }
  - { offsetInCU: 0x1DBE0, offset: 0x40168, size: 0x8, addend: 0x0, symName: __ZNSt3__122__compressed_pair_elemINS_15__tree_end_nodeIPNS_16__tree_node_baseIPvEEEELi0ELb0EEC2B7v160006ENS_16__value_init_tagE, symObjAddr: 0xBBEC, symBinAddr: 0x10001C524, symSize: 0x2C }
  - { offsetInCU: 0x1DC15, offset: 0x4019D, size: 0x8, addend: 0x0, symName: __ZNSt3__122__compressed_pair_elemINS_9allocatorINS_11__tree_nodeINS_12__value_typeINS_12basic_stringIcNS_11char_traitsIcEENS1_IcEEEEiEEPvEEEELi1ELb1EEC2B7v160006ENS_16__value_init_tagE, symObjAddr: 0xBC18, symBinAddr: 0x10001C550, symSize: 0x2C }
  - { offsetInCU: 0x1DC4A, offset: 0x401D2, size: 0x8, addend: 0x0, symName: __ZNSt3__115__tree_end_nodeIPNS_16__tree_node_baseIPvEEEC1B7v160006Ev, symObjAddr: 0xBC44, symBinAddr: 0x10001C57C, symSize: 0x2C }
  - { offsetInCU: 0x1DC74, offset: 0x401FC, size: 0x8, addend: 0x0, symName: __ZNSt3__115__tree_end_nodeIPNS_16__tree_node_baseIPvEEEC2B7v160006Ev, symObjAddr: 0xBC70, symBinAddr: 0x10001C5A8, symSize: 0x18 }
  - { offsetInCU: 0x1DC9E, offset: 0x40226, size: 0x8, addend: 0x0, symName: __ZNSt3__19allocatorINS_11__tree_nodeINS_12__value_typeINS_12basic_stringIcNS_11char_traitsIcEENS0_IcEEEEiEEPvEEEC2B7v160006Ev, symObjAddr: 0xBC88, symBinAddr: 0x10001C5C0, symSize: 0x2C }
  - { offsetInCU: 0x1DCC8, offset: 0x40250, size: 0x8, addend: 0x0, symName: __ZNSt3__116__non_trivial_ifILb1ENS_9allocatorINS_11__tree_nodeINS_12__value_typeINS_12basic_stringIcNS_11char_traitsIcEENS1_IcEEEEiEEPvEEEEEC2B7v160006Ev, symObjAddr: 0xBCB4, symBinAddr: 0x10001C5EC, symSize: 0x14 }
  - { offsetInCU: 0x1DCF2, offset: 0x4027A, size: 0x8, addend: 0x0, symName: __ZNSt3__117__compressed_pairImNS_19__map_value_compareINS_12basic_stringIcNS_11char_traitsIcEENS_9allocatorIcEEEENS_12__value_typeIS7_iEENS_4lessIS7_EELb1EEEEC2B7v160006IiRKSC_EEOT_OT0_, symObjAddr: 0xBCC8, symBinAddr: 0x10001C600, symSize: 0x44 }
  - { offsetInCU: 0x1DD4A, offset: 0x402D2, size: 0x8, addend: 0x0, symName: __ZNSt3__122__compressed_pair_elemINS_19__map_value_compareINS_12basic_stringIcNS_11char_traitsIcEENS_9allocatorIcEEEENS_12__value_typeIS7_iEENS_4lessIS7_EELb1EEELi1ELb1EEC2B7v160006IRKSC_vEEOT_, symObjAddr: 0xBD30, symBinAddr: 0x10001C644, symSize: 0x18 }
  - { offsetInCU: 0x1DD8C, offset: 0x40314, size: 0x8, addend: 0x0, symName: __ZNSt3__114pointer_traitsIPNS_15__tree_end_nodeIPNS_16__tree_node_baseIPvEEEEE10pointer_toB7v160006ERS6_, symObjAddr: 0xBD48, symBinAddr: 0x10001C65C, symSize: 0x14 }
  - { offsetInCU: 0x1DDAF, offset: 0x40337, size: 0x8, addend: 0x0, symName: __ZNSt3__117__compressed_pairINS_15__tree_end_nodeIPNS_16__tree_node_baseIPvEEEENS_9allocatorINS_11__tree_nodeINS_12__value_typeINS_12basic_stringIcNS_11char_traitsIcEENS7_IcEEEEiEES3_EEEEE5firstB7v160006Ev, symObjAddr: 0xBD5C, symBinAddr: 0x10001C670, symSize: 0x24 }
  - { offsetInCU: 0x1DDD5, offset: 0x4035D, size: 0x8, addend: 0x0, symName: __ZNSt3__122__compressed_pair_elemINS_15__tree_end_nodeIPNS_16__tree_node_baseIPvEEEELi0ELb0EE5__getB7v160006Ev, symObjAddr: 0xBD80, symBinAddr: 0x10001C694, symSize: 0x14 }
  - { offsetInCU: 0x1DDFB, offset: 0x40383, size: 0x8, addend: 0x0, symName: __ZNK10LinkedListI13BitacoraLineaE5firstEv, symObjAddr: 0xBD94, symBinAddr: 0x10001C6A8, symSize: 0x18 }
  - { offsetInCU: 0x1DE22, offset: 0x403AA, size: 0x8, addend: 0x0, symName: __ZNSt3__16__treeINS_12__value_typeINS_12basic_stringIcNS_11char_traitsIcEENS_9allocatorIcEEEEiEENS_19__map_value_compareIS7_S8_NS_4lessIS7_EELb1EEENS5_IS8_EEE12__find_equalIS7_EERPNS_16__tree_node_baseIPvEERPNS_15__tree_end_nodeISJ_EERKT_, symObjAddr: 0xBE6C, symBinAddr: 0x10001C6C0, symSize: 0x184 }
  - { offsetInCU: 0x1DE8E, offset: 0x40416, size: 0x8, addend: 0x0, symName: __ZNSt3__13mapINS_12basic_stringIcNS_11char_traitsIcEENS_9allocatorIcEEEEiNS_4lessIS6_EENS4_INS_4pairIKS6_iEEEEE25__construct_node_with_keyERSA_, symObjAddr: 0xBFF0, symBinAddr: 0x10001C844, symSize: 0x154 }
  - { offsetInCU: 0x1DEE3, offset: 0x4046B, size: 0x8, addend: 0x0, symName: __ZNSt3__16__treeINS_12__value_typeINS_12basic_stringIcNS_11char_traitsIcEENS_9allocatorIcEEEEiEENS_19__map_value_compareIS7_S8_NS_4lessIS7_EELb1EEENS5_IS8_EEE16__insert_node_atEPNS_15__tree_end_nodeIPNS_16__tree_node_baseIPvEEEERSJ_SJ_, symObjAddr: 0xC144, symBinAddr: 0x10001C998, symSize: 0xCC }
  - { offsetInCU: 0x1DF37, offset: 0x404BF, size: 0x8, addend: 0x0, symName: __ZNKSt3__110unique_ptrINS_11__tree_nodeINS_12__value_typeINS_12basic_stringIcNS_11char_traitsIcEENS_9allocatorIcEEEEiEEPvEENS_21__map_node_destructorINS6_ISB_EEEEE3getB7v160006Ev, symObjAddr: 0xC210, symBinAddr: 0x10001CA64, symSize: 0x28 }
  - { offsetInCU: 0x1DF5D, offset: 0x404E5, size: 0x8, addend: 0x0, symName: __ZNSt3__110unique_ptrINS_11__tree_nodeINS_12__value_typeINS_12basic_stringIcNS_11char_traitsIcEENS_9allocatorIcEEEEiEEPvEENS_21__map_node_destructorINS6_ISB_EEEEE7releaseB7v160006Ev, symObjAddr: 0xC238, symBinAddr: 0x10001CA8C, symSize: 0x44 }
  - { offsetInCU: 0x1DF92, offset: 0x4051A, size: 0x8, addend: 0x0, symName: __ZNSt3__110unique_ptrINS_11__tree_nodeINS_12__value_typeINS_12basic_stringIcNS_11char_traitsIcEENS_9allocatorIcEEEEiEEPvEENS_21__map_node_destructorINS6_ISB_EEEEED1B7v160006Ev, symObjAddr: 0xC27C, symBinAddr: 0x10001CAD0, symSize: 0x2C }
  - { offsetInCU: 0x1DFBC, offset: 0x40544, size: 0x8, addend: 0x0, symName: __ZNSt3__112__value_typeINS_12basic_stringIcNS_11char_traitsIcEENS_9allocatorIcEEEEiE11__get_valueB7v160006Ev, symObjAddr: 0xC2A8, symBinAddr: 0x10001CAFC, symSize: 0x14 }
  - { offsetInCU: 0x1DFE2, offset: 0x4056A, size: 0x8, addend: 0x0, symName: __ZNKSt3__16__treeINS_12__value_typeINS_12basic_stringIcNS_11char_traitsIcEENS_9allocatorIcEEEEiEENS_19__map_value_compareIS7_S8_NS_4lessIS7_EELb1EEENS5_IS8_EEE6__rootB7v160006Ev, symObjAddr: 0xC2BC, symBinAddr: 0x10001CB10, symSize: 0x28 }
  - { offsetInCU: 0x1E008, offset: 0x40590, size: 0x8, addend: 0x0, symName: __ZNKSt3__16__treeINS_12__value_typeINS_12basic_stringIcNS_11char_traitsIcEENS_9allocatorIcEEEEiEENS_19__map_value_compareIS7_S8_NS_4lessIS7_EELb1EEENS5_IS8_EEE10__root_ptrEv, symObjAddr: 0xC2E4, symBinAddr: 0x10001CB38, symSize: 0x24 }
  - { offsetInCU: 0x1E02E, offset: 0x405B6, size: 0x8, addend: 0x0, symName: __ZNSt3__16__treeINS_12__value_typeINS_12basic_stringIcNS_11char_traitsIcEENS_9allocatorIcEEEEiEENS_19__map_value_compareIS7_S8_NS_4lessIS7_EELb1EEENS5_IS8_EEE10value_compB7v160006Ev, symObjAddr: 0xC308, symBinAddr: 0x10001CB5C, symSize: 0x28 }
  - { offsetInCU: 0x1E054, offset: 0x405DC, size: 0x8, addend: 0x0, symName: __ZNKSt3__119__map_value_compareINS_12basic_stringIcNS_11char_traitsIcEENS_9allocatorIcEEEENS_12__value_typeIS6_iEENS_4lessIS6_EELb1EEclB7v160006ERKS6_RKS8_, symObjAddr: 0xC330, symBinAddr: 0x10001CB84, symSize: 0x50 }
  - { offsetInCU: 0x1E098, offset: 0x40620, size: 0x8, addend: 0x0, symName: __ZNKSt3__119__map_value_compareINS_12basic_stringIcNS_11char_traitsIcEENS_9allocatorIcEEEENS_12__value_typeIS6_iEENS_4lessIS6_EELb1EEclB7v160006ERKS8_RKS6_, symObjAddr: 0xC380, symBinAddr: 0x10001CBD4, symSize: 0x48 }
  - { offsetInCU: 0x1E0DC, offset: 0x40664, size: 0x8, addend: 0x0, symName: __ZNKSt3__16__treeINS_12__value_typeINS_12basic_stringIcNS_11char_traitsIcEENS_9allocatorIcEEEEiEENS_19__map_value_compareIS7_S8_NS_4lessIS7_EELb1EEENS5_IS8_EEE10__end_nodeB7v160006Ev, symObjAddr: 0xC3C8, symBinAddr: 0x10001CC1C, symSize: 0x2C }
  - { offsetInCU: 0x1E102, offset: 0x4068A, size: 0x8, addend: 0x0, symName: __ZNKSt3__117__compressed_pairINS_15__tree_end_nodeIPNS_16__tree_node_baseIPvEEEENS_9allocatorINS_11__tree_nodeINS_12__value_typeINS_12basic_stringIcNS_11char_traitsIcEENS7_IcEEEEiEES3_EEEEE5firstB7v160006Ev, symObjAddr: 0xC3F4, symBinAddr: 0x10001CC48, symSize: 0x24 }
  - { offsetInCU: 0x1E128, offset: 0x406B0, size: 0x8, addend: 0x0, symName: __ZNKSt3__122__compressed_pair_elemINS_15__tree_end_nodeIPNS_16__tree_node_baseIPvEEEELi0ELb0EE5__getB7v160006Ev, symObjAddr: 0xC418, symBinAddr: 0x10001CC6C, symSize: 0x14 }
  - { offsetInCU: 0x1E14E, offset: 0x406D6, size: 0x8, addend: 0x0, symName: __ZNSt3__117__compressed_pairImNS_19__map_value_compareINS_12basic_stringIcNS_11char_traitsIcEENS_9allocatorIcEEEENS_12__value_typeIS7_iEENS_4lessIS7_EELb1EEEE6secondB7v160006Ev, symObjAddr: 0xC42C, symBinAddr: 0x10001CC80, symSize: 0x24 }
  - { offsetInCU: 0x1E174, offset: 0x406FC, size: 0x8, addend: 0x0, symName: __ZNSt3__122__compressed_pair_elemINS_19__map_value_compareINS_12basic_stringIcNS_11char_traitsIcEENS_9allocatorIcEEEENS_12__value_typeIS7_iEENS_4lessIS7_EELb1EEELi1ELb1EE5__getB7v160006Ev, symObjAddr: 0xC450, symBinAddr: 0x10001CCA4, symSize: 0x14 }
  - { offsetInCU: 0x1E19A, offset: 0x40722, size: 0x8, addend: 0x0, symName: __ZNKSt3__14lessINS_12basic_stringIcNS_11char_traitsIcEENS_9allocatorIcEEEEEclB7v160006ERKS6_S9_, symObjAddr: 0xC464, symBinAddr: 0x10001CCB8, symSize: 0x34 }
  - { offsetInCU: 0x1E1DE, offset: 0x40766, size: 0x8, addend: 0x0, symName: __ZNKSt3__112__value_typeINS_12basic_stringIcNS_11char_traitsIcEENS_9allocatorIcEEEEiE11__get_valueB7v160006Ev, symObjAddr: 0xC498, symBinAddr: 0x10001CCEC, symSize: 0x14 }
  - { offsetInCU: 0x1E204, offset: 0x4078C, size: 0x8, addend: 0x0, symName: __ZNSt3__16__treeINS_12__value_typeINS_12basic_stringIcNS_11char_traitsIcEENS_9allocatorIcEEEEiEENS_19__map_value_compareIS7_S8_NS_4lessIS7_EELb1EEENS5_IS8_EEE12__node_allocB7v160006Ev, symObjAddr: 0xC80C, symBinAddr: 0x10001CD00, symSize: 0x28 }
  - { offsetInCU: 0x1E22A, offset: 0x407B2, size: 0x8, addend: 0x0, symName: __ZNSt3__116allocator_traitsINS_9allocatorINS_11__tree_nodeINS_12__value_typeINS_12basic_stringIcNS_11char_traitsIcEENS1_IcEEEEiEEPvEEEEE8allocateB7v160006ERSC_m, symObjAddr: 0xC834, symBinAddr: 0x10001CD28, symSize: 0x2C }
  - { offsetInCU: 0x1E25D, offset: 0x407E5, size: 0x8, addend: 0x0, symName: __ZNSt3__121__map_node_destructorINS_9allocatorINS_11__tree_nodeINS_12__value_typeINS_12basic_stringIcNS_11char_traitsIcEENS1_IcEEEEiEEPvEEEEEC1B7v160006ERSC_, symObjAddr: 0xC860, symBinAddr: 0x10001CD54, symSize: 0x34 }
  - { offsetInCU: 0x1E29B, offset: 0x40823, size: 0x8, addend: 0x0, symName: __ZNSt3__110unique_ptrINS_11__tree_nodeINS_12__value_typeINS_12basic_stringIcNS_11char_traitsIcEENS_9allocatorIcEEEEiEEPvEENS_21__map_node_destructorINS6_ISB_EEEEEC1B7v160006ILb1EvEEPSB_NS_16__dependent_typeINS_27__unique_ptr_deleter_sfinaeISE_EEXT_EE20__good_rval_ref_typeE, symObjAddr: 0xC894, symBinAddr: 0x10001CD88, symSize: 0x3C }
  - { offsetInCU: 0x1E2EC, offset: 0x40874, size: 0x8, addend: 0x0, symName: __ZNSt3__116allocator_traitsINS_9allocatorINS_11__tree_nodeINS_12__value_typeINS_12basic_stringIcNS_11char_traitsIcEENS1_IcEEEEiEEPvEEEEE9constructB7v160006IKS8_JRSF_EvEEvRSC_PT_DpOT0_, symObjAddr: 0xC8D0, symBinAddr: 0x10001CDC4, symSize: 0x34 }
  - { offsetInCU: 0x1E343, offset: 0x408CB, size: 0x8, addend: 0x0, symName: __ZNKSt3__110unique_ptrINS_11__tree_nodeINS_12__value_typeINS_12basic_stringIcNS_11char_traitsIcEENS_9allocatorIcEEEEiEEPvEENS_21__map_node_destructorINS6_ISB_EEEEEptB7v160006Ev, symObjAddr: 0xC904, symBinAddr: 0x10001CDF8, symSize: 0x28 }
  - { offsetInCU: 0x1E369, offset: 0x408F1, size: 0x8, addend: 0x0, symName: __ZNSt3__110unique_ptrINS_11__tree_nodeINS_12__value_typeINS_12basic_stringIcNS_11char_traitsIcEENS_9allocatorIcEEEEiEEPvEENS_21__map_node_destructorINS6_ISB_EEEEE11get_deleterB7v160006Ev, symObjAddr: 0xC92C, symBinAddr: 0x10001CE20, symSize: 0x24 }
  - { offsetInCU: 0x1E38F, offset: 0x40917, size: 0x8, addend: 0x0, symName: __ZNSt3__116allocator_traitsINS_9allocatorINS_11__tree_nodeINS_12__value_typeINS_12basic_stringIcNS_11char_traitsIcEENS1_IcEEEEiEEPvEEEEE9constructB7v160006IiJEvEEvRSC_PT_DpOT0_, symObjAddr: 0xC950, symBinAddr: 0x10001CE44, symSize: 0x2C }
  - { offsetInCU: 0x1E3D1, offset: 0x40959, size: 0x8, addend: 0x0, symName: __ZNSt3__117__compressed_pairINS_15__tree_end_nodeIPNS_16__tree_node_baseIPvEEEENS_9allocatorINS_11__tree_nodeINS_12__value_typeINS_12basic_stringIcNS_11char_traitsIcEENS7_IcEEEEiEES3_EEEEE6secondB7v160006Ev, symObjAddr: 0xC97C, symBinAddr: 0x10001CE70, symSize: 0x24 }
  - { offsetInCU: 0x1E3F7, offset: 0x4097F, size: 0x8, addend: 0x0, symName: __ZNSt3__122__compressed_pair_elemINS_9allocatorINS_11__tree_nodeINS_12__value_typeINS_12basic_stringIcNS_11char_traitsIcEENS1_IcEEEEiEEPvEEEELi1ELb1EE5__getB7v160006Ev, symObjAddr: 0xC9A0, symBinAddr: 0x10001CE94, symSize: 0x14 }
  - { offsetInCU: 0x1E41D, offset: 0x409A5, size: 0x8, addend: 0x0, symName: __ZNSt3__19allocatorINS_11__tree_nodeINS_12__value_typeINS_12basic_stringIcNS_11char_traitsIcEENS0_IcEEEEiEEPvEEE8allocateB7v160006Em, symObjAddr: 0xC9B4, symBinAddr: 0x10001CEA8, symSize: 0x84 }
  - { offsetInCU: 0x1E45B, offset: 0x409E3, size: 0x8, addend: 0x0, symName: __ZNSt3__116allocator_traitsINS_9allocatorINS_11__tree_nodeINS_12__value_typeINS_12basic_stringIcNS_11char_traitsIcEENS1_IcEEEEiEEPvEEEEE8max_sizeB7v160006ISC_vEEmRKSC_, symObjAddr: 0xCA38, symBinAddr: 0x10001CF2C, symSize: 0x24 }
  - { offsetInCU: 0x1E489, offset: 0x40A11, size: 0x8, addend: 0x0, symName: __ZNKSt3__19allocatorINS_11__tree_nodeINS_12__value_typeINS_12basic_stringIcNS_11char_traitsIcEENS0_IcEEEEiEEPvEEE8max_sizeB7v160006Ev, symObjAddr: 0xCA5C, symBinAddr: 0x10001CF50, symSize: 0x14 }
  - { offsetInCU: 0x1E4AF, offset: 0x40A37, size: 0x8, addend: 0x0, symName: __ZNSt3__121__map_node_destructorINS_9allocatorINS_11__tree_nodeINS_12__value_typeINS_12basic_stringIcNS_11char_traitsIcEENS1_IcEEEEiEEPvEEEEEC2B7v160006ERSC_, symObjAddr: 0xCA70, symBinAddr: 0x10001CF64, symSize: 0x28 }
  - { offsetInCU: 0x1E4E8, offset: 0x40A70, size: 0x8, addend: 0x0, symName: __ZNSt3__110unique_ptrINS_11__tree_nodeINS_12__value_typeINS_12basic_stringIcNS_11char_traitsIcEENS_9allocatorIcEEEEiEEPvEENS_21__map_node_destructorINS6_ISB_EEEEEC2B7v160006ILb1EvEEPSB_NS_16__dependent_typeINS_27__unique_ptr_deleter_sfinaeISE_EEXT_EE20__good_rval_ref_typeE, symObjAddr: 0xCA98, symBinAddr: 0x10001CF8C, symSize: 0x5C }
  - { offsetInCU: 0x1E539, offset: 0x40AC1, size: 0x8, addend: 0x0, symName: __ZNSt3__117__compressed_pairIPNS_11__tree_nodeINS_12__value_typeINS_12basic_stringIcNS_11char_traitsIcEENS_9allocatorIcEEEEiEEPvEENS_21__map_node_destructorINS6_ISB_EEEEEC1B7v160006IRSC_SF_EEOT_OT0_, symObjAddr: 0xCAF4, symBinAddr: 0x10001CFE8, symSize: 0x3C }
  - { offsetInCU: 0x1E591, offset: 0x40B19, size: 0x8, addend: 0x0, symName: __ZNSt3__117__compressed_pairIPNS_11__tree_nodeINS_12__value_typeINS_12basic_stringIcNS_11char_traitsIcEENS_9allocatorIcEEEEiEEPvEENS_21__map_node_destructorINS6_ISB_EEEEEC2B7v160006IRSC_SF_EEOT_OT0_, symObjAddr: 0xCB30, symBinAddr: 0x10001D024, symSize: 0x48 }
  - { offsetInCU: 0x1E5E9, offset: 0x40B71, size: 0x8, addend: 0x0, symName: __ZNSt3__122__compressed_pair_elemIPNS_11__tree_nodeINS_12__value_typeINS_12basic_stringIcNS_11char_traitsIcEENS_9allocatorIcEEEEiEEPvEELi0ELb0EEC2B7v160006IRSC_vEEOT_, symObjAddr: 0xCB78, symBinAddr: 0x10001D06C, symSize: 0x24 }
  - { offsetInCU: 0x1E62B, offset: 0x40BB3, size: 0x8, addend: 0x0, symName: __ZNSt3__122__compressed_pair_elemINS_21__map_node_destructorINS_9allocatorINS_11__tree_nodeINS_12__value_typeINS_12basic_stringIcNS_11char_traitsIcEENS2_IcEEEEiEEPvEEEEEELi1ELb0EEC2B7v160006ISE_vEEOT_, symObjAddr: 0xCB9C, symBinAddr: 0x10001D090, symSize: 0x24 }
  - { offsetInCU: 0x1E66D, offset: 0x40BF5, size: 0x8, addend: 0x0, symName: __ZNSt3__19allocatorINS_11__tree_nodeINS_12__value_typeINS_12basic_stringIcNS_11char_traitsIcEENS0_IcEEEEiEEPvEEE9constructB7v160006IKS7_JRSD_EEEvPT_DpOT0_, symObjAddr: 0xCBC0, symBinAddr: 0x10001D0B4, symSize: 0x30 }
  - { offsetInCU: 0x1E6C3, offset: 0x40C4B, size: 0x8, addend: 0x0, symName: __ZNKSt3__117__compressed_pairIPNS_11__tree_nodeINS_12__value_typeINS_12basic_stringIcNS_11char_traitsIcEENS_9allocatorIcEEEEiEEPvEENS_21__map_node_destructorINS6_ISB_EEEEE5firstB7v160006Ev, symObjAddr: 0xCBF0, symBinAddr: 0x10001D0E4, symSize: 0x24 }
  - { offsetInCU: 0x1E6E9, offset: 0x40C71, size: 0x8, addend: 0x0, symName: __ZNKSt3__122__compressed_pair_elemIPNS_11__tree_nodeINS_12__value_typeINS_12basic_stringIcNS_11char_traitsIcEENS_9allocatorIcEEEEiEEPvEELi0ELb0EE5__getB7v160006Ev, symObjAddr: 0xCC14, symBinAddr: 0x10001D108, symSize: 0x14 }
  - { offsetInCU: 0x1E70F, offset: 0x40C97, size: 0x8, addend: 0x0, symName: __ZNSt3__117__compressed_pairIPNS_11__tree_nodeINS_12__value_typeINS_12basic_stringIcNS_11char_traitsIcEENS_9allocatorIcEEEEiEEPvEENS_21__map_node_destructorINS6_ISB_EEEEE6secondB7v160006Ev, symObjAddr: 0xCC28, symBinAddr: 0x10001D11C, symSize: 0x28 }
  - { offsetInCU: 0x1E735, offset: 0x40CBD, size: 0x8, addend: 0x0, symName: __ZNSt3__122__compressed_pair_elemINS_21__map_node_destructorINS_9allocatorINS_11__tree_nodeINS_12__value_typeINS_12basic_stringIcNS_11char_traitsIcEENS2_IcEEEEiEEPvEEEEEELi1ELb0EE5__getB7v160006Ev, symObjAddr: 0xCC50, symBinAddr: 0x10001D144, symSize: 0x14 }
  - { offsetInCU: 0x1E75B, offset: 0x40CE3, size: 0x8, addend: 0x0, symName: __ZNSt3__19allocatorINS_11__tree_nodeINS_12__value_typeINS_12basic_stringIcNS_11char_traitsIcEENS0_IcEEEEiEEPvEEE9constructB7v160006IiJEEEvPT_DpOT0_, symObjAddr: 0xCC64, symBinAddr: 0x10001D158, symSize: 0x1C }
  - { offsetInCU: 0x1E79D, offset: 0x40D25, size: 0x8, addend: 0x0, symName: __ZNSt3__16__treeINS_12__value_typeINS_12basic_stringIcNS_11char_traitsIcEENS_9allocatorIcEEEEiEENS_19__map_value_compareIS7_S8_NS_4lessIS7_EELb1EEENS5_IS8_EEE4sizeB7v160006Ev, symObjAddr: 0xCFC0, symBinAddr: 0x10001D4B4, symSize: 0x28 }
  - { offsetInCU: 0x1E7C3, offset: 0x40D4B, size: 0x8, addend: 0x0, symName: __ZNKSt3__116__tree_node_baseIPvE15__parent_unsafeB7v160006Ev, symObjAddr: 0xCFE8, symBinAddr: 0x10001D4DC, symSize: 0x18 }
  - { offsetInCU: 0x1E7E9, offset: 0x40D71, size: 0x8, addend: 0x0, symName: __ZNSt3__116__tree_node_baseIPvE12__set_parentB7v160006EPS2_, symObjAddr: 0xD1E4, symBinAddr: 0x10001D6D8, symSize: 0x20 }
  - { offsetInCU: 0x1E81E, offset: 0x40DA6, size: 0x8, addend: 0x0, symName: __ZNSt3__117__compressed_pairImNS_19__map_value_compareINS_12basic_stringIcNS_11char_traitsIcEENS_9allocatorIcEEEENS_12__value_typeIS7_iEENS_4lessIS7_EELb1EEEE5firstB7v160006Ev, symObjAddr: 0xD204, symBinAddr: 0x10001D6F8, symSize: 0x24 }
  - { offsetInCU: 0x1E844, offset: 0x40DCC, size: 0x8, addend: 0x0, symName: __ZNSt3__117__compressed_pairIPNS_11__tree_nodeINS_12__value_typeINS_12basic_stringIcNS_11char_traitsIcEENS_9allocatorIcEEEEiEEPvEENS_21__map_node_destructorINS6_ISB_EEEEE5firstB7v160006Ev, symObjAddr: 0xD23C, symBinAddr: 0x10001D71C, symSize: 0x24 }
  - { offsetInCU: 0x1E86A, offset: 0x40DF2, size: 0x8, addend: 0x0, symName: __ZNSt3__122__compressed_pair_elemIPNS_11__tree_nodeINS_12__value_typeINS_12basic_stringIcNS_11char_traitsIcEENS_9allocatorIcEEEEiEEPvEELi0ELb0EE5__getB7v160006Ev, symObjAddr: 0xD260, symBinAddr: 0x10001D740, symSize: 0x14 }
  - { offsetInCU: 0x1E890, offset: 0x40E18, size: 0x8, addend: 0x0, symName: __ZNSt3__110unique_ptrINS_11__tree_nodeINS_12__value_typeINS_12basic_stringIcNS_11char_traitsIcEENS_9allocatorIcEEEEiEEPvEENS_21__map_node_destructorINS6_ISB_EEEEED2B7v160006Ev, symObjAddr: 0xD274, symBinAddr: 0x10001D754, symSize: 0x30 }
  - { offsetInCU: 0x1E8BA, offset: 0x40E42, size: 0x8, addend: 0x0, symName: __ZNSt3__110unique_ptrINS_11__tree_nodeINS_12__value_typeINS_12basic_stringIcNS_11char_traitsIcEENS_9allocatorIcEEEEiEEPvEENS_21__map_node_destructorINS6_ISB_EEEEE5resetB7v160006EPSB_, symObjAddr: 0xD2A4, symBinAddr: 0x10001D784, symSize: 0x78 }
  - { offsetInCU: 0x1E8FE, offset: 0x40E86, size: 0x8, addend: 0x0, symName: __ZNSt3__121__map_node_destructorINS_9allocatorINS_11__tree_nodeINS_12__value_typeINS_12basic_stringIcNS_11char_traitsIcEENS1_IcEEEEiEEPvEEEEEclB7v160006EPSB_, symObjAddr: 0xD31C, symBinAddr: 0x10001D7FC, symSize: 0xF4 }
  - { offsetInCU: 0x1E933, offset: 0x40EBB, size: 0x8, addend: 0x0, symName: __ZNSt3__116allocator_traitsINS_9allocatorINS_11__tree_nodeINS_12__value_typeINS_12basic_stringIcNS_11char_traitsIcEENS1_IcEEEEiEEPvEEEEE7destroyB7v160006IivvEEvRSC_PT_, symObjAddr: 0xD410, symBinAddr: 0x10001D8F0, symSize: 0x14 }
  - { offsetInCU: 0x1E96E, offset: 0x40EF6, size: 0x8, addend: 0x0, symName: __ZNSt3__116allocator_traitsINS_9allocatorINS_11__tree_nodeINS_12__value_typeINS_12basic_stringIcNS_11char_traitsIcEENS1_IcEEEEiEEPvEEEEE7destroyB7v160006IKS8_vvEEvRSC_PT_, symObjAddr: 0xD424, symBinAddr: 0x10001D904, symSize: 0x28 }
  - { offsetInCU: 0x1E9A9, offset: 0x40F31, size: 0x8, addend: 0x0, symName: __ZNSt3__116allocator_traitsINS_9allocatorINS_11__tree_nodeINS_12__value_typeINS_12basic_stringIcNS_11char_traitsIcEENS1_IcEEEEiEEPvEEEEE10deallocateB7v160006ERSC_PSB_m, symObjAddr: 0xD44C, symBinAddr: 0x10001D92C, symSize: 0x34 }
  - { offsetInCU: 0x1E9EB, offset: 0x40F73, size: 0x8, addend: 0x0, symName: __ZNSt3__19allocatorINS_11__tree_nodeINS_12__value_typeINS_12basic_stringIcNS_11char_traitsIcEENS0_IcEEEEiEEPvEEE10deallocateB7v160006EPSA_m, symObjAddr: 0xD480, symBinAddr: 0x10001D960, symSize: 0x70 }
  - { offsetInCU: 0x1EA2D, offset: 0x40FB5, size: 0x8, addend: 0x0, symName: __ZNSt3__13mapINS_12basic_stringIcNS_11char_traitsIcEENS_9allocatorIcEEEEiNS_4lessIS6_EENS4_INS_4pairIKS6_iEEEEED2B7v160006Ev, symObjAddr: 0xD4F0, symBinAddr: 0x10001D9D0, symSize: 0x2C }
  - { offsetInCU: 0x1EA57, offset: 0x40FDF, size: 0x8, addend: 0x0, symName: __ZNSt3__16__treeINS_12__value_typeINS_12basic_stringIcNS_11char_traitsIcEENS_9allocatorIcEEEEiEENS_19__map_value_compareIS7_S8_NS_4lessIS7_EELb1EEENS5_IS8_EEED1Ev, symObjAddr: 0xD51C, symBinAddr: 0x10001D9FC, symSize: 0x2C }
  - { offsetInCU: 0x1EA83, offset: 0x4100B, size: 0x8, addend: 0x0, symName: __ZNSt3__16__treeINS_12__value_typeINS_12basic_stringIcNS_11char_traitsIcEENS_9allocatorIcEEEEiEENS_19__map_value_compareIS7_S8_NS_4lessIS7_EELb1EEENS5_IS8_EEED2Ev, symObjAddr: 0xD548, symBinAddr: 0x10001DA28, symSize: 0x38 }
  - { offsetInCU: 0x1EAAF, offset: 0x41037, size: 0x8, addend: 0x0, symName: __ZNSt3__16__treeINS_12__value_typeINS_12basic_stringIcNS_11char_traitsIcEENS_9allocatorIcEEEEiEENS_19__map_value_compareIS7_S8_NS_4lessIS7_EELb1EEENS5_IS8_EEE7destroyEPNS_11__tree_nodeIS8_PvEE, symObjAddr: 0xD580, symBinAddr: 0x10001DA60, symSize: 0xC0 }
  - { offsetInCU: 0x1EB03, offset: 0x4108B, size: 0x8, addend: 0x0, symName: __ZNSt3__116allocator_traitsINS_9allocatorINS_11__tree_nodeINS_12__value_typeINS_12basic_stringIcNS_11char_traitsIcEENS1_IcEEEEiEEPvEEEEE7destroyB7v160006INS_4pairIKS8_iEEvvEEvRSC_PT_, symObjAddr: 0xD640, symBinAddr: 0x10001DB20, symSize: 0x28 }
  - { offsetInCU: 0x1EB3E, offset: 0x410C6, size: 0x8, addend: 0x0, symName: __ZNSt3__122__tree_key_value_typesINS_12__value_typeINS_12basic_stringIcNS_11char_traitsIcEENS_9allocatorIcEEEEiEEE9__get_ptrB7v160006ERS8_, symObjAddr: 0xD668, symBinAddr: 0x10001DB48, symSize: 0x24 }
  - { offsetInCU: 0x1EB62, offset: 0x410EA, size: 0x8, addend: 0x0, symName: __ZNSt3__14pairIKNS_12basic_stringIcNS_11char_traitsIcEENS_9allocatorIcEEEEiED1Ev, symObjAddr: 0xD68C, symBinAddr: 0x10001DB6C, symSize: 0x2C }
  - { offsetInCU: 0x1EB8E, offset: 0x41116, size: 0x8, addend: 0x0, symName: __ZNSt3__14pairIKNS_12basic_stringIcNS_11char_traitsIcEENS_9allocatorIcEEEEiED2Ev, symObjAddr: 0xD6B8, symBinAddr: 0x10001DB98, symSize: 0x2C }
  - { offsetInCU: 0x1F0A8, offset: 0x41630, size: 0x8, addend: 0x0, symName: __ZN3BSTIN21ConexionesComputadoraI13BitacoraLineaE3SitEEC1Ev, symObjAddr: 0xD6E4, symBinAddr: 0x10001DBC4, symSize: 0x2C }
  - { offsetInCU: 0x1F0D2, offset: 0x4165A, size: 0x8, addend: 0x0, symName: __ZN21ConexionesComputadoraI13BitacoraLineaE3SitC1ENSt3__112basic_stringIcNS3_11char_traitsIcEENS3_9allocatorIcEEEEi, symObjAddr: 0xD710, symBinAddr: 0x10001DBF0, symSize: 0x3C }
  - { offsetInCU: 0x1F119, offset: 0x416A1, size: 0x8, addend: 0x0, symName: __ZN8TreeNodeIN21ConexionesComputadoraI13BitacoraLineaE3SitEEC1ERKS3_, symObjAddr: 0xD74C, symBinAddr: 0x10001DC2C, symSize: 0x34 }
  - { offsetInCU: 0x1F151, offset: 0x416D9, size: 0x8, addend: 0x0, symName: __ZN21ConexionesComputadoraI13BitacoraLineaE3SitD1Ev, symObjAddr: 0xD780, symBinAddr: 0x10001DC60, symSize: 0x2C }
  - { offsetInCU: 0x1F17B, offset: 0x41703, size: 0x8, addend: 0x0, symName: __ZN3BSTIN21ConexionesComputadoraI13BitacoraLineaE3SitEE6insertEP8TreeNodeIS3_E, symObjAddr: 0xD7AC, symBinAddr: 0x10001DC8C, symSize: 0x2EC }
  - { offsetInCU: 0x1F1DD, offset: 0x41765, size: 0x8, addend: 0x0, symName: __ZNK10BinaryTreeIN21ConexionesComputadoraI13BitacoraLineaE3SitEE6topNodEi, symObjAddr: 0xDA98, symBinAddr: 0x10001DF78, symSize: 0xBC }
  - { offsetInCU: 0x1F222, offset: 0x417AA, size: 0x8, addend: 0x0, symName: __ZNSt3__16vectorIN21ConexionesComputadoraI13BitacoraLineaE3SitENS_9allocatorIS4_EEE5beginB7v160006Ev, symObjAddr: 0xDB54, symBinAddr: 0x10001E034, symSize: 0x30 }
  - { offsetInCU: 0x1F249, offset: 0x417D1, size: 0x8, addend: 0x0, symName: __ZNSt3__16vectorIN21ConexionesComputadoraI13BitacoraLineaE3SitENS_9allocatorIS4_EEE3endB7v160006Ev, symObjAddr: 0xDB84, symBinAddr: 0x10001E064, symSize: 0x30 }
  - { offsetInCU: 0x1F270, offset: 0x417F8, size: 0x8, addend: 0x0, symName: __ZNKSt3__111__wrap_iterIPN21ConexionesComputadoraI13BitacoraLineaE3SitEEdeB7v160006Ev, symObjAddr: 0xDBE8, symBinAddr: 0x10001E0C8, symSize: 0x18 }
  - { offsetInCU: 0x1F296, offset: 0x4181E, size: 0x8, addend: 0x0, symName: __ZNSt3__111__wrap_iterIPN21ConexionesComputadoraI13BitacoraLineaE3SitEEppB7v160006Ev, symObjAddr: 0xDC00, symBinAddr: 0x10001E0E0, symSize: 0x20 }
  - { offsetInCU: 0x1F2BC, offset: 0x41844, size: 0x8, addend: 0x0, symName: __ZN10BinaryTreeIN21ConexionesComputadoraI13BitacoraLineaE3SitEE5clearEv, symObjAddr: 0xDC20, symBinAddr: 0x10001E100, symSize: 0x34 }
  - { offsetInCU: 0x1F2E3, offset: 0x4186B, size: 0x8, addend: 0x0, symName: __ZNSt3__16vectorIN21ConexionesComputadoraI13BitacoraLineaE3SitENS_9allocatorIS4_EEED1B7v160006Ev, symObjAddr: 0xDC54, symBinAddr: 0x10001E134, symSize: 0x2C }
  - { offsetInCU: 0x1F30D, offset: 0x41895, size: 0x8, addend: 0x0, symName: __ZNKSt3__13mapINS_12basic_stringIcNS_11char_traitsIcEENS_9allocatorIcEEEEiNS_4lessIS6_EENS4_INS_4pairIKS6_iEEEEE4sizeB7v160006Ev, symObjAddr: 0xDCAC, symBinAddr: 0x10001E160, symSize: 0x28 }
  - { offsetInCU: 0x1F333, offset: 0x418BB, size: 0x8, addend: 0x0, symName: __ZN3BSTIN21ConexionesComputadoraI13BitacoraLineaE3SitEEC2Ev, symObjAddr: 0xDD40, symBinAddr: 0x10001E188, symSize: 0x44 }
  - { offsetInCU: 0x1F35D, offset: 0x418E5, size: 0x8, addend: 0x0, symName: __ZN10BinaryTreeIN21ConexionesComputadoraI13BitacoraLineaE3SitEEC2Ev, symObjAddr: 0xDD84, symBinAddr: 0x10001E1CC, symSize: 0x28 }
  - { offsetInCU: 0x1F387, offset: 0x4190F, size: 0x8, addend: 0x0, symName: __ZN3BSTIN21ConexionesComputadoraI13BitacoraLineaE3SitEED1Ev, symObjAddr: 0xDDAC, symBinAddr: 0x10001E1F4, symSize: 0x2C }
  - { offsetInCU: 0x1F3B1, offset: 0x41939, size: 0x8, addend: 0x0, symName: __ZN3BSTIN21ConexionesComputadoraI13BitacoraLineaE3SitEED0Ev, symObjAddr: 0xDDD8, symBinAddr: 0x10001E220, symSize: 0x58 }
  - { offsetInCU: 0x1F3DB, offset: 0x41963, size: 0x8, addend: 0x0, symName: __ZN10BinaryTreeIN21ConexionesComputadoraI13BitacoraLineaE3SitEE6removeERS3_, symObjAddr: 0xDE30, symBinAddr: 0x10001E278, symSize: 0x18 }
  - { offsetInCU: 0x1F40D, offset: 0x41995, size: 0x8, addend: 0x0, symName: __ZN10BinaryTreeIN21ConexionesComputadoraI13BitacoraLineaE3SitEED1Ev, symObjAddr: 0xDE48, symBinAddr: 0x10001E290, symSize: 0x2C }
  - { offsetInCU: 0x1F438, offset: 0x419C0, size: 0x8, addend: 0x0, symName: __ZN10BinaryTreeIN21ConexionesComputadoraI13BitacoraLineaE3SitEED0Ev, symObjAddr: 0xDE74, symBinAddr: 0x10001E2BC, symSize: 0x58 }
  - { offsetInCU: 0x1F463, offset: 0x419EB, size: 0x8, addend: 0x0, symName: __ZN10BinaryTreeIN21ConexionesComputadoraI13BitacoraLineaE3SitEED2Ev, symObjAddr: 0xDECC, symBinAddr: 0x10001E314, symSize: 0x3C }
  - { offsetInCU: 0x1F48E, offset: 0x41A16, size: 0x8, addend: 0x0, symName: __ZN3BSTIN21ConexionesComputadoraI13BitacoraLineaE3SitEED2Ev, symObjAddr: 0xDF08, symBinAddr: 0x10001E350, symSize: 0x2C }
  - { offsetInCU: 0x1F4B8, offset: 0x41A40, size: 0x8, addend: 0x0, symName: __ZN21ConexionesComputadoraI13BitacoraLineaE3SitC2ENSt3__112basic_stringIcNS3_11char_traitsIcEENS3_9allocatorIcEEEEi, symObjAddr: 0xDF34, symBinAddr: 0x10001E37C, symSize: 0x7C }
  - { offsetInCU: 0x1F4FF, offset: 0x41A87, size: 0x8, addend: 0x0, symName: __ZN8TreeNodeIN21ConexionesComputadoraI13BitacoraLineaE3SitEEC2ERKS3_, symObjAddr: 0xDFB0, symBinAddr: 0x10001E3F8, symSize: 0x58 }
  - { offsetInCU: 0x1F537, offset: 0x41ABF, size: 0x8, addend: 0x0, symName: __ZN21ConexionesComputadoraI13BitacoraLineaE3SitC1ERKS2_, symObjAddr: 0xE008, symBinAddr: 0x10001E450, symSize: 0x34 }
  - { offsetInCU: 0x1F56C, offset: 0x41AF4, size: 0x8, addend: 0x0, symName: __ZN8TreeNodeIN21ConexionesComputadoraI13BitacoraLineaE3SitEED1Ev, symObjAddr: 0xE03C, symBinAddr: 0x10001E484, symSize: 0x2C }
  - { offsetInCU: 0x1F597, offset: 0x41B1F, size: 0x8, addend: 0x0, symName: __ZN8TreeNodeIN21ConexionesComputadoraI13BitacoraLineaE3SitEED0Ev, symObjAddr: 0xE068, symBinAddr: 0x10001E4B0, symSize: 0x58 }
  - { offsetInCU: 0x1F5C2, offset: 0x41B4A, size: 0x8, addend: 0x0, symName: __ZN21ConexionesComputadoraI13BitacoraLineaE3SitC2ERKS2_, symObjAddr: 0xE0C0, symBinAddr: 0x10001E508, symSize: 0x40 }
  - { offsetInCU: 0x1F5F7, offset: 0x41B7F, size: 0x8, addend: 0x0, symName: __ZN8TreeNodeIN21ConexionesComputadoraI13BitacoraLineaE3SitEED2Ev, symObjAddr: 0xE100, symBinAddr: 0x10001E548, symSize: 0x48 }
  - { offsetInCU: 0x1F622, offset: 0x41BAA, size: 0x8, addend: 0x0, symName: __ZN21ConexionesComputadoraI13BitacoraLineaE3SitD2Ev, symObjAddr: 0xE148, symBinAddr: 0x10001E590, symSize: 0x2C }
  - { offsetInCU: 0x1F64C, offset: 0x41BD4, size: 0x8, addend: 0x0, symName: __ZNK8TreeNodeIN21ConexionesComputadoraI13BitacoraLineaE3SitEE7getInfoEv, symObjAddr: 0xE174, symBinAddr: 0x10001E5BC, symSize: 0x3C }
  - { offsetInCU: 0x1F672, offset: 0x41BFA, size: 0x8, addend: 0x0, symName: __ZNK21ConexionesComputadoraI13BitacoraLineaE3SiteqERKS2_, symObjAddr: 0xE1B0, symBinAddr: 0x10001E5F8, symSize: 0x68 }
  - { offsetInCU: 0x1F6A6, offset: 0x41C2E, size: 0x8, addend: 0x0, symName: __ZNK21ConexionesComputadoraI13BitacoraLineaE3SitgtERKS2_, symObjAddr: 0xE218, symBinAddr: 0x10001E660, symSize: 0x30 }
  - { offsetInCU: 0x1F6DA, offset: 0x41C62, size: 0x8, addend: 0x0, symName: __ZNK8TreeNodeIN21ConexionesComputadoraI13BitacoraLineaE3SitEE7getLeftEv, symObjAddr: 0xE248, symBinAddr: 0x10001E690, symSize: 0x18 }
  - { offsetInCU: 0x1F700, offset: 0x41C88, size: 0x8, addend: 0x0, symName: __ZNK8TreeNodeIN21ConexionesComputadoraI13BitacoraLineaE3SitEE8getRightEv, symObjAddr: 0xE260, symBinAddr: 0x10001E6A8, symSize: 0x18 }
  - { offsetInCU: 0x1F726, offset: 0x41CAE, size: 0x8, addend: 0x0, symName: __ZN8TreeNodeIN21ConexionesComputadoraI13BitacoraLineaE3SitEE9setParentEPS4_, symObjAddr: 0xE278, symBinAddr: 0x10001E6C0, symSize: 0x20 }
  - { offsetInCU: 0x1F75A, offset: 0x41CE2, size: 0x8, addend: 0x0, symName: __ZN8TreeNodeIN21ConexionesComputadoraI13BitacoraLineaE3SitEE7setLeftEPS4_, symObjAddr: 0xE298, symBinAddr: 0x10001E6E0, symSize: 0x20 }
  - { offsetInCU: 0x1F78E, offset: 0x41D16, size: 0x8, addend: 0x0, symName: __ZN8TreeNodeIN21ConexionesComputadoraI13BitacoraLineaE3SitEE8setRightEPS4_, symObjAddr: 0xE2B8, symBinAddr: 0x10001E700, symSize: 0x20 }
  - { offsetInCU: 0x1F7C2, offset: 0x41D4A, size: 0x8, addend: 0x0, symName: __ZNSt3__16vectorIN21ConexionesComputadoraI13BitacoraLineaE3SitENS_9allocatorIS4_EEEC1B7v160006Ev, symObjAddr: 0xE2D8, symBinAddr: 0x10001E720, symSize: 0x2C }
  - { offsetInCU: 0x1F7EC, offset: 0x41D74, size: 0x8, addend: 0x0, symName: __ZNK10BinaryTreeIN21ConexionesComputadoraI13BitacoraLineaE3SitEE6topNodEP8TreeNodeIS3_EiRNSt3__16vectorIS3_NS8_9allocatorIS3_EEEE, symObjAddr: 0xE304, symBinAddr: 0x10001E74C, symSize: 0x114 }
  - { offsetInCU: 0x1F83D, offset: 0x41DC5, size: 0x8, addend: 0x0, symName: __ZNSt3__16vectorIN21ConexionesComputadoraI13BitacoraLineaE3SitENS_9allocatorIS4_EEEC2B7v160006Ev, symObjAddr: 0xE418, symBinAddr: 0x10001E860, symSize: 0x4C }
  - { offsetInCU: 0x1F867, offset: 0x41DEF, size: 0x8, addend: 0x0, symName: __ZNSt3__117__compressed_pairIPN21ConexionesComputadoraI13BitacoraLineaE3SitENS_9allocatorIS4_EEEC1B7v160006IDnNS_18__default_init_tagEEEOT_OT0_, symObjAddr: 0xE464, symBinAddr: 0x10001E8AC, symSize: 0x3C }
  - { offsetInCU: 0x1F8BF, offset: 0x41E47, size: 0x8, addend: 0x0, symName: __ZNSt3__117__compressed_pairIPN21ConexionesComputadoraI13BitacoraLineaE3SitENS_9allocatorIS4_EEEC2B7v160006IDnNS_18__default_init_tagEEEOT_OT0_, symObjAddr: 0xE4B0, symBinAddr: 0x10001E8F8, symSize: 0x40 }
  - { offsetInCU: 0x1F917, offset: 0x41E9F, size: 0x8, addend: 0x0, symName: __ZNSt3__122__compressed_pair_elemIPN21ConexionesComputadoraI13BitacoraLineaE3SitELi0ELb0EEC2B7v160006IDnvEEOT_, symObjAddr: 0xE4F0, symBinAddr: 0x10001E938, symSize: 0x1C }
  - { offsetInCU: 0x1F959, offset: 0x41EE1, size: 0x8, addend: 0x0, symName: __ZNSt3__122__compressed_pair_elemINS_9allocatorIN21ConexionesComputadoraI13BitacoraLineaE3SitEEELi1ELb1EEC2B7v160006ENS_18__default_init_tagE, symObjAddr: 0xE50C, symBinAddr: 0x10001E954, symSize: 0x2C }
  - { offsetInCU: 0x1F98E, offset: 0x41F16, size: 0x8, addend: 0x0, symName: __ZNSt3__19allocatorIN21ConexionesComputadoraI13BitacoraLineaE3SitEEC2B7v160006Ev, symObjAddr: 0xE538, symBinAddr: 0x10001E980, symSize: 0x2C }
  - { offsetInCU: 0x1F9B8, offset: 0x41F40, size: 0x8, addend: 0x0, symName: __ZNSt3__116__non_trivial_ifILb1ENS_9allocatorIN21ConexionesComputadoraI13BitacoraLineaE3SitEEEEC2B7v160006Ev, symObjAddr: 0xE564, symBinAddr: 0x10001E9AC, symSize: 0x14 }
  - { offsetInCU: 0x1F9E2, offset: 0x41F6A, size: 0x8, addend: 0x0, symName: __ZNKSt3__16vectorIN21ConexionesComputadoraI13BitacoraLineaE3SitENS_9allocatorIS4_EEE4sizeB7v160006Ev, symObjAddr: 0xE578, symBinAddr: 0x10001E9C0, symSize: 0x28 }
  - { offsetInCU: 0x1FA08, offset: 0x41F90, size: 0x8, addend: 0x0, symName: __ZNSt3__16vectorIN21ConexionesComputadoraI13BitacoraLineaE3SitENS_9allocatorIS4_EEE9push_backB7v160006EOS4_, symObjAddr: 0xE5A0, symBinAddr: 0x10001E9E8, symSize: 0x6C }
  - { offsetInCU: 0x1FA3E, offset: 0x41FC6, size: 0x8, addend: 0x0, symName: __ZNSt3__16vectorIN21ConexionesComputadoraI13BitacoraLineaE3SitENS_9allocatorIS4_EEE9__end_capB7v160006Ev, symObjAddr: 0xE60C, symBinAddr: 0x10001EA54, symSize: 0x28 }
  - { offsetInCU: 0x1FA69, offset: 0x41FF1, size: 0x8, addend: 0x0, symName: __ZNSt3__16vectorIN21ConexionesComputadoraI13BitacoraLineaE3SitENS_9allocatorIS4_EEE22__construct_one_at_endB7v160006IJS4_EEEvDpOT_, symObjAddr: 0xE634, symBinAddr: 0x10001EA7C, symSize: 0x98 }
  - { offsetInCU: 0x1FAB8, offset: 0x42040, size: 0x8, addend: 0x0, symName: __ZNSt3__16vectorIN21ConexionesComputadoraI13BitacoraLineaE3SitENS_9allocatorIS4_EEE21__push_back_slow_pathIS4_EEvOT_, symObjAddr: 0xE6CC, symBinAddr: 0x10001EB14, symSize: 0xE0 }
  - { offsetInCU: 0x1FB15, offset: 0x4209D, size: 0x8, addend: 0x0, symName: __ZNSt3__117__compressed_pairIPN21ConexionesComputadoraI13BitacoraLineaE3SitENS_9allocatorIS4_EEE5firstB7v160006Ev, symObjAddr: 0xE7AC, symBinAddr: 0x10001EBF4, symSize: 0x24 }
  - { offsetInCU: 0x1FB3B, offset: 0x420C3, size: 0x8, addend: 0x0, symName: __ZNSt3__122__compressed_pair_elemIPN21ConexionesComputadoraI13BitacoraLineaE3SitELi0ELb0EE5__getB7v160006Ev, symObjAddr: 0xE7D0, symBinAddr: 0x10001EC18, symSize: 0x14 }
  - { offsetInCU: 0x1FB7A, offset: 0x42102, size: 0x8, addend: 0x0, symName: __ZNSt3__16vectorIN21ConexionesComputadoraI13BitacoraLineaE3SitENS_9allocatorIS4_EEE21_ConstructTransactionC1B7v160006ERS7_m, symObjAddr: 0xE7E4, symBinAddr: 0x10001EC2C, symSize: 0x3C }
  - { offsetInCU: 0x1FBC2, offset: 0x4214A, size: 0x8, addend: 0x0, symName: __ZNSt3__116allocator_traitsINS_9allocatorIN21ConexionesComputadoraI13BitacoraLineaE3SitEEEE9constructB7v160006IS5_JS5_EvEEvRS6_PT_DpOT0_, symObjAddr: 0xE820, symBinAddr: 0x10001EC68, symSize: 0x34 }
  - { offsetInCU: 0x1FC19, offset: 0x421A1, size: 0x8, addend: 0x0, symName: __ZNSt3__16vectorIN21ConexionesComputadoraI13BitacoraLineaE3SitENS_9allocatorIS4_EEE7__allocB7v160006Ev, symObjAddr: 0xE854, symBinAddr: 0x10001EC9C, symSize: 0x28 }
  - { offsetInCU: 0x1FC3F, offset: 0x421C7, size: 0x8, addend: 0x0, symName: __ZNSt3__16vectorIN21ConexionesComputadoraI13BitacoraLineaE3SitENS_9allocatorIS4_EEE21_ConstructTransactionD1B7v160006Ev, symObjAddr: 0xE890, symBinAddr: 0x10001ECD8, symSize: 0x2C }
  - { offsetInCU: 0x1FC69, offset: 0x421F1, size: 0x8, addend: 0x0, symName: __ZNSt3__16vectorIN21ConexionesComputadoraI13BitacoraLineaE3SitENS_9allocatorIS4_EEE21_ConstructTransactionC2B7v160006ERS7_m, symObjAddr: 0xE8BC, symBinAddr: 0x10001ED04, symSize: 0x44 }
  - { offsetInCU: 0x1FCB1, offset: 0x42239, size: 0x8, addend: 0x0, symName: __ZNSt3__19allocatorIN21ConexionesComputadoraI13BitacoraLineaE3SitEE9constructB7v160006IS4_JS4_EEEvPT_DpOT0_, symObjAddr: 0xE900, symBinAddr: 0x10001ED48, symSize: 0x30 }
  - { offsetInCU: 0x1FD07, offset: 0x4228F, size: 0x8, addend: 0x0, symName: __ZNSt3__117__compressed_pairIPN21ConexionesComputadoraI13BitacoraLineaE3SitENS_9allocatorIS4_EEE6secondB7v160006Ev, symObjAddr: 0xE930, symBinAddr: 0x10001ED78, symSize: 0x24 }
  - { offsetInCU: 0x1FD2D, offset: 0x422B5, size: 0x8, addend: 0x0, symName: __ZNSt3__122__compressed_pair_elemINS_9allocatorIN21ConexionesComputadoraI13BitacoraLineaE3SitEEELi1ELb1EE5__getB7v160006Ev, symObjAddr: 0xE954, symBinAddr: 0x10001ED9C, symSize: 0x14 }
  - { offsetInCU: 0x1FD53, offset: 0x422DB, size: 0x8, addend: 0x0, symName: __ZNSt3__16vectorIN21ConexionesComputadoraI13BitacoraLineaE3SitENS_9allocatorIS4_EEE21_ConstructTransactionD2B7v160006Ev, symObjAddr: 0xE968, symBinAddr: 0x10001EDB0, symSize: 0x20 }
  - { offsetInCU: 0x1FD7D, offset: 0x42305, size: 0x8, addend: 0x0, symName: __ZNKSt3__16vectorIN21ConexionesComputadoraI13BitacoraLineaE3SitENS_9allocatorIS4_EEE11__recommendB7v160006Em, symObjAddr: 0xE988, symBinAddr: 0x10001EDD0, symSize: 0xB4 }
  - { offsetInCU: 0x1FDD1, offset: 0x42359, size: 0x8, addend: 0x0, symName: __ZNSt3__114__split_bufferIN21ConexionesComputadoraI13BitacoraLineaE3SitERNS_9allocatorIS4_EEEC1EmmS7_, symObjAddr: 0xEA3C, symBinAddr: 0x10001EE84, symSize: 0x44 }
  - { offsetInCU: 0x1FE27, offset: 0x423AF, size: 0x8, addend: 0x0, symName: __ZNSt3__114__split_bufferIN21ConexionesComputadoraI13BitacoraLineaE3SitERNS_9allocatorIS4_EEED1Ev, symObjAddr: 0xEB98, symBinAddr: 0x10001EFE0, symSize: 0x2C }
  - { offsetInCU: 0x1FE53, offset: 0x423DB, size: 0x8, addend: 0x0, symName: __ZNKSt3__16vectorIN21ConexionesComputadoraI13BitacoraLineaE3SitENS_9allocatorIS4_EEE8max_sizeEv, symObjAddr: 0xEBC4, symBinAddr: 0x10001F00C, symSize: 0x74 }
  - { offsetInCU: 0x1FE7A, offset: 0x42402, size: 0x8, addend: 0x0, symName: __ZNKSt3__16vectorIN21ConexionesComputadoraI13BitacoraLineaE3SitENS_9allocatorIS4_EEE20__throw_length_errorB7v160006Ev, symObjAddr: 0xEC38, symBinAddr: 0x10001F080, symSize: 0x1C }
  - { offsetInCU: 0x1FEA0, offset: 0x42428, size: 0x8, addend: 0x0, symName: __ZNKSt3__16vectorIN21ConexionesComputadoraI13BitacoraLineaE3SitENS_9allocatorIS4_EEE8capacityB7v160006Ev, symObjAddr: 0xEC54, symBinAddr: 0x10001F09C, symSize: 0x40 }
  - { offsetInCU: 0x1FED0, offset: 0x42458, size: 0x8, addend: 0x0, symName: __ZNSt3__116allocator_traitsINS_9allocatorIN21ConexionesComputadoraI13BitacoraLineaE3SitEEEE8max_sizeB7v160006IS6_vEEmRKS6_, symObjAddr: 0xECC0, symBinAddr: 0x10001F0DC, symSize: 0x24 }
  - { offsetInCU: 0x1FEFE, offset: 0x42486, size: 0x8, addend: 0x0, symName: __ZNKSt3__16vectorIN21ConexionesComputadoraI13BitacoraLineaE3SitENS_9allocatorIS4_EEE7__allocB7v160006Ev, symObjAddr: 0xECE4, symBinAddr: 0x10001F100, symSize: 0x28 }
  - { offsetInCU: 0x1FF24, offset: 0x424AC, size: 0x8, addend: 0x0, symName: __ZNKSt3__19allocatorIN21ConexionesComputadoraI13BitacoraLineaE3SitEE8max_sizeB7v160006Ev, symObjAddr: 0xED0C, symBinAddr: 0x10001F128, symSize: 0x14 }
  - { offsetInCU: 0x1FF4A, offset: 0x424D2, size: 0x8, addend: 0x0, symName: __ZNKSt3__117__compressed_pairIPN21ConexionesComputadoraI13BitacoraLineaE3SitENS_9allocatorIS4_EEE6secondB7v160006Ev, symObjAddr: 0xED20, symBinAddr: 0x10001F13C, symSize: 0x24 }
  - { offsetInCU: 0x1FF70, offset: 0x424F8, size: 0x8, addend: 0x0, symName: __ZNKSt3__122__compressed_pair_elemINS_9allocatorIN21ConexionesComputadoraI13BitacoraLineaE3SitEEELi1ELb1EE5__getB7v160006Ev, symObjAddr: 0xED44, symBinAddr: 0x10001F160, symSize: 0x14 }
  - { offsetInCU: 0x1FF96, offset: 0x4251E, size: 0x8, addend: 0x0, symName: __ZNKSt3__16vectorIN21ConexionesComputadoraI13BitacoraLineaE3SitENS_9allocatorIS4_EEE9__end_capB7v160006Ev, symObjAddr: 0xED58, symBinAddr: 0x10001F174, symSize: 0x28 }
  - { offsetInCU: 0x1FFBC, offset: 0x42544, size: 0x8, addend: 0x0, symName: __ZNKSt3__117__compressed_pairIPN21ConexionesComputadoraI13BitacoraLineaE3SitENS_9allocatorIS4_EEE5firstB7v160006Ev, symObjAddr: 0xED80, symBinAddr: 0x10001F19C, symSize: 0x24 }
  - { offsetInCU: 0x1FFE2, offset: 0x4256A, size: 0x8, addend: 0x0, symName: __ZNKSt3__122__compressed_pair_elemIPN21ConexionesComputadoraI13BitacoraLineaE3SitELi0ELb0EE5__getB7v160006Ev, symObjAddr: 0xEDA4, symBinAddr: 0x10001F1C0, symSize: 0x14 }
  - { offsetInCU: 0x20008, offset: 0x42590, size: 0x8, addend: 0x0, symName: __ZNSt3__114__split_bufferIN21ConexionesComputadoraI13BitacoraLineaE3SitERNS_9allocatorIS4_EEEC2EmmS7_, symObjAddr: 0xEE0C, symBinAddr: 0x10001F1D4, symSize: 0xD4 }
  - { offsetInCU: 0x2007C, offset: 0x42604, size: 0x8, addend: 0x0, symName: __ZNSt3__117__compressed_pairIPN21ConexionesComputadoraI13BitacoraLineaE3SitERNS_9allocatorIS4_EEEC1B7v160006IDnS8_EEOT_OT0_, symObjAddr: 0xEEE0, symBinAddr: 0x10001F2A8, symSize: 0x3C }
  - { offsetInCU: 0x200D4, offset: 0x4265C, size: 0x8, addend: 0x0, symName: __ZNSt3__114__split_bufferIN21ConexionesComputadoraI13BitacoraLineaE3SitERNS_9allocatorIS4_EEE7__allocB7v160006Ev, symObjAddr: 0xEF5C, symBinAddr: 0x10001F324, symSize: 0x28 }
  - { offsetInCU: 0x200FA, offset: 0x42682, size: 0x8, addend: 0x0, symName: __ZNSt3__114__split_bufferIN21ConexionesComputadoraI13BitacoraLineaE3SitERNS_9allocatorIS4_EEE9__end_capB7v160006Ev, symObjAddr: 0xEF84, symBinAddr: 0x10001F34C, symSize: 0x28 }
  - { offsetInCU: 0x20120, offset: 0x426A8, size: 0x8, addend: 0x0, symName: __ZNSt3__117__compressed_pairIPN21ConexionesComputadoraI13BitacoraLineaE3SitERNS_9allocatorIS4_EEEC2B7v160006IDnS8_EEOT_OT0_, symObjAddr: 0xEFAC, symBinAddr: 0x10001F374, symSize: 0x48 }
  - { offsetInCU: 0x20178, offset: 0x42700, size: 0x8, addend: 0x0, symName: __ZNSt3__122__compressed_pair_elemIRNS_9allocatorIN21ConexionesComputadoraI13BitacoraLineaE3SitEEELi1ELb0EEC2B7v160006IS7_vEEOT_, symObjAddr: 0xEFF4, symBinAddr: 0x10001F3BC, symSize: 0x20 }
  - { offsetInCU: 0x201BA, offset: 0x42742, size: 0x8, addend: 0x0, symName: __ZNSt3__19allocatorIN21ConexionesComputadoraI13BitacoraLineaE3SitEE8allocateB7v160006Em, symObjAddr: 0xF014, symBinAddr: 0x10001F3DC, symSize: 0x84 }
  - { offsetInCU: 0x201EE, offset: 0x42776, size: 0x8, addend: 0x0, symName: __ZNSt3__117__compressed_pairIPN21ConexionesComputadoraI13BitacoraLineaE3SitERNS_9allocatorIS4_EEE6secondB7v160006Ev, symObjAddr: 0xF098, symBinAddr: 0x10001F460, symSize: 0x28 }
  - { offsetInCU: 0x20214, offset: 0x4279C, size: 0x8, addend: 0x0, symName: __ZNSt3__122__compressed_pair_elemIRNS_9allocatorIN21ConexionesComputadoraI13BitacoraLineaE3SitEEELi1ELb0EE5__getB7v160006Ev, symObjAddr: 0xF0C0, symBinAddr: 0x10001F488, symSize: 0x18 }
  - { offsetInCU: 0x2023A, offset: 0x427C2, size: 0x8, addend: 0x0, symName: __ZNSt3__117__compressed_pairIPN21ConexionesComputadoraI13BitacoraLineaE3SitERNS_9allocatorIS4_EEE5firstB7v160006Ev, symObjAddr: 0xF0D8, symBinAddr: 0x10001F4A0, symSize: 0x24 }
  - { offsetInCU: 0x20260, offset: 0x427E8, size: 0x8, addend: 0x0, symName: __ZNKSt3__16vectorIN21ConexionesComputadoraI13BitacoraLineaE3SitENS_9allocatorIS4_EEE17__annotate_deleteB7v160006Ev, symObjAddr: 0xF0FC, symBinAddr: 0x10001F4C4, symSize: 0xB8 }
  - { offsetInCU: 0x20286, offset: 0x4280E, size: 0x8, addend: 0x0, symName: __ZNSt3__116reverse_iteratorIPN21ConexionesComputadoraI13BitacoraLineaE3SitEEC1B7v160006ES5_, symObjAddr: 0xF2E8, symBinAddr: 0x10001F6B0, symSize: 0x34 }
  - { offsetInCU: 0x202BE, offset: 0x42846, size: 0x8, addend: 0x0, symName: __ZNKSt3__116reverse_iteratorIPN21ConexionesComputadoraI13BitacoraLineaE3SitEE4baseB7v160006Ev, symObjAddr: 0xF31C, symBinAddr: 0x10001F6E4, symSize: 0x18 }
  - { offsetInCU: 0x202E4, offset: 0x4286C, size: 0x8, addend: 0x0, symName: __ZNKSt3__16vectorIN21ConexionesComputadoraI13BitacoraLineaE3SitENS_9allocatorIS4_EEE14__annotate_newB7v160006Em, symObjAddr: 0xF370, symBinAddr: 0x10001F738, symSize: 0xAC }
  - { offsetInCU: 0x20319, offset: 0x428A1, size: 0x8, addend: 0x0, symName: __ZNKSt3__16vectorIN21ConexionesComputadoraI13BitacoraLineaE3SitENS_9allocatorIS4_EEE31__annotate_contiguous_containerB7v160006EPKvS9_S9_S9_, symObjAddr: 0xF42C, symBinAddr: 0x10001F7F4, symSize: 0x20 }
  - { offsetInCU: 0x2036F, offset: 0x428F7, size: 0x8, addend: 0x0, symName: __ZNKSt3__16vectorIN21ConexionesComputadoraI13BitacoraLineaE3SitENS_9allocatorIS4_EEE4dataB7v160006Ev, symObjAddr: 0xF44C, symBinAddr: 0x10001F814, symSize: 0x28 }
  - { offsetInCU: 0x20395, offset: 0x4291D, size: 0x8, addend: 0x0, symName: __ZNSt3__129_AllocatorDestroyRangeReverseINS_9allocatorIN21ConexionesComputadoraI13BitacoraLineaE3SitEEENS_16reverse_iteratorIPS5_EEEC1B7v160006ERS6_RS9_SC_, symObjAddr: 0xF4C0, symBinAddr: 0x10001F888, symSize: 0x44 }
  - { offsetInCU: 0x203EC, offset: 0x42974, size: 0x8, addend: 0x0, symName: __ZNSt3__116allocator_traitsINS_9allocatorIN21ConexionesComputadoraI13BitacoraLineaE3SitEEEE9constructB7v160006IS5_JRKS5_EvEEvRS6_PT_DpOT0_, symObjAddr: 0xF54C, symBinAddr: 0x10001F914, symSize: 0x34 }
  - { offsetInCU: 0x20443, offset: 0x429CB, size: 0x8, addend: 0x0, symName: __ZNKSt3__116reverse_iteratorIPN21ConexionesComputadoraI13BitacoraLineaE3SitEEdeB7v160006Ev, symObjAddr: 0xF5A4, symBinAddr: 0x10001F96C, symSize: 0x28 }
  - { offsetInCU: 0x20477, offset: 0x429FF, size: 0x8, addend: 0x0, symName: __ZNSt3__116reverse_iteratorIPN21ConexionesComputadoraI13BitacoraLineaE3SitEEppB7v160006Ev, symObjAddr: 0xF5CC, symBinAddr: 0x10001F994, symSize: 0x20 }
  - { offsetInCU: 0x2049D, offset: 0x42A25, size: 0x8, addend: 0x0, symName: __ZNSt3__128__exception_guard_exceptionsINS_29_AllocatorDestroyRangeReverseINS_9allocatorIN21ConexionesComputadoraI13BitacoraLineaE3SitEEENS_16reverse_iteratorIPS6_EEEEE10__completeB7v160006Ev, symObjAddr: 0xF5EC, symBinAddr: 0x10001F9B4, symSize: 0x1C }
  - { offsetInCU: 0x204C3, offset: 0x42A4B, size: 0x8, addend: 0x0, symName: __ZNSt3__128__exception_guard_exceptionsINS_29_AllocatorDestroyRangeReverseINS_9allocatorIN21ConexionesComputadoraI13BitacoraLineaE3SitEEENS_16reverse_iteratorIPS6_EEEEED1B7v160006Ev, symObjAddr: 0xF608, symBinAddr: 0x10001F9D0, symSize: 0x2C }
  - { offsetInCU: 0x204ED, offset: 0x42A75, size: 0x8, addend: 0x0, symName: __ZNSt3__128__exception_guard_exceptionsINS_29_AllocatorDestroyRangeReverseINS_9allocatorIN21ConexionesComputadoraI13BitacoraLineaE3SitEEENS_16reverse_iteratorIPS6_EEEEEC1B7v160006ESB_, symObjAddr: 0xF634, symBinAddr: 0x10001F9FC, symSize: 0x34 }
  - { offsetInCU: 0x20526, offset: 0x42AAE, size: 0x8, addend: 0x0, symName: __ZNSt3__128__exception_guard_exceptionsINS_29_AllocatorDestroyRangeReverseINS_9allocatorIN21ConexionesComputadoraI13BitacoraLineaE3SitEEENS_16reverse_iteratorIPS6_EEEEEC2B7v160006ESB_, symObjAddr: 0xF668, symBinAddr: 0x10001FA30, symSize: 0x30 }
  - { offsetInCU: 0x2055F, offset: 0x42AE7, size: 0x8, addend: 0x0, symName: __ZNSt3__129_AllocatorDestroyRangeReverseINS_9allocatorIN21ConexionesComputadoraI13BitacoraLineaE3SitEEENS_16reverse_iteratorIPS5_EEEC2B7v160006ERS6_RS9_SC_, symObjAddr: 0xF698, symBinAddr: 0x10001FA60, symSize: 0x38 }
  - { offsetInCU: 0x205B6, offset: 0x42B3E, size: 0x8, addend: 0x0, symName: __ZNSt3__19allocatorIN21ConexionesComputadoraI13BitacoraLineaE3SitEE9constructB7v160006IS4_JRKS4_EEEvPT_DpOT0_, symObjAddr: 0xF6D0, symBinAddr: 0x10001FA98, symSize: 0x30 }
  - { offsetInCU: 0x20611, offset: 0x42B99, size: 0x8, addend: 0x0, symName: __ZNSt3__119__to_address_helperINS_16reverse_iteratorIPN21ConexionesComputadoraI13BitacoraLineaE3SitEEEvE6__callB7v160006ERKS7_, symObjAddr: 0xF700, symBinAddr: 0x10001FAC8, symSize: 0x4C }
  - { offsetInCU: 0x20634, offset: 0x42BBC, size: 0x8, addend: 0x0, symName: __ZNKSt3__116reverse_iteratorIPN21ConexionesComputadoraI13BitacoraLineaE3SitEEptB7v160006Ev, symObjAddr: 0xF74C, symBinAddr: 0x10001FB14, symSize: 0x24 }
  - { offsetInCU: 0x2065A, offset: 0x42BE2, size: 0x8, addend: 0x0, symName: __ZNSt3__128__exception_guard_exceptionsINS_29_AllocatorDestroyRangeReverseINS_9allocatorIN21ConexionesComputadoraI13BitacoraLineaE3SitEEENS_16reverse_iteratorIPS6_EEEEED2B7v160006Ev, symObjAddr: 0xF770, symBinAddr: 0x10001FB38, symSize: 0x48 }
  - { offsetInCU: 0x20684, offset: 0x42C0C, size: 0x8, addend: 0x0, symName: __ZNKSt3__129_AllocatorDestroyRangeReverseINS_9allocatorIN21ConexionesComputadoraI13BitacoraLineaE3SitEEENS_16reverse_iteratorIPS5_EEEclB7v160006Ev, symObjAddr: 0xF7B8, symBinAddr: 0x10001FB80, symSize: 0xB4 }
  - { offsetInCU: 0x206AB, offset: 0x42C33, size: 0x8, addend: 0x0, symName: __ZNSt3__116reverse_iteratorINS0_IPN21ConexionesComputadoraI13BitacoraLineaE3SitEEEEC1B7v160006ES6_, symObjAddr: 0xF8DC, symBinAddr: 0x10001FCA4, symSize: 0x3C }
  - { offsetInCU: 0x206E3, offset: 0x42C6B, size: 0x8, addend: 0x0, symName: __ZNSt3__116allocator_traitsINS_9allocatorIN21ConexionesComputadoraI13BitacoraLineaE3SitEEEE7destroyB7v160006IS5_vEEvRS6_PT_, symObjAddr: 0xF978, symBinAddr: 0x10001FD40, symSize: 0x2C }
  - { offsetInCU: 0x20720, offset: 0x42CA8, size: 0x8, addend: 0x0, symName: __ZNSt3__116reverse_iteratorINS0_IPN21ConexionesComputadoraI13BitacoraLineaE3SitEEEEppB7v160006Ev, symObjAddr: 0xF9C8, symBinAddr: 0x10001FD90, symSize: 0x30 }
  - { offsetInCU: 0x20746, offset: 0x42CCE, size: 0x8, addend: 0x0, symName: __ZNKSt3__116reverse_iteratorINS0_IPN21ConexionesComputadoraI13BitacoraLineaE3SitEEEE4baseB7v160006Ev, symObjAddr: 0xF9F8, symBinAddr: 0x10001FDC0, symSize: 0x24 }
  - { offsetInCU: 0x2076C, offset: 0x42CF4, size: 0x8, addend: 0x0, symName: __ZNSt3__19allocatorIN21ConexionesComputadoraI13BitacoraLineaE3SitEE7destroyB7v160006EPS4_, symObjAddr: 0xFA1C, symBinAddr: 0x10001FDE4, symSize: 0x28 }
  - { offsetInCU: 0x207A5, offset: 0x42D2D, size: 0x8, addend: 0x0, symName: __ZNSt3__119__to_address_helperINS_16reverse_iteratorINS1_IPN21ConexionesComputadoraI13BitacoraLineaE3SitEEEEEvE6__callB7v160006ERKS8_, symObjAddr: 0xFA44, symBinAddr: 0x10001FE0C, symSize: 0x4C }
  - { offsetInCU: 0x207C8, offset: 0x42D50, size: 0x8, addend: 0x0, symName: __ZNKSt3__116reverse_iteratorINS0_IPN21ConexionesComputadoraI13BitacoraLineaE3SitEEEEptB7v160006Ev, symObjAddr: 0xFA90, symBinAddr: 0x10001FE58, symSize: 0x24 }
  - { offsetInCU: 0x207EE, offset: 0x42D76, size: 0x8, addend: 0x0, symName: __ZNKSt3__116reverse_iteratorINS0_IPN21ConexionesComputadoraI13BitacoraLineaE3SitEEEEdeB7v160006Ev, symObjAddr: 0xFAB4, symBinAddr: 0x10001FE7C, symSize: 0x34 }
  - { offsetInCU: 0x20822, offset: 0x42DAA, size: 0x8, addend: 0x0, symName: __ZNSt3__116reverse_iteratorIPN21ConexionesComputadoraI13BitacoraLineaE3SitEEmmB7v160006Ev, symObjAddr: 0xFAE8, symBinAddr: 0x10001FEB0, symSize: 0x20 }
  - { offsetInCU: 0x20848, offset: 0x42DD0, size: 0x8, addend: 0x0, symName: __ZNSt3__116reverse_iteratorINS0_IPN21ConexionesComputadoraI13BitacoraLineaE3SitEEEEC2B7v160006ES6_, symObjAddr: 0xFB08, symBinAddr: 0x10001FED0, symSize: 0x2C }
  - { offsetInCU: 0x20880, offset: 0x42E08, size: 0x8, addend: 0x0, symName: __ZNSt3__116reverse_iteratorIPN21ConexionesComputadoraI13BitacoraLineaE3SitEEC2B7v160006ES5_, symObjAddr: 0xFB34, symBinAddr: 0x10001FEFC, symSize: 0x28 }
  - { offsetInCU: 0x208B8, offset: 0x42E40, size: 0x8, addend: 0x0, symName: __ZNSt3__114__split_bufferIN21ConexionesComputadoraI13BitacoraLineaE3SitERNS_9allocatorIS4_EEED2Ev, symObjAddr: 0xFB5C, symBinAddr: 0x10001FF24, symSize: 0x80 }
  - { offsetInCU: 0x208E4, offset: 0x42E6C, size: 0x8, addend: 0x0, symName: __ZNSt3__114__split_bufferIN21ConexionesComputadoraI13BitacoraLineaE3SitERNS_9allocatorIS4_EEE5clearB7v160006Ev, symObjAddr: 0xFBDC, symBinAddr: 0x10001FFA4, symSize: 0x28 }
  - { offsetInCU: 0x2090A, offset: 0x42E92, size: 0x8, addend: 0x0, symName: __ZNSt3__116allocator_traitsINS_9allocatorIN21ConexionesComputadoraI13BitacoraLineaE3SitEEEE10deallocateB7v160006ERS6_PS5_m, symObjAddr: 0xFC04, symBinAddr: 0x10001FFCC, symSize: 0x34 }
  - { offsetInCU: 0x2094C, offset: 0x42ED4, size: 0x8, addend: 0x0, symName: __ZNKSt3__114__split_bufferIN21ConexionesComputadoraI13BitacoraLineaE3SitERNS_9allocatorIS4_EEE8capacityB7v160006Ev, symObjAddr: 0xFC38, symBinAddr: 0x100020000, symSize: 0x40 }
  - { offsetInCU: 0x20972, offset: 0x42EFA, size: 0x8, addend: 0x0, symName: __ZNSt3__114__split_bufferIN21ConexionesComputadoraI13BitacoraLineaE3SitERNS_9allocatorIS4_EEE17__destruct_at_endB7v160006EPS4_, symObjAddr: 0xFC78, symBinAddr: 0x100020040, symSize: 0x2C }
  - { offsetInCU: 0x209A6, offset: 0x42F2E, size: 0x8, addend: 0x0, symName: __ZNSt3__114__split_bufferIN21ConexionesComputadoraI13BitacoraLineaE3SitERNS_9allocatorIS4_EEE17__destruct_at_endB7v160006EPS4_NS_17integral_constantIbLb0EEE, symObjAddr: 0xFCA4, symBinAddr: 0x10002006C, symSize: 0x94 }
  - { offsetInCU: 0x209E6, offset: 0x42F6E, size: 0x8, addend: 0x0, symName: __ZNSt3__19allocatorIN21ConexionesComputadoraI13BitacoraLineaE3SitEE10deallocateB7v160006EPS4_m, symObjAddr: 0xFD38, symBinAddr: 0x100020100, symSize: 0x70 }
  - { offsetInCU: 0x20A28, offset: 0x42FB0, size: 0x8, addend: 0x0, symName: __ZNKSt3__114__split_bufferIN21ConexionesComputadoraI13BitacoraLineaE3SitERNS_9allocatorIS4_EEE9__end_capB7v160006Ev, symObjAddr: 0xFDA8, symBinAddr: 0x100020170, symSize: 0x28 }
  - { offsetInCU: 0x20A4E, offset: 0x42FD6, size: 0x8, addend: 0x0, symName: __ZNKSt3__117__compressed_pairIPN21ConexionesComputadoraI13BitacoraLineaE3SitERNS_9allocatorIS4_EEE5firstB7v160006Ev, symObjAddr: 0xFDD0, symBinAddr: 0x100020198, symSize: 0x24 }
  - { offsetInCU: 0x20A74, offset: 0x42FFC, size: 0x8, addend: 0x0, symName: __ZNSt3__16vectorIN21ConexionesComputadoraI13BitacoraLineaE3SitENS_9allocatorIS4_EEE11__make_iterB7v160006EPS4_, symObjAddr: 0xFDF4, symBinAddr: 0x1000201BC, symSize: 0x34 }
  - { offsetInCU: 0x20AA9, offset: 0x43031, size: 0x8, addend: 0x0, symName: __ZNSt3__111__wrap_iterIPN21ConexionesComputadoraI13BitacoraLineaE3SitEEC1B7v160006EPKvS5_, symObjAddr: 0xFE28, symBinAddr: 0x1000201F0, symSize: 0x3C }
  - { offsetInCU: 0x20AEF, offset: 0x43077, size: 0x8, addend: 0x0, symName: __ZNSt3__111__wrap_iterIPN21ConexionesComputadoraI13BitacoraLineaE3SitEEC2B7v160006EPKvS5_, symObjAddr: 0xFE64, symBinAddr: 0x10002022C, symSize: 0x24 }
  - { offsetInCU: 0x20B35, offset: 0x430BD, size: 0x8, addend: 0x0, symName: __ZNKSt3__111__wrap_iterIPN21ConexionesComputadoraI13BitacoraLineaE3SitEE4baseB7v160006Ev, symObjAddr: 0xFED0, symBinAddr: 0x100020298, symSize: 0x18 }
  - { offsetInCU: 0x20B5B, offset: 0x430E3, size: 0x8, addend: 0x0, symName: __ZN10BinaryTreeIN21ConexionesComputadoraI13BitacoraLineaE3SitEE5clearEP8TreeNodeIS3_E, symObjAddr: 0xFEE8, symBinAddr: 0x1000202B0, symSize: 0x94 }
  - { offsetInCU: 0x20B90, offset: 0x43118, size: 0x8, addend: 0x0, symName: __ZNSt3__16vectorIN21ConexionesComputadoraI13BitacoraLineaE3SitENS_9allocatorIS4_EEED2B7v160006Ev, symObjAddr: 0xFF7C, symBinAddr: 0x100020344, symSize: 0x3C }
  - { offsetInCU: 0x20BBA, offset: 0x43142, size: 0x8, addend: 0x0, symName: __ZNSt3__16vectorIN21ConexionesComputadoraI13BitacoraLineaE3SitENS_9allocatorIS4_EEE16__destroy_vectorC1ERS7_, symObjAddr: 0xFFB8, symBinAddr: 0x100020380, symSize: 0x34 }
  - { offsetInCU: 0x20BF3, offset: 0x4317B, size: 0x8, addend: 0x0, symName: __ZNSt3__16vectorIN21ConexionesComputadoraI13BitacoraLineaE3SitENS_9allocatorIS4_EEE16__destroy_vectorclB7v160006Ev, symObjAddr: 0xFFEC, symBinAddr: 0x1000203B4, symSize: 0x9C }
  - { offsetInCU: 0x20C19, offset: 0x431A1, size: 0x8, addend: 0x0, symName: __ZNSt3__16vectorIN21ConexionesComputadoraI13BitacoraLineaE3SitENS_9allocatorIS4_EEE16__destroy_vectorC2ERS7_, symObjAddr: 0x10088, symBinAddr: 0x100020450, symSize: 0x20 }
  - { offsetInCU: 0x20C52, offset: 0x431DA, size: 0x8, addend: 0x0, symName: __ZNSt3__16vectorIN21ConexionesComputadoraI13BitacoraLineaE3SitENS_9allocatorIS4_EEE7__clearB7v160006Ev, symObjAddr: 0x100B8, symBinAddr: 0x100020480, symSize: 0x28 }
  - { offsetInCU: 0x20C78, offset: 0x43200, size: 0x8, addend: 0x0, symName: __ZNSt3__16vectorIN21ConexionesComputadoraI13BitacoraLineaE3SitENS_9allocatorIS4_EEE22__base_destruct_at_endB7v160006EPS4_, symObjAddr: 0x100E0, symBinAddr: 0x1000204A8, symSize: 0xA0 }
  - { offsetInCU: 0x20CBC, offset: 0x43244, size: 0x8, addend: 0x0, symName: __ZNKSt3__16__treeINS_12__value_typeINS_12basic_stringIcNS_11char_traitsIcEENS_9allocatorIcEEEEiEENS_19__map_value_compareIS7_S8_NS_4lessIS7_EELb1EEENS5_IS8_EEE4sizeB7v160006Ev, symObjAddr: 0x102E0, symBinAddr: 0x100020548, symSize: 0x28 }
  - { offsetInCU: 0x20CE2, offset: 0x4326A, size: 0x8, addend: 0x0, symName: __ZNKSt3__117__compressed_pairImNS_19__map_value_compareINS_12basic_stringIcNS_11char_traitsIcEENS_9allocatorIcEEEENS_12__value_typeIS7_iEENS_4lessIS7_EELb1EEEE5firstB7v160006Ev, symObjAddr: 0x10308, symBinAddr: 0x100020570, symSize: 0x24 }
  - { offsetInCU: 0x20D2B, offset: 0x432B3, size: 0x8, addend: 0x0, symName: __ZNSt3__13mapINS_12basic_stringIcNS_11char_traitsIcEENS_9allocatorIcEEEENS0_IS6_iNS_4lessIS6_EENS4_INS_4pairIKS6_iEEEEEES8_NS4_INS9_ISA_SD_EEEEEC1B7v160006Ev, symObjAddr: 0x11CCC, symBinAddr: 0x100020594, symSize: 0x2C }
  - { offsetInCU: 0x20D55, offset: 0x432DD, size: 0x8, addend: 0x0, symName: __ZNSt3__13mapINS_12basic_stringIcNS_11char_traitsIcEENS_9allocatorIcEEEENS0_IS6_iNS_4lessIS6_EENS4_INS_4pairIKS6_iEEEEEES8_NS4_INS9_ISA_SD_EEEEEixERSA_, symObjAddr: 0x11CF8, symBinAddr: 0x1000205C0, symSize: 0xC8 }
  - { offsetInCU: 0x20DCD, offset: 0x43355, size: 0x8, addend: 0x0, symName: __ZNSt3__13mapINS_12basic_stringIcNS_11char_traitsIcEENS_9allocatorIcEEEENS0_IS6_iNS_4lessIS6_EENS4_INS_4pairIKS6_iEEEEEES8_NS4_INS9_ISA_SD_EEEEE5beginB7v160006Ev, symObjAddr: 0x11DC0, symBinAddr: 0x100020688, symSize: 0x38 }
  - { offsetInCU: 0x20DF3, offset: 0x4337B, size: 0x8, addend: 0x0, symName: __ZNSt3__13mapINS_12basic_stringIcNS_11char_traitsIcEENS_9allocatorIcEEEENS0_IS6_iNS_4lessIS6_EENS4_INS_4pairIKS6_iEEEEEES8_NS4_INS9_ISA_SD_EEEEE3endB7v160006Ev, symObjAddr: 0x11DF8, symBinAddr: 0x1000206C0, symSize: 0x38 }
  - { offsetInCU: 0x20E19, offset: 0x433A1, size: 0x8, addend: 0x0, symName: __ZNKSt3__114__map_iteratorINS_15__tree_iteratorINS_12__value_typeINS_12basic_stringIcNS_11char_traitsIcEENS_9allocatorIcEEEENS_3mapIS8_iNS_4lessIS8_EENS6_INS_4pairIKS8_iEEEEEEEEPNS_11__tree_nodeISH_PvEElEEEdeB7v160006Ev, symObjAddr: 0x11E60, symBinAddr: 0x100020728, symSize: 0x28 }
  - { offsetInCU: 0x20E3F, offset: 0x433C7, size: 0x8, addend: 0x0, symName: __ZNKSt3__13mapINS_12basic_stringIcNS_11char_traitsIcEENS_9allocatorIcEEEEiNS_4lessIS6_EENS4_INS_4pairIKS6_iEEEEE5beginB7v160006Ev, symObjAddr: 0x11E88, symBinAddr: 0x100020750, symSize: 0x38 }
  - { offsetInCU: 0x20E65, offset: 0x433ED, size: 0x8, addend: 0x0, symName: __ZNKSt3__13mapINS_12basic_stringIcNS_11char_traitsIcEENS_9allocatorIcEEEEiNS_4lessIS6_EENS4_INS_4pairIKS6_iEEEEE3endB7v160006Ev, symObjAddr: 0x11EC0, symBinAddr: 0x100020788, symSize: 0x38 }
  - { offsetInCU: 0x20E8B, offset: 0x43413, size: 0x8, addend: 0x0, symName: __ZNKSt3__120__map_const_iteratorINS_21__tree_const_iteratorINS_12__value_typeINS_12basic_stringIcNS_11char_traitsIcEENS_9allocatorIcEEEEiEEPNS_11__tree_nodeIS9_PvEElEEEdeB7v160006Ev, symObjAddr: 0x11F28, symBinAddr: 0x1000207F0, symSize: 0x28 }
  - { offsetInCU: 0x20EB1, offset: 0x43439, size: 0x8, addend: 0x0, symName: __ZNSt3__120__map_const_iteratorINS_21__tree_const_iteratorINS_12__value_typeINS_12basic_stringIcNS_11char_traitsIcEENS_9allocatorIcEEEEiEEPNS_11__tree_nodeIS9_PvEElEEEppB7v160006Ev, symObjAddr: 0x11F50, symBinAddr: 0x100020818, symSize: 0x2C }
  - { offsetInCU: 0x20ED7, offset: 0x4345F, size: 0x8, addend: 0x0, symName: __ZNSt3__114__map_iteratorINS_15__tree_iteratorINS_12__value_typeINS_12basic_stringIcNS_11char_traitsIcEENS_9allocatorIcEEEENS_3mapIS8_iNS_4lessIS8_EENS6_INS_4pairIKS8_iEEEEEEEEPNS_11__tree_nodeISH_PvEElEEEppB7v160006Ev, symObjAddr: 0x11F7C, symBinAddr: 0x100020844, symSize: 0x2C }
  - { offsetInCU: 0x20EFD, offset: 0x43485, size: 0x8, addend: 0x0, symName: __ZNSt3__13mapINS_12basic_stringIcNS_11char_traitsIcEENS_9allocatorIcEEEENS0_IS6_iNS_4lessIS6_EENS4_INS_4pairIKS6_iEEEEEES8_NS4_INS9_ISA_SD_EEEEED1B7v160006Ev, symObjAddr: 0x11FA8, symBinAddr: 0x100020870, symSize: 0x2C }
  - { offsetInCU: 0x20F27, offset: 0x434AF, size: 0x8, addend: 0x0, symName: __ZNSt3__13mapINS_12basic_stringIcNS_11char_traitsIcEENS_9allocatorIcEEEENS0_IS6_iNS_4lessIS6_EENS4_INS_4pairIKS6_iEEEEEES8_NS4_INS9_ISA_SD_EEEEEC2B7v160006Ev, symObjAddr: 0x11FD4, symBinAddr: 0x10002089C, symSize: 0x40 }
  - { offsetInCU: 0x20F51, offset: 0x434D9, size: 0x8, addend: 0x0, symName: __ZNSt3__119__map_value_compareINS_12basic_stringIcNS_11char_traitsIcEENS_9allocatorIcEEEENS_12__value_typeIS6_NS_3mapIS6_iNS_4lessIS6_EENS4_INS_4pairIKS6_iEEEEEEEESA_Lb1EEC1B7v160006ESA_, symObjAddr: 0x12014, symBinAddr: 0x1000208DC, symSize: 0x2C }
  - { offsetInCU: 0x20F8A, offset: 0x43512, size: 0x8, addend: 0x0, symName: __ZNSt3__16__treeINS_12__value_typeINS_12basic_stringIcNS_11char_traitsIcEENS_9allocatorIcEEEENS_3mapIS7_iNS_4lessIS7_EENS5_INS_4pairIKS7_iEEEEEEEENS_19__map_value_compareIS7_SG_SA_Lb1EEENS5_ISG_EEEC1ERKSI_, symObjAddr: 0x12040, symBinAddr: 0x100020908, symSize: 0x34 }
  - { offsetInCU: 0x20FC5, offset: 0x4354D, size: 0x8, addend: 0x0, symName: __ZNSt3__119__map_value_compareINS_12basic_stringIcNS_11char_traitsIcEENS_9allocatorIcEEEENS_12__value_typeIS6_NS_3mapIS6_iNS_4lessIS6_EENS4_INS_4pairIKS6_iEEEEEEEESA_Lb1EEC2B7v160006ESA_, symObjAddr: 0x12074, symBinAddr: 0x10002093C, symSize: 0x14 }
  - { offsetInCU: 0x20FFE, offset: 0x43586, size: 0x8, addend: 0x0, symName: __ZNSt3__16__treeINS_12__value_typeINS_12basic_stringIcNS_11char_traitsIcEENS_9allocatorIcEEEENS_3mapIS7_iNS_4lessIS7_EENS5_INS_4pairIKS7_iEEEEEEEENS_19__map_value_compareIS7_SG_SA_Lb1EEENS5_ISG_EEEC2ERKSI_, symObjAddr: 0x12088, symBinAddr: 0x100020950, symSize: 0x70 }
  - { offsetInCU: 0x21039, offset: 0x435C1, size: 0x8, addend: 0x0, symName: __ZNSt3__117__compressed_pairINS_15__tree_end_nodeIPNS_16__tree_node_baseIPvEEEENS_9allocatorINS_11__tree_nodeINS_12__value_typeINS_12basic_stringIcNS_11char_traitsIcEENS7_IcEEEENS_3mapISE_iNS_4lessISE_EENS7_INS_4pairIKSE_iEEEEEEEES3_EEEEEC1B7v160006ILb1EvEEv, symObjAddr: 0x120F8, symBinAddr: 0x1000209C0, symSize: 0x2C }
  - { offsetInCU: 0x2106E, offset: 0x435F6, size: 0x8, addend: 0x0, symName: __ZNSt3__117__compressed_pairImNS_19__map_value_compareINS_12basic_stringIcNS_11char_traitsIcEENS_9allocatorIcEEEENS_12__value_typeIS7_NS_3mapIS7_iNS_4lessIS7_EENS5_INS_4pairIKS7_iEEEEEEEESB_Lb1EEEEC1B7v160006IiRKSI_EEOT_OT0_, symObjAddr: 0x12124, symBinAddr: 0x1000209EC, symSize: 0x3C }
  - { offsetInCU: 0x210C6, offset: 0x4364E, size: 0x8, addend: 0x0, symName: __ZNSt3__16__treeINS_12__value_typeINS_12basic_stringIcNS_11char_traitsIcEENS_9allocatorIcEEEENS_3mapIS7_iNS_4lessIS7_EENS5_INS_4pairIKS7_iEEEEEEEENS_19__map_value_compareIS7_SG_SA_Lb1EEENS5_ISG_EEE10__end_nodeB7v160006Ev, symObjAddr: 0x12160, symBinAddr: 0x100020A28, symSize: 0x2C }
  - { offsetInCU: 0x210EC, offset: 0x43674, size: 0x8, addend: 0x0, symName: __ZNSt3__16__treeINS_12__value_typeINS_12basic_stringIcNS_11char_traitsIcEENS_9allocatorIcEEEENS_3mapIS7_iNS_4lessIS7_EENS5_INS_4pairIKS7_iEEEEEEEENS_19__map_value_compareIS7_SG_SA_Lb1EEENS5_ISG_EEE12__begin_nodeB7v160006Ev, symObjAddr: 0x1218C, symBinAddr: 0x100020A54, symSize: 0x14 }
  - { offsetInCU: 0x21112, offset: 0x4369A, size: 0x8, addend: 0x0, symName: __ZNSt3__117__compressed_pairINS_15__tree_end_nodeIPNS_16__tree_node_baseIPvEEEENS_9allocatorINS_11__tree_nodeINS_12__value_typeINS_12basic_stringIcNS_11char_traitsIcEENS7_IcEEEENS_3mapISE_iNS_4lessISE_EENS7_INS_4pairIKSE_iEEEEEEEES3_EEEEEC2B7v160006ILb1EvEEv, symObjAddr: 0x121A0, symBinAddr: 0x100020A68, symSize: 0x34 }
  - { offsetInCU: 0x21147, offset: 0x436CF, size: 0x8, addend: 0x0, symName: __ZNSt3__122__compressed_pair_elemINS_9allocatorINS_11__tree_nodeINS_12__value_typeINS_12basic_stringIcNS_11char_traitsIcEENS1_IcEEEENS_3mapIS8_iNS_4lessIS8_EENS1_INS_4pairIKS8_iEEEEEEEEPvEEEELi1ELb1EEC2B7v160006ENS_16__value_init_tagE, symObjAddr: 0x121D4, symBinAddr: 0x100020A9C, symSize: 0x2C }
  - { offsetInCU: 0x2117C, offset: 0x43704, size: 0x8, addend: 0x0, symName: __ZNSt3__19allocatorINS_11__tree_nodeINS_12__value_typeINS_12basic_stringIcNS_11char_traitsIcEENS0_IcEEEENS_3mapIS7_iNS_4lessIS7_EENS0_INS_4pairIKS7_iEEEEEEEEPvEEEC2B7v160006Ev, symObjAddr: 0x12200, symBinAddr: 0x100020AC8, symSize: 0x2C }
  - { offsetInCU: 0x211A6, offset: 0x4372E, size: 0x8, addend: 0x0, symName: __ZNSt3__116__non_trivial_ifILb1ENS_9allocatorINS_11__tree_nodeINS_12__value_typeINS_12basic_stringIcNS_11char_traitsIcEENS1_IcEEEENS_3mapIS8_iNS_4lessIS8_EENS1_INS_4pairIKS8_iEEEEEEEEPvEEEEEC2B7v160006Ev, symObjAddr: 0x1222C, symBinAddr: 0x100020AF4, symSize: 0x14 }
  - { offsetInCU: 0x211D0, offset: 0x43758, size: 0x8, addend: 0x0, symName: __ZNSt3__117__compressed_pairImNS_19__map_value_compareINS_12basic_stringIcNS_11char_traitsIcEENS_9allocatorIcEEEENS_12__value_typeIS7_NS_3mapIS7_iNS_4lessIS7_EENS5_INS_4pairIKS7_iEEEEEEEESB_Lb1EEEEC2B7v160006IiRKSI_EEOT_OT0_, symObjAddr: 0x12240, symBinAddr: 0x100020B08, symSize: 0x44 }
  - { offsetInCU: 0x21228, offset: 0x437B0, size: 0x8, addend: 0x0, symName: __ZNSt3__122__compressed_pair_elemINS_19__map_value_compareINS_12basic_stringIcNS_11char_traitsIcEENS_9allocatorIcEEEENS_12__value_typeIS7_NS_3mapIS7_iNS_4lessIS7_EENS5_INS_4pairIKS7_iEEEEEEEESB_Lb1EEELi1ELb1EEC2B7v160006IRKSI_vEEOT_, symObjAddr: 0x12284, symBinAddr: 0x100020B4C, symSize: 0x18 }
  - { offsetInCU: 0x2126A, offset: 0x437F2, size: 0x8, addend: 0x0, symName: __ZNSt3__117__compressed_pairINS_15__tree_end_nodeIPNS_16__tree_node_baseIPvEEEENS_9allocatorINS_11__tree_nodeINS_12__value_typeINS_12basic_stringIcNS_11char_traitsIcEENS7_IcEEEENS_3mapISE_iNS_4lessISE_EENS7_INS_4pairIKSE_iEEEEEEEES3_EEEEE5firstB7v160006Ev, symObjAddr: 0x1229C, symBinAddr: 0x100020B64, symSize: 0x24 }
  - { offsetInCU: 0x21290, offset: 0x43818, size: 0x8, addend: 0x0, symName: __ZNSt3__16__treeINS_12__value_typeINS_12basic_stringIcNS_11char_traitsIcEENS_9allocatorIcEEEENS_3mapIS7_iNS_4lessIS7_EENS5_INS_4pairIKS7_iEEEEEEEENS_19__map_value_compareIS7_SG_SA_Lb1EEENS5_ISG_EEE12__find_equalIS7_EERPNS_16__tree_node_baseIPvEERPNS_15__tree_end_nodeISP_EERKT_, symObjAddr: 0x122C0, symBinAddr: 0x100020B88, symSize: 0x184 }
  - { offsetInCU: 0x212FC, offset: 0x43884, size: 0x8, addend: 0x0, symName: __ZNSt3__13mapINS_12basic_stringIcNS_11char_traitsIcEENS_9allocatorIcEEEENS0_IS6_iNS_4lessIS6_EENS4_INS_4pairIKS6_iEEEEEES8_NS4_INS9_ISA_SD_EEEEE25__construct_node_with_keyERSA_, symObjAddr: 0x12444, symBinAddr: 0x100020D0C, symSize: 0x154 }
  - { offsetInCU: 0x21351, offset: 0x438D9, size: 0x8, addend: 0x0, symName: __ZNSt3__16__treeINS_12__value_typeINS_12basic_stringIcNS_11char_traitsIcEENS_9allocatorIcEEEENS_3mapIS7_iNS_4lessIS7_EENS5_INS_4pairIKS7_iEEEEEEEENS_19__map_value_compareIS7_SG_SA_Lb1EEENS5_ISG_EEE16__insert_node_atEPNS_15__tree_end_nodeIPNS_16__tree_node_baseIPvEEEERSP_SP_, symObjAddr: 0x12598, symBinAddr: 0x100020E60, symSize: 0xCC }
  - { offsetInCU: 0x213A5, offset: 0x4392D, size: 0x8, addend: 0x0, symName: __ZNKSt3__110unique_ptrINS_11__tree_nodeINS_12__value_typeINS_12basic_stringIcNS_11char_traitsIcEENS_9allocatorIcEEEENS_3mapIS8_iNS_4lessIS8_EENS6_INS_4pairIKS8_iEEEEEEEEPvEENS_21__map_node_destructorINS6_ISJ_EEEEE3getB7v160006Ev, symObjAddr: 0x12664, symBinAddr: 0x100020F2C, symSize: 0x28 }
  - { offsetInCU: 0x213CB, offset: 0x43953, size: 0x8, addend: 0x0, symName: __ZNSt3__110unique_ptrINS_11__tree_nodeINS_12__value_typeINS_12basic_stringIcNS_11char_traitsIcEENS_9allocatorIcEEEENS_3mapIS8_iNS_4lessIS8_EENS6_INS_4pairIKS8_iEEEEEEEEPvEENS_21__map_node_destructorINS6_ISJ_EEEEE7releaseB7v160006Ev, symObjAddr: 0x1268C, symBinAddr: 0x100020F54, symSize: 0x44 }
  - { offsetInCU: 0x21400, offset: 0x43988, size: 0x8, addend: 0x0, symName: __ZNSt3__110unique_ptrINS_11__tree_nodeINS_12__value_typeINS_12basic_stringIcNS_11char_traitsIcEENS_9allocatorIcEEEENS_3mapIS8_iNS_4lessIS8_EENS6_INS_4pairIKS8_iEEEEEEEEPvEENS_21__map_node_destructorINS6_ISJ_EEEEED1B7v160006Ev, symObjAddr: 0x126D0, symBinAddr: 0x100020F98, symSize: 0x2C }
  - { offsetInCU: 0x2142A, offset: 0x439B2, size: 0x8, addend: 0x0, symName: __ZNSt3__112__value_typeINS_12basic_stringIcNS_11char_traitsIcEENS_9allocatorIcEEEENS_3mapIS6_iNS_4lessIS6_EENS4_INS_4pairIKS6_iEEEEEEE11__get_valueB7v160006Ev, symObjAddr: 0x126FC, symBinAddr: 0x100020FC4, symSize: 0x14 }
  - { offsetInCU: 0x21450, offset: 0x439D8, size: 0x8, addend: 0x0, symName: __ZNKSt3__16__treeINS_12__value_typeINS_12basic_stringIcNS_11char_traitsIcEENS_9allocatorIcEEEENS_3mapIS7_iNS_4lessIS7_EENS5_INS_4pairIKS7_iEEEEEEEENS_19__map_value_compareIS7_SG_SA_Lb1EEENS5_ISG_EEE6__rootB7v160006Ev, symObjAddr: 0x12710, symBinAddr: 0x100020FD8, symSize: 0x28 }
  - { offsetInCU: 0x21476, offset: 0x439FE, size: 0x8, addend: 0x0, symName: __ZNKSt3__16__treeINS_12__value_typeINS_12basic_stringIcNS_11char_traitsIcEENS_9allocatorIcEEEENS_3mapIS7_iNS_4lessIS7_EENS5_INS_4pairIKS7_iEEEEEEEENS_19__map_value_compareIS7_SG_SA_Lb1EEENS5_ISG_EEE10__root_ptrEv, symObjAddr: 0x12738, symBinAddr: 0x100021000, symSize: 0x24 }
  - { offsetInCU: 0x2149C, offset: 0x43A24, size: 0x8, addend: 0x0, symName: __ZNSt3__16__treeINS_12__value_typeINS_12basic_stringIcNS_11char_traitsIcEENS_9allocatorIcEEEENS_3mapIS7_iNS_4lessIS7_EENS5_INS_4pairIKS7_iEEEEEEEENS_19__map_value_compareIS7_SG_SA_Lb1EEENS5_ISG_EEE10value_compB7v160006Ev, symObjAddr: 0x1275C, symBinAddr: 0x100021024, symSize: 0x28 }
  - { offsetInCU: 0x214C2, offset: 0x43A4A, size: 0x8, addend: 0x0, symName: __ZNKSt3__119__map_value_compareINS_12basic_stringIcNS_11char_traitsIcEENS_9allocatorIcEEEENS_12__value_typeIS6_NS_3mapIS6_iNS_4lessIS6_EENS4_INS_4pairIKS6_iEEEEEEEESA_Lb1EEclB7v160006ERSC_RKSG_, symObjAddr: 0x12784, symBinAddr: 0x10002104C, symSize: 0x50 }
  - { offsetInCU: 0x21506, offset: 0x43A8E, size: 0x8, addend: 0x0, symName: __ZNKSt3__119__map_value_compareINS_12basic_stringIcNS_11char_traitsIcEENS_9allocatorIcEEEENS_12__value_typeIS6_NS_3mapIS6_iNS_4lessIS6_EENS4_INS_4pairIKS6_iEEEEEEEESA_Lb1EEclB7v160006ERKSG_RSC_, symObjAddr: 0x127D4, symBinAddr: 0x10002109C, symSize: 0x48 }
  - { offsetInCU: 0x2154A, offset: 0x43AD2, size: 0x8, addend: 0x0, symName: __ZNKSt3__16__treeINS_12__value_typeINS_12basic_stringIcNS_11char_traitsIcEENS_9allocatorIcEEEENS_3mapIS7_iNS_4lessIS7_EENS5_INS_4pairIKS7_iEEEEEEEENS_19__map_value_compareIS7_SG_SA_Lb1EEENS5_ISG_EEE10__end_nodeB7v160006Ev, symObjAddr: 0x1281C, symBinAddr: 0x1000210E4, symSize: 0x2C }
  - { offsetInCU: 0x21570, offset: 0x43AF8, size: 0x8, addend: 0x0, symName: __ZNKSt3__117__compressed_pairINS_15__tree_end_nodeIPNS_16__tree_node_baseIPvEEEENS_9allocatorINS_11__tree_nodeINS_12__value_typeINS_12basic_stringIcNS_11char_traitsIcEENS7_IcEEEENS_3mapISE_iNS_4lessISE_EENS7_INS_4pairIKSE_iEEEEEEEES3_EEEEE5firstB7v160006Ev, symObjAddr: 0x12848, symBinAddr: 0x100021110, symSize: 0x24 }
  - { offsetInCU: 0x21596, offset: 0x43B1E, size: 0x8, addend: 0x0, symName: __ZNSt3__117__compressed_pairImNS_19__map_value_compareINS_12basic_stringIcNS_11char_traitsIcEENS_9allocatorIcEEEENS_12__value_typeIS7_NS_3mapIS7_iNS_4lessIS7_EENS5_INS_4pairIKS7_iEEEEEEEESB_Lb1EEEE6secondB7v160006Ev, symObjAddr: 0x1286C, symBinAddr: 0x100021134, symSize: 0x24 }
  - { offsetInCU: 0x215BC, offset: 0x43B44, size: 0x8, addend: 0x0, symName: __ZNSt3__122__compressed_pair_elemINS_19__map_value_compareINS_12basic_stringIcNS_11char_traitsIcEENS_9allocatorIcEEEENS_12__value_typeIS7_NS_3mapIS7_iNS_4lessIS7_EENS5_INS_4pairIKS7_iEEEEEEEESB_Lb1EEELi1ELb1EE5__getB7v160006Ev, symObjAddr: 0x12890, symBinAddr: 0x100021158, symSize: 0x14 }
  - { offsetInCU: 0x215E2, offset: 0x43B6A, size: 0x8, addend: 0x0, symName: __ZNKSt3__112__value_typeINS_12basic_stringIcNS_11char_traitsIcEENS_9allocatorIcEEEENS_3mapIS6_iNS_4lessIS6_EENS4_INS_4pairIKS6_iEEEEEEE11__get_valueB7v160006Ev, symObjAddr: 0x128A4, symBinAddr: 0x10002116C, symSize: 0x14 }
  - { offsetInCU: 0x21608, offset: 0x43B90, size: 0x8, addend: 0x0, symName: __ZNSt3__16__treeINS_12__value_typeINS_12basic_stringIcNS_11char_traitsIcEENS_9allocatorIcEEEENS_3mapIS7_iNS_4lessIS7_EENS5_INS_4pairIKS7_iEEEEEEEENS_19__map_value_compareIS7_SG_SA_Lb1EEENS5_ISG_EEE12__node_allocB7v160006Ev, symObjAddr: 0x128B8, symBinAddr: 0x100021180, symSize: 0x28 }
  - { offsetInCU: 0x2162E, offset: 0x43BB6, size: 0x8, addend: 0x0, symName: __ZNSt3__116allocator_traitsINS_9allocatorINS_11__tree_nodeINS_12__value_typeINS_12basic_stringIcNS_11char_traitsIcEENS1_IcEEEENS_3mapIS8_iNS_4lessIS8_EENS1_INS_4pairIKS8_iEEEEEEEEPvEEEEE8allocateB7v160006ERSK_m, symObjAddr: 0x128E0, symBinAddr: 0x1000211A8, symSize: 0x2C }
  - { offsetInCU: 0x21661, offset: 0x43BE9, size: 0x8, addend: 0x0, symName: __ZNSt3__121__map_node_destructorINS_9allocatorINS_11__tree_nodeINS_12__value_typeINS_12basic_stringIcNS_11char_traitsIcEENS1_IcEEEENS_3mapIS8_iNS_4lessIS8_EENS1_INS_4pairIKS8_iEEEEEEEEPvEEEEEC1B7v160006ERSK_, symObjAddr: 0x1290C, symBinAddr: 0x1000211D4, symSize: 0x34 }
  - { offsetInCU: 0x2169F, offset: 0x43C27, size: 0x8, addend: 0x0, symName: __ZNSt3__110unique_ptrINS_11__tree_nodeINS_12__value_typeINS_12basic_stringIcNS_11char_traitsIcEENS_9allocatorIcEEEENS_3mapIS8_iNS_4lessIS8_EENS6_INS_4pairIKS8_iEEEEEEEEPvEENS_21__map_node_destructorINS6_ISJ_EEEEEC1B7v160006ILb1EvEEPSJ_NS_16__dependent_typeINS_27__unique_ptr_deleter_sfinaeISM_EEXT_EE20__good_rval_ref_typeE, symObjAddr: 0x12940, symBinAddr: 0x100021208, symSize: 0x3C }
  - { offsetInCU: 0x216F0, offset: 0x43C78, size: 0x8, addend: 0x0, symName: __ZNSt3__116allocator_traitsINS_9allocatorINS_11__tree_nodeINS_12__value_typeINS_12basic_stringIcNS_11char_traitsIcEENS1_IcEEEENS_3mapIS8_iNS_4lessIS8_EENS1_INS_4pairIKS8_iEEEEEEEEPvEEEEE9constructB7v160006ISD_JRSD_EvEEvRSK_PT_DpOT0_, symObjAddr: 0x1297C, symBinAddr: 0x100021244, symSize: 0x34 }
  - { offsetInCU: 0x21747, offset: 0x43CCF, size: 0x8, addend: 0x0, symName: __ZNKSt3__110unique_ptrINS_11__tree_nodeINS_12__value_typeINS_12basic_stringIcNS_11char_traitsIcEENS_9allocatorIcEEEENS_3mapIS8_iNS_4lessIS8_EENS6_INS_4pairIKS8_iEEEEEEEEPvEENS_21__map_node_destructorINS6_ISJ_EEEEEptB7v160006Ev, symObjAddr: 0x129B0, symBinAddr: 0x100021278, symSize: 0x28 }
  - { offsetInCU: 0x2176D, offset: 0x43CF5, size: 0x8, addend: 0x0, symName: __ZNSt3__110unique_ptrINS_11__tree_nodeINS_12__value_typeINS_12basic_stringIcNS_11char_traitsIcEENS_9allocatorIcEEEENS_3mapIS8_iNS_4lessIS8_EENS6_INS_4pairIKS8_iEEEEEEEEPvEENS_21__map_node_destructorINS6_ISJ_EEEEE11get_deleterB7v160006Ev, symObjAddr: 0x129D8, symBinAddr: 0x1000212A0, symSize: 0x24 }
  - { offsetInCU: 0x21798, offset: 0x43D20, size: 0x8, addend: 0x0, symName: __ZNSt3__116allocator_traitsINS_9allocatorINS_11__tree_nodeINS_12__value_typeINS_12basic_stringIcNS_11char_traitsIcEENS1_IcEEEENS_3mapIS8_iNS_4lessIS8_EENS1_INS_4pairIKS8_iEEEEEEEEPvEEEEE9constructB7v160006ISG_JEvEEvRSK_PT_DpOT0_, symObjAddr: 0x129FC, symBinAddr: 0x1000212C4, symSize: 0x2C }
  - { offsetInCU: 0x217DA, offset: 0x43D62, size: 0x8, addend: 0x0, symName: __ZNSt3__117__compressed_pairINS_15__tree_end_nodeIPNS_16__tree_node_baseIPvEEEENS_9allocatorINS_11__tree_nodeINS_12__value_typeINS_12basic_stringIcNS_11char_traitsIcEENS7_IcEEEENS_3mapISE_iNS_4lessISE_EENS7_INS_4pairIKSE_iEEEEEEEES3_EEEEE6secondB7v160006Ev, symObjAddr: 0x12A28, symBinAddr: 0x1000212F0, symSize: 0x24 }
  - { offsetInCU: 0x21800, offset: 0x43D88, size: 0x8, addend: 0x0, symName: __ZNSt3__122__compressed_pair_elemINS_9allocatorINS_11__tree_nodeINS_12__value_typeINS_12basic_stringIcNS_11char_traitsIcEENS1_IcEEEENS_3mapIS8_iNS_4lessIS8_EENS1_INS_4pairIKS8_iEEEEEEEEPvEEEELi1ELb1EE5__getB7v160006Ev, symObjAddr: 0x12A4C, symBinAddr: 0x100021314, symSize: 0x14 }
  - { offsetInCU: 0x21826, offset: 0x43DAE, size: 0x8, addend: 0x0, symName: __ZNSt3__19allocatorINS_11__tree_nodeINS_12__value_typeINS_12basic_stringIcNS_11char_traitsIcEENS0_IcEEEENS_3mapIS7_iNS_4lessIS7_EENS0_INS_4pairIKS7_iEEEEEEEEPvEEE8allocateB7v160006Em, symObjAddr: 0x12A60, symBinAddr: 0x100021328, symSize: 0x8C }
  - { offsetInCU: 0x21864, offset: 0x43DEC, size: 0x8, addend: 0x0, symName: __ZNSt3__116allocator_traitsINS_9allocatorINS_11__tree_nodeINS_12__value_typeINS_12basic_stringIcNS_11char_traitsIcEENS1_IcEEEENS_3mapIS8_iNS_4lessIS8_EENS1_INS_4pairIKS8_iEEEEEEEEPvEEEEE8max_sizeB7v160006ISK_vEEmRKSK_, symObjAddr: 0x12AEC, symBinAddr: 0x1000213B4, symSize: 0x24 }
  - { offsetInCU: 0x21892, offset: 0x43E1A, size: 0x8, addend: 0x0, symName: __ZNKSt3__19allocatorINS_11__tree_nodeINS_12__value_typeINS_12basic_stringIcNS_11char_traitsIcEENS0_IcEEEENS_3mapIS7_iNS_4lessIS7_EENS0_INS_4pairIKS7_iEEEEEEEEPvEEE8max_sizeB7v160006Ev, symObjAddr: 0x12B10, symBinAddr: 0x1000213D8, symSize: 0x18 }
  - { offsetInCU: 0x218B8, offset: 0x43E40, size: 0x8, addend: 0x0, symName: __ZNSt3__121__map_node_destructorINS_9allocatorINS_11__tree_nodeINS_12__value_typeINS_12basic_stringIcNS_11char_traitsIcEENS1_IcEEEENS_3mapIS8_iNS_4lessIS8_EENS1_INS_4pairIKS8_iEEEEEEEEPvEEEEEC2B7v160006ERSK_, symObjAddr: 0x12B28, symBinAddr: 0x1000213F0, symSize: 0x28 }
  - { offsetInCU: 0x218F1, offset: 0x43E79, size: 0x8, addend: 0x0, symName: __ZNSt3__110unique_ptrINS_11__tree_nodeINS_12__value_typeINS_12basic_stringIcNS_11char_traitsIcEENS_9allocatorIcEEEENS_3mapIS8_iNS_4lessIS8_EENS6_INS_4pairIKS8_iEEEEEEEEPvEENS_21__map_node_destructorINS6_ISJ_EEEEEC2B7v160006ILb1EvEEPSJ_NS_16__dependent_typeINS_27__unique_ptr_deleter_sfinaeISM_EEXT_EE20__good_rval_ref_typeE, symObjAddr: 0x12B50, symBinAddr: 0x100021418, symSize: 0x5C }
  - { offsetInCU: 0x21942, offset: 0x43ECA, size: 0x8, addend: 0x0, symName: __ZNSt3__117__compressed_pairIPNS_11__tree_nodeINS_12__value_typeINS_12basic_stringIcNS_11char_traitsIcEENS_9allocatorIcEEEENS_3mapIS8_iNS_4lessIS8_EENS6_INS_4pairIKS8_iEEEEEEEEPvEENS_21__map_node_destructorINS6_ISJ_EEEEEC1B7v160006IRSK_SN_EEOT_OT0_, symObjAddr: 0x12BAC, symBinAddr: 0x100021474, symSize: 0x3C }
  - { offsetInCU: 0x2199A, offset: 0x43F22, size: 0x8, addend: 0x0, symName: __ZNSt3__117__compressed_pairIPNS_11__tree_nodeINS_12__value_typeINS_12basic_stringIcNS_11char_traitsIcEENS_9allocatorIcEEEENS_3mapIS8_iNS_4lessIS8_EENS6_INS_4pairIKS8_iEEEEEEEEPvEENS_21__map_node_destructorINS6_ISJ_EEEEEC2B7v160006IRSK_SN_EEOT_OT0_, symObjAddr: 0x12BE8, symBinAddr: 0x1000214B0, symSize: 0x48 }
  - { offsetInCU: 0x219F2, offset: 0x43F7A, size: 0x8, addend: 0x0, symName: __ZNSt3__122__compressed_pair_elemIPNS_11__tree_nodeINS_12__value_typeINS_12basic_stringIcNS_11char_traitsIcEENS_9allocatorIcEEEENS_3mapIS8_iNS_4lessIS8_EENS6_INS_4pairIKS8_iEEEEEEEEPvEELi0ELb0EEC2B7v160006IRSK_vEEOT_, symObjAddr: 0x12C30, symBinAddr: 0x1000214F8, symSize: 0x24 }
  - { offsetInCU: 0x21A34, offset: 0x43FBC, size: 0x8, addend: 0x0, symName: __ZNSt3__122__compressed_pair_elemINS_21__map_node_destructorINS_9allocatorINS_11__tree_nodeINS_12__value_typeINS_12basic_stringIcNS_11char_traitsIcEENS2_IcEEEENS_3mapIS9_iNS_4lessIS9_EENS2_INS_4pairIKS9_iEEEEEEEEPvEEEEEELi1ELb0EEC2B7v160006ISM_vEEOT_, symObjAddr: 0x12C54, symBinAddr: 0x10002151C, symSize: 0x24 }
  - { offsetInCU: 0x21A76, offset: 0x43FFE, size: 0x8, addend: 0x0, symName: __ZNSt3__19allocatorINS_11__tree_nodeINS_12__value_typeINS_12basic_stringIcNS_11char_traitsIcEENS0_IcEEEENS_3mapIS7_iNS_4lessIS7_EENS0_INS_4pairIKS7_iEEEEEEEEPvEEE9constructB7v160006ISC_JRSC_EEEvPT_DpOT0_, symObjAddr: 0x12C78, symBinAddr: 0x100021540, symSize: 0x30 }
  - { offsetInCU: 0x21ACC, offset: 0x44054, size: 0x8, addend: 0x0, symName: __ZNKSt3__117__compressed_pairIPNS_11__tree_nodeINS_12__value_typeINS_12basic_stringIcNS_11char_traitsIcEENS_9allocatorIcEEEENS_3mapIS8_iNS_4lessIS8_EENS6_INS_4pairIKS8_iEEEEEEEEPvEENS_21__map_node_destructorINS6_ISJ_EEEEE5firstB7v160006Ev, symObjAddr: 0x12CA8, symBinAddr: 0x100021570, symSize: 0x24 }
  - { offsetInCU: 0x21AF2, offset: 0x4407A, size: 0x8, addend: 0x0, symName: __ZNKSt3__122__compressed_pair_elemIPNS_11__tree_nodeINS_12__value_typeINS_12basic_stringIcNS_11char_traitsIcEENS_9allocatorIcEEEENS_3mapIS8_iNS_4lessIS8_EENS6_INS_4pairIKS8_iEEEEEEEEPvEELi0ELb0EE5__getB7v160006Ev, symObjAddr: 0x12CCC, symBinAddr: 0x100021594, symSize: 0x14 }
  - { offsetInCU: 0x21B18, offset: 0x440A0, size: 0x8, addend: 0x0, symName: __ZNSt3__117__compressed_pairIPNS_11__tree_nodeINS_12__value_typeINS_12basic_stringIcNS_11char_traitsIcEENS_9allocatorIcEEEENS_3mapIS8_iNS_4lessIS8_EENS6_INS_4pairIKS8_iEEEEEEEEPvEENS_21__map_node_destructorINS6_ISJ_EEEEE6secondB7v160006Ev, symObjAddr: 0x12CE0, symBinAddr: 0x1000215A8, symSize: 0x28 }
  - { offsetInCU: 0x21B3E, offset: 0x440C6, size: 0x8, addend: 0x0, symName: __ZNSt3__122__compressed_pair_elemINS_21__map_node_destructorINS_9allocatorINS_11__tree_nodeINS_12__value_typeINS_12basic_stringIcNS_11char_traitsIcEENS2_IcEEEENS_3mapIS9_iNS_4lessIS9_EENS2_INS_4pairIKS9_iEEEEEEEEPvEEEEEELi1ELb0EE5__getB7v160006Ev, symObjAddr: 0x12D08, symBinAddr: 0x1000215D0, symSize: 0x14 }
  - { offsetInCU: 0x21B64, offset: 0x440EC, size: 0x8, addend: 0x0, symName: __ZNSt3__19allocatorINS_11__tree_nodeINS_12__value_typeINS_12basic_stringIcNS_11char_traitsIcEENS0_IcEEEENS_3mapIS7_iNS_4lessIS7_EENS0_INS_4pairIKS7_iEEEEEEEEPvEEE9constructB7v160006ISF_JEEEvPT_DpOT0_, symObjAddr: 0x12D1C, symBinAddr: 0x1000215E4, symSize: 0x28 }
  - { offsetInCU: 0x21BA6, offset: 0x4412E, size: 0x8, addend: 0x0, symName: __ZNSt3__16__treeINS_12__value_typeINS_12basic_stringIcNS_11char_traitsIcEENS_9allocatorIcEEEENS_3mapIS7_iNS_4lessIS7_EENS5_INS_4pairIKS7_iEEEEEEEENS_19__map_value_compareIS7_SG_SA_Lb1EEENS5_ISG_EEE4sizeB7v160006Ev, symObjAddr: 0x12D44, symBinAddr: 0x10002160C, symSize: 0x28 }
  - { offsetInCU: 0x21BCC, offset: 0x44154, size: 0x8, addend: 0x0, symName: __ZNSt3__117__compressed_pairImNS_19__map_value_compareINS_12basic_stringIcNS_11char_traitsIcEENS_9allocatorIcEEEENS_12__value_typeIS7_NS_3mapIS7_iNS_4lessIS7_EENS5_INS_4pairIKS7_iEEEEEEEESB_Lb1EEEE5firstB7v160006Ev, symObjAddr: 0x12D6C, symBinAddr: 0x100021634, symSize: 0x24 }
  - { offsetInCU: 0x21BF2, offset: 0x4417A, size: 0x8, addend: 0x0, symName: __ZNSt3__117__compressed_pairIPNS_11__tree_nodeINS_12__value_typeINS_12basic_stringIcNS_11char_traitsIcEENS_9allocatorIcEEEENS_3mapIS8_iNS_4lessIS8_EENS6_INS_4pairIKS8_iEEEEEEEEPvEENS_21__map_node_destructorINS6_ISJ_EEEEE5firstB7v160006Ev, symObjAddr: 0x12D90, symBinAddr: 0x100021658, symSize: 0x24 }
  - { offsetInCU: 0x21C18, offset: 0x441A0, size: 0x8, addend: 0x0, symName: __ZNSt3__122__compressed_pair_elemIPNS_11__tree_nodeINS_12__value_typeINS_12basic_stringIcNS_11char_traitsIcEENS_9allocatorIcEEEENS_3mapIS8_iNS_4lessIS8_EENS6_INS_4pairIKS8_iEEEEEEEEPvEELi0ELb0EE5__getB7v160006Ev, symObjAddr: 0x12DB4, symBinAddr: 0x10002167C, symSize: 0x14 }
  - { offsetInCU: 0x21C3E, offset: 0x441C6, size: 0x8, addend: 0x0, symName: __ZNSt3__110unique_ptrINS_11__tree_nodeINS_12__value_typeINS_12basic_stringIcNS_11char_traitsIcEENS_9allocatorIcEEEENS_3mapIS8_iNS_4lessIS8_EENS6_INS_4pairIKS8_iEEEEEEEEPvEENS_21__map_node_destructorINS6_ISJ_EEEEED2B7v160006Ev, symObjAddr: 0x12DC8, symBinAddr: 0x100021690, symSize: 0x30 }
  - { offsetInCU: 0x21C68, offset: 0x441F0, size: 0x8, addend: 0x0, symName: __ZNSt3__110unique_ptrINS_11__tree_nodeINS_12__value_typeINS_12basic_stringIcNS_11char_traitsIcEENS_9allocatorIcEEEENS_3mapIS8_iNS_4lessIS8_EENS6_INS_4pairIKS8_iEEEEEEEEPvEENS_21__map_node_destructorINS6_ISJ_EEEEE5resetB7v160006EPSJ_, symObjAddr: 0x12DF8, symBinAddr: 0x1000216C0, symSize: 0x78 }
  - { offsetInCU: 0x21CAC, offset: 0x44234, size: 0x8, addend: 0x0, symName: __ZNSt3__121__map_node_destructorINS_9allocatorINS_11__tree_nodeINS_12__value_typeINS_12basic_stringIcNS_11char_traitsIcEENS1_IcEEEENS_3mapIS8_iNS_4lessIS8_EENS1_INS_4pairIKS8_iEEEEEEEEPvEEEEEclB7v160006EPSJ_, symObjAddr: 0x12E70, symBinAddr: 0x100021738, symSize: 0xF4 }
  - { offsetInCU: 0x21CE1, offset: 0x44269, size: 0x8, addend: 0x0, symName: __ZNSt3__116allocator_traitsINS_9allocatorINS_11__tree_nodeINS_12__value_typeINS_12basic_stringIcNS_11char_traitsIcEENS1_IcEEEENS_3mapIS8_iNS_4lessIS8_EENS1_INS_4pairIKS8_iEEEEEEEEPvEEEEE7destroyB7v160006ISG_vvEEvRSK_PT_, symObjAddr: 0x12F64, symBinAddr: 0x10002182C, symSize: 0x28 }
  - { offsetInCU: 0x21D1C, offset: 0x442A4, size: 0x8, addend: 0x0, symName: __ZNSt3__116allocator_traitsINS_9allocatorINS_11__tree_nodeINS_12__value_typeINS_12basic_stringIcNS_11char_traitsIcEENS1_IcEEEENS_3mapIS8_iNS_4lessIS8_EENS1_INS_4pairIKS8_iEEEEEEEEPvEEEEE7destroyB7v160006ISD_vvEEvRSK_PT_, symObjAddr: 0x12F8C, symBinAddr: 0x100021854, symSize: 0x28 }
  - { offsetInCU: 0x21D57, offset: 0x442DF, size: 0x8, addend: 0x0, symName: __ZNSt3__116allocator_traitsINS_9allocatorINS_11__tree_nodeINS_12__value_typeINS_12basic_stringIcNS_11char_traitsIcEENS1_IcEEEENS_3mapIS8_iNS_4lessIS8_EENS1_INS_4pairIKS8_iEEEEEEEEPvEEEEE10deallocateB7v160006ERSK_PSJ_m, symObjAddr: 0x12FB4, symBinAddr: 0x10002187C, symSize: 0x34 }
  - { offsetInCU: 0x21D99, offset: 0x44321, size: 0x8, addend: 0x0, symName: __ZNSt3__19allocatorINS_11__tree_nodeINS_12__value_typeINS_12basic_stringIcNS_11char_traitsIcEENS0_IcEEEENS_3mapIS7_iNS_4lessIS7_EENS0_INS_4pairIKS7_iEEEEEEEEPvEEE10deallocateB7v160006EPSI_m, symObjAddr: 0x12FE8, symBinAddr: 0x1000218B0, symSize: 0x74 }
  - { offsetInCU: 0x21DDB, offset: 0x44363, size: 0x8, addend: 0x0, symName: __ZNSt3__16__treeINS_12__value_typeINS_12basic_stringIcNS_11char_traitsIcEENS_9allocatorIcEEEENS_3mapIS7_iNS_4lessIS7_EENS5_INS_4pairIKS7_iEEEEEEEENS_19__map_value_compareIS7_SG_SA_Lb1EEENS5_ISG_EEE5beginB7v160006Ev, symObjAddr: 0x1305C, symBinAddr: 0x100021924, symSize: 0x34 }
  - { offsetInCU: 0x21E01, offset: 0x44389, size: 0x8, addend: 0x0, symName: __ZNSt3__114__map_iteratorINS_15__tree_iteratorINS_12__value_typeINS_12basic_stringIcNS_11char_traitsIcEENS_9allocatorIcEEEENS_3mapIS8_iNS_4lessIS8_EENS6_INS_4pairIKS8_iEEEEEEEEPNS_11__tree_nodeISH_PvEElEEEC1B7v160006ESM_, symObjAddr: 0x13090, symBinAddr: 0x100021958, symSize: 0x34 }
  - { offsetInCU: 0x21E3A, offset: 0x443C2, size: 0x8, addend: 0x0, symName: __ZNSt3__115__tree_iteratorINS_12__value_typeINS_12basic_stringIcNS_11char_traitsIcEENS_9allocatorIcEEEENS_3mapIS7_iNS_4lessIS7_EENS5_INS_4pairIKS7_iEEEEEEEEPNS_11__tree_nodeISG_PvEElEC1B7v160006EPNS_15__tree_end_nodeIPNS_16__tree_node_baseISI_EEEE, symObjAddr: 0x130C4, symBinAddr: 0x10002198C, symSize: 0x34 }
  - { offsetInCU: 0x21E73, offset: 0x443FB, size: 0x8, addend: 0x0, symName: __ZNSt3__115__tree_iteratorINS_12__value_typeINS_12basic_stringIcNS_11char_traitsIcEENS_9allocatorIcEEEENS_3mapIS7_iNS_4lessIS7_EENS5_INS_4pairIKS7_iEEEEEEEEPNS_11__tree_nodeISG_PvEElEC2B7v160006EPNS_15__tree_end_nodeIPNS_16__tree_node_baseISI_EEEE, symObjAddr: 0x130F8, symBinAddr: 0x1000219C0, symSize: 0x20 }
  - { offsetInCU: 0x21EAC, offset: 0x44434, size: 0x8, addend: 0x0, symName: __ZNSt3__114__map_iteratorINS_15__tree_iteratorINS_12__value_typeINS_12basic_stringIcNS_11char_traitsIcEENS_9allocatorIcEEEENS_3mapIS8_iNS_4lessIS8_EENS6_INS_4pairIKS8_iEEEEEEEEPNS_11__tree_nodeISH_PvEElEEEC2B7v160006ESM_, symObjAddr: 0x13118, symBinAddr: 0x1000219E0, symSize: 0x20 }
  - { offsetInCU: 0x21EE5, offset: 0x4446D, size: 0x8, addend: 0x0, symName: __ZNSt3__16__treeINS_12__value_typeINS_12basic_stringIcNS_11char_traitsIcEENS_9allocatorIcEEEENS_3mapIS7_iNS_4lessIS7_EENS5_INS_4pairIKS7_iEEEEEEEENS_19__map_value_compareIS7_SG_SA_Lb1EEENS5_ISG_EEE3endB7v160006Ev, symObjAddr: 0x13138, symBinAddr: 0x100021A00, symSize: 0x34 }
  - { offsetInCU: 0x21F0B, offset: 0x44493, size: 0x8, addend: 0x0, symName: __ZNKSt3__115__tree_iteratorINS_12__value_typeINS_12basic_stringIcNS_11char_traitsIcEENS_9allocatorIcEEEENS_3mapIS7_iNS_4lessIS7_EENS5_INS_4pairIKS7_iEEEEEEEEPNS_11__tree_nodeISG_PvEElEptB7v160006Ev, symObjAddr: 0x131D0, symBinAddr: 0x100021A98, symSize: 0x2C }
  - { offsetInCU: 0x21F31, offset: 0x444B9, size: 0x8, addend: 0x0, symName: __ZNSt3__114pointer_traitsIPNS_12__value_typeINS_12basic_stringIcNS_11char_traitsIcEENS_9allocatorIcEEEENS_3mapIS7_iNS_4lessIS7_EENS5_INS_4pairIKS7_iEEEEEEEEE10pointer_toB7v160006ERSG_, symObjAddr: 0x131FC, symBinAddr: 0x100021AC4, symSize: 0x14 }
  - { offsetInCU: 0x21F54, offset: 0x444DC, size: 0x8, addend: 0x0, symName: __ZNKSt3__115__tree_iteratorINS_12__value_typeINS_12basic_stringIcNS_11char_traitsIcEENS_9allocatorIcEEEENS_3mapIS7_iNS_4lessIS7_EENS5_INS_4pairIKS7_iEEEEEEEEPNS_11__tree_nodeISG_PvEElE8__get_npB7v160006Ev, symObjAddr: 0x13210, symBinAddr: 0x100021AD8, symSize: 0x18 }
  - { offsetInCU: 0x21F7A, offset: 0x44502, size: 0x8, addend: 0x0, symName: __ZNKSt3__16__treeINS_12__value_typeINS_12basic_stringIcNS_11char_traitsIcEENS_9allocatorIcEEEEiEENS_19__map_value_compareIS7_S8_NS_4lessIS7_EELb1EEENS5_IS8_EEE5beginB7v160006Ev, symObjAddr: 0x13228, symBinAddr: 0x100021AF0, symSize: 0x34 }
  - { offsetInCU: 0x21FA0, offset: 0x44528, size: 0x8, addend: 0x0, symName: __ZNSt3__120__map_const_iteratorINS_21__tree_const_iteratorINS_12__value_typeINS_12basic_stringIcNS_11char_traitsIcEENS_9allocatorIcEEEEiEEPNS_11__tree_nodeIS9_PvEElEEEC1B7v160006ESE_, symObjAddr: 0x1325C, symBinAddr: 0x100021B24, symSize: 0x34 }
  - { offsetInCU: 0x21FD9, offset: 0x44561, size: 0x8, addend: 0x0, symName: __ZNKSt3__16__treeINS_12__value_typeINS_12basic_stringIcNS_11char_traitsIcEENS_9allocatorIcEEEEiEENS_19__map_value_compareIS7_S8_NS_4lessIS7_EELb1EEENS5_IS8_EEE12__begin_nodeB7v160006Ev, symObjAddr: 0x13290, symBinAddr: 0x100021B58, symSize: 0x14 }
  - { offsetInCU: 0x21FFF, offset: 0x44587, size: 0x8, addend: 0x0, symName: __ZNSt3__121__tree_const_iteratorINS_12__value_typeINS_12basic_stringIcNS_11char_traitsIcEENS_9allocatorIcEEEEiEEPNS_11__tree_nodeIS8_PvEElEC1B7v160006EPNS_15__tree_end_nodeIPNS_16__tree_node_baseISA_EEEE, symObjAddr: 0x132A4, symBinAddr: 0x100021B6C, symSize: 0x34 }
  - { offsetInCU: 0x22038, offset: 0x445C0, size: 0x8, addend: 0x0, symName: __ZNSt3__121__tree_const_iteratorINS_12__value_typeINS_12basic_stringIcNS_11char_traitsIcEENS_9allocatorIcEEEEiEEPNS_11__tree_nodeIS8_PvEElEC2B7v160006EPNS_15__tree_end_nodeIPNS_16__tree_node_baseISA_EEEE, symObjAddr: 0x132D8, symBinAddr: 0x100021BA0, symSize: 0x20 }
  - { offsetInCU: 0x22071, offset: 0x445F9, size: 0x8, addend: 0x0, symName: __ZNSt3__120__map_const_iteratorINS_21__tree_const_iteratorINS_12__value_typeINS_12basic_stringIcNS_11char_traitsIcEENS_9allocatorIcEEEEiEEPNS_11__tree_nodeIS9_PvEElEEEC2B7v160006ESE_, symObjAddr: 0x132F8, symBinAddr: 0x100021BC0, symSize: 0x20 }
  - { offsetInCU: 0x220AA, offset: 0x44632, size: 0x8, addend: 0x0, symName: __ZNKSt3__16__treeINS_12__value_typeINS_12basic_stringIcNS_11char_traitsIcEENS_9allocatorIcEEEEiEENS_19__map_value_compareIS7_S8_NS_4lessIS7_EELb1EEENS5_IS8_EEE3endB7v160006Ev, symObjAddr: 0x13318, symBinAddr: 0x100021BE0, symSize: 0x34 }
  - { offsetInCU: 0x220D0, offset: 0x44658, size: 0x8, addend: 0x0, symName: __ZNKSt3__121__tree_const_iteratorINS_12__value_typeINS_12basic_stringIcNS_11char_traitsIcEENS_9allocatorIcEEEEiEEPNS_11__tree_nodeIS8_PvEElEptB7v160006Ev, symObjAddr: 0x133B0, symBinAddr: 0x100021C78, symSize: 0x2C }
  - { offsetInCU: 0x220F6, offset: 0x4467E, size: 0x8, addend: 0x0, symName: __ZNSt3__114pointer_traitsIPKNS_12__value_typeINS_12basic_stringIcNS_11char_traitsIcEENS_9allocatorIcEEEEiEEE10pointer_toB7v160006ERS9_, symObjAddr: 0x133DC, symBinAddr: 0x100021CA4, symSize: 0x14 }
  - { offsetInCU: 0x22119, offset: 0x446A1, size: 0x8, addend: 0x0, symName: __ZNKSt3__121__tree_const_iteratorINS_12__value_typeINS_12basic_stringIcNS_11char_traitsIcEENS_9allocatorIcEEEEiEEPNS_11__tree_nodeIS8_PvEElE8__get_npB7v160006Ev, symObjAddr: 0x133F0, symBinAddr: 0x100021CB8, symSize: 0x18 }
  - { offsetInCU: 0x2213F, offset: 0x446C7, size: 0x8, addend: 0x0, symName: __ZNSt3__121__tree_const_iteratorINS_12__value_typeINS_12basic_stringIcNS_11char_traitsIcEENS_9allocatorIcEEEEiEEPNS_11__tree_nodeIS8_PvEElEppB7v160006Ev, symObjAddr: 0x13408, symBinAddr: 0x100021CD0, symSize: 0x38 }
  - { offsetInCU: 0x22165, offset: 0x446ED, size: 0x8, addend: 0x0, symName: __ZNSt3__115__tree_iteratorINS_12__value_typeINS_12basic_stringIcNS_11char_traitsIcEENS_9allocatorIcEEEENS_3mapIS7_iNS_4lessIS7_EENS5_INS_4pairIKS7_iEEEEEEEEPNS_11__tree_nodeISG_PvEElEppB7v160006Ev, symObjAddr: 0x13500, symBinAddr: 0x100021DC8, symSize: 0x38 }
  - { offsetInCU: 0x2218B, offset: 0x44713, size: 0x8, addend: 0x0, symName: __ZNSt3__13mapINS_12basic_stringIcNS_11char_traitsIcEENS_9allocatorIcEEEENS0_IS6_iNS_4lessIS6_EENS4_INS_4pairIKS6_iEEEEEES8_NS4_INS9_ISA_SD_EEEEED2B7v160006Ev, symObjAddr: 0x13538, symBinAddr: 0x100021E00, symSize: 0x2C }
  - { offsetInCU: 0x221B5, offset: 0x4473D, size: 0x8, addend: 0x0, symName: __ZNSt3__16__treeINS_12__value_typeINS_12basic_stringIcNS_11char_traitsIcEENS_9allocatorIcEEEENS_3mapIS7_iNS_4lessIS7_EENS5_INS_4pairIKS7_iEEEEEEEENS_19__map_value_compareIS7_SG_SA_Lb1EEENS5_ISG_EEED1Ev, symObjAddr: 0x13564, symBinAddr: 0x100021E2C, symSize: 0x2C }
  - { offsetInCU: 0x221E1, offset: 0x44769, size: 0x8, addend: 0x0, symName: __ZNSt3__16__treeINS_12__value_typeINS_12basic_stringIcNS_11char_traitsIcEENS_9allocatorIcEEEENS_3mapIS7_iNS_4lessIS7_EENS5_INS_4pairIKS7_iEEEEEEEENS_19__map_value_compareIS7_SG_SA_Lb1EEENS5_ISG_EEED2Ev, symObjAddr: 0x13590, symBinAddr: 0x100021E58, symSize: 0x38 }
  - { offsetInCU: 0x2220D, offset: 0x44795, size: 0x8, addend: 0x0, symName: __ZNSt3__16__treeINS_12__value_typeINS_12basic_stringIcNS_11char_traitsIcEENS_9allocatorIcEEEENS_3mapIS7_iNS_4lessIS7_EENS5_INS_4pairIKS7_iEEEEEEEENS_19__map_value_compareIS7_SG_SA_Lb1EEENS5_ISG_EEE7destroyEPNS_11__tree_nodeISG_PvEE, symObjAddr: 0x135C8, symBinAddr: 0x100021E90, symSize: 0xC0 }
  - { offsetInCU: 0x22261, offset: 0x447E9, size: 0x8, addend: 0x0, symName: __ZNSt3__116allocator_traitsINS_9allocatorINS_11__tree_nodeINS_12__value_typeINS_12basic_stringIcNS_11char_traitsIcEENS1_IcEEEENS_3mapIS8_iNS_4lessIS8_EENS1_INS_4pairIKS8_iEEEEEEEEPvEEEEE7destroyB7v160006INSC_ISD_SG_EEvvEEvRSK_PT_, symObjAddr: 0x13688, symBinAddr: 0x100021F50, symSize: 0x28 }
  - { offsetInCU: 0x2229C, offset: 0x44824, size: 0x8, addend: 0x0, symName: __ZNSt3__122__tree_key_value_typesINS_12__value_typeINS_12basic_stringIcNS_11char_traitsIcEENS_9allocatorIcEEEENS_3mapIS7_iNS_4lessIS7_EENS5_INS_4pairIKS7_iEEEEEEEEE9__get_ptrB7v160006ERSG_, symObjAddr: 0x136B0, symBinAddr: 0x100021F78, symSize: 0x24 }
  - { offsetInCU: 0x222C0, offset: 0x44848, size: 0x8, addend: 0x0, symName: __ZNSt3__14pairIKNS_12basic_stringIcNS_11char_traitsIcEENS_9allocatorIcEEEENS_3mapIS6_iNS_4lessIS6_EENS4_INS0_IS7_iEEEEEEED1Ev, symObjAddr: 0x136D4, symBinAddr: 0x100021F9C, symSize: 0x2C }
  - { offsetInCU: 0x222EC, offset: 0x44874, size: 0x8, addend: 0x0, symName: __ZNSt3__14pairIKNS_12basic_stringIcNS_11char_traitsIcEENS_9allocatorIcEEEENS_3mapIS6_iNS_4lessIS6_EENS4_INS0_IS7_iEEEEEEED2Ev, symObjAddr: 0x13700, symBinAddr: 0x100021FC8, symSize: 0x68 }
  - { offsetInCU: 0x22318, offset: 0x448A0, size: 0x8, addend: 0x0, symName: __ZNSt3__13mapINS_12basic_stringIcNS_11char_traitsIcEENS_9allocatorIcEEEES6_NS_4lessIS6_EENS4_INS_4pairIKS6_S6_EEEEEC1B7v160006Ev, symObjAddr: 0x13768, symBinAddr: 0x100022030, symSize: 0x2C }
  - { offsetInCU: 0x22342, offset: 0x448CA, size: 0x8, addend: 0x0, symName: __ZNKSt3__16vectorIN21ConexionesComputadoraI13BitacoraLineaE3SitENS_9allocatorIS4_EEE5emptyB7v160006Ev, symObjAddr: 0x13794, symBinAddr: 0x10002205C, symSize: 0x28 }
  - { offsetInCU: 0x22368, offset: 0x448F0, size: 0x8, addend: 0x0, symName: __ZNSt3__16vectorIN21ConexionesComputadoraI13BitacoraLineaE3SitENS_9allocatorIS4_EEEixB7v160006Em, symObjAddr: 0x137BC, symBinAddr: 0x100022084, symSize: 0x24 }
  - { offsetInCU: 0x2239F, offset: 0x44927, size: 0x8, addend: 0x0, symName: __ZNSt3__13mapINS_12basic_stringIcNS_11char_traitsIcEENS_9allocatorIcEEEES6_NS_4lessIS6_EENS4_INS_4pairIKS6_S6_EEEEEixERSA_, symObjAddr: 0x137E0, symBinAddr: 0x1000220A8, symSize: 0xC8 }
  - { offsetInCU: 0x22417, offset: 0x4499F, size: 0x8, addend: 0x0, symName: __ZNSt3__13mapINS_12basic_stringIcNS_11char_traitsIcEENS_9allocatorIcEEEES6_NS_4lessIS6_EENS4_INS_4pairIKS6_S6_EEEEED1B7v160006Ev, symObjAddr: 0x138A8, symBinAddr: 0x100022170, symSize: 0x2C }
  - { offsetInCU: 0x22441, offset: 0x449C9, size: 0x8, addend: 0x0, symName: __ZNSt3__13mapINS_12basic_stringIcNS_11char_traitsIcEENS_9allocatorIcEEEES6_NS_4lessIS6_EENS4_INS_4pairIKS6_S6_EEEEEC2B7v160006Ev, symObjAddr: 0x138D4, symBinAddr: 0x10002219C, symSize: 0x40 }
  - { offsetInCU: 0x2246B, offset: 0x449F3, size: 0x8, addend: 0x0, symName: __ZNSt3__119__map_value_compareINS_12basic_stringIcNS_11char_traitsIcEENS_9allocatorIcEEEENS_12__value_typeIS6_S6_EENS_4lessIS6_EELb1EEC1B7v160006ESA_, symObjAddr: 0x13914, symBinAddr: 0x1000221DC, symSize: 0x2C }
  - { offsetInCU: 0x224A4, offset: 0x44A2C, size: 0x8, addend: 0x0, symName: __ZNSt3__16__treeINS_12__value_typeINS_12basic_stringIcNS_11char_traitsIcEENS_9allocatorIcEEEES7_EENS_19__map_value_compareIS7_S8_NS_4lessIS7_EELb1EEENS5_IS8_EEEC1ERKSC_, symObjAddr: 0x13940, symBinAddr: 0x100022208, symSize: 0x34 }
  - { offsetInCU: 0x224DF, offset: 0x44A67, size: 0x8, addend: 0x0, symName: __ZNSt3__119__map_value_compareINS_12basic_stringIcNS_11char_traitsIcEENS_9allocatorIcEEEENS_12__value_typeIS6_S6_EENS_4lessIS6_EELb1EEC2B7v160006ESA_, symObjAddr: 0x13974, symBinAddr: 0x10002223C, symSize: 0x14 }
  - { offsetInCU: 0x22518, offset: 0x44AA0, size: 0x8, addend: 0x0, symName: __ZNSt3__16__treeINS_12__value_typeINS_12basic_stringIcNS_11char_traitsIcEENS_9allocatorIcEEEES7_EENS_19__map_value_compareIS7_S8_NS_4lessIS7_EELb1EEENS5_IS8_EEEC2ERKSC_, symObjAddr: 0x13988, symBinAddr: 0x100022250, symSize: 0x70 }
  - { offsetInCU: 0x22553, offset: 0x44ADB, size: 0x8, addend: 0x0, symName: __ZNSt3__117__compressed_pairINS_15__tree_end_nodeIPNS_16__tree_node_baseIPvEEEENS_9allocatorINS_11__tree_nodeINS_12__value_typeINS_12basic_stringIcNS_11char_traitsIcEENS7_IcEEEESE_EES3_EEEEEC1B7v160006ILb1EvEEv, symObjAddr: 0x139F8, symBinAddr: 0x1000222C0, symSize: 0x2C }
  - { offsetInCU: 0x22588, offset: 0x44B10, size: 0x8, addend: 0x0, symName: __ZNSt3__117__compressed_pairImNS_19__map_value_compareINS_12basic_stringIcNS_11char_traitsIcEENS_9allocatorIcEEEENS_12__value_typeIS7_S7_EENS_4lessIS7_EELb1EEEEC1B7v160006IiRKSC_EEOT_OT0_, symObjAddr: 0x13A24, symBinAddr: 0x1000222EC, symSize: 0x3C }
  - { offsetInCU: 0x225E0, offset: 0x44B68, size: 0x8, addend: 0x0, symName: __ZNSt3__16__treeINS_12__value_typeINS_12basic_stringIcNS_11char_traitsIcEENS_9allocatorIcEEEES7_EENS_19__map_value_compareIS7_S8_NS_4lessIS7_EELb1EEENS5_IS8_EEE10__end_nodeB7v160006Ev, symObjAddr: 0x13A60, symBinAddr: 0x100022328, symSize: 0x2C }
  - { offsetInCU: 0x22606, offset: 0x44B8E, size: 0x8, addend: 0x0, symName: __ZNSt3__16__treeINS_12__value_typeINS_12basic_stringIcNS_11char_traitsIcEENS_9allocatorIcEEEES7_EENS_19__map_value_compareIS7_S8_NS_4lessIS7_EELb1EEENS5_IS8_EEE12__begin_nodeB7v160006Ev, symObjAddr: 0x13A8C, symBinAddr: 0x100022354, symSize: 0x14 }
  - { offsetInCU: 0x2262C, offset: 0x44BB4, size: 0x8, addend: 0x0, symName: __ZNSt3__117__compressed_pairINS_15__tree_end_nodeIPNS_16__tree_node_baseIPvEEEENS_9allocatorINS_11__tree_nodeINS_12__value_typeINS_12basic_stringIcNS_11char_traitsIcEENS7_IcEEEESE_EES3_EEEEEC2B7v160006ILb1EvEEv, symObjAddr: 0x13AA0, symBinAddr: 0x100022368, symSize: 0x34 }
  - { offsetInCU: 0x22661, offset: 0x44BE9, size: 0x8, addend: 0x0, symName: __ZNSt3__122__compressed_pair_elemINS_9allocatorINS_11__tree_nodeINS_12__value_typeINS_12basic_stringIcNS_11char_traitsIcEENS1_IcEEEES8_EEPvEEEELi1ELb1EEC2B7v160006ENS_16__value_init_tagE, symObjAddr: 0x13AD4, symBinAddr: 0x10002239C, symSize: 0x2C }
  - { offsetInCU: 0x22696, offset: 0x44C1E, size: 0x8, addend: 0x0, symName: __ZNSt3__19allocatorINS_11__tree_nodeINS_12__value_typeINS_12basic_stringIcNS_11char_traitsIcEENS0_IcEEEES7_EEPvEEEC2B7v160006Ev, symObjAddr: 0x13B00, symBinAddr: 0x1000223C8, symSize: 0x2C }
  - { offsetInCU: 0x226C0, offset: 0x44C48, size: 0x8, addend: 0x0, symName: __ZNSt3__116__non_trivial_ifILb1ENS_9allocatorINS_11__tree_nodeINS_12__value_typeINS_12basic_stringIcNS_11char_traitsIcEENS1_IcEEEES8_EEPvEEEEEC2B7v160006Ev, symObjAddr: 0x13B2C, symBinAddr: 0x1000223F4, symSize: 0x14 }
  - { offsetInCU: 0x226EA, offset: 0x44C72, size: 0x8, addend: 0x0, symName: __ZNSt3__117__compressed_pairImNS_19__map_value_compareINS_12basic_stringIcNS_11char_traitsIcEENS_9allocatorIcEEEENS_12__value_typeIS7_S7_EENS_4lessIS7_EELb1EEEEC2B7v160006IiRKSC_EEOT_OT0_, symObjAddr: 0x13B40, symBinAddr: 0x100022408, symSize: 0x44 }
  - { offsetInCU: 0x22742, offset: 0x44CCA, size: 0x8, addend: 0x0, symName: __ZNSt3__122__compressed_pair_elemINS_19__map_value_compareINS_12basic_stringIcNS_11char_traitsIcEENS_9allocatorIcEEEENS_12__value_typeIS7_S7_EENS_4lessIS7_EELb1EEELi1ELb1EEC2B7v160006IRKSC_vEEOT_, symObjAddr: 0x13B84, symBinAddr: 0x10002244C, symSize: 0x18 }
  - { offsetInCU: 0x22784, offset: 0x44D0C, size: 0x8, addend: 0x0, symName: __ZNSt3__117__compressed_pairINS_15__tree_end_nodeIPNS_16__tree_node_baseIPvEEEENS_9allocatorINS_11__tree_nodeINS_12__value_typeINS_12basic_stringIcNS_11char_traitsIcEENS7_IcEEEESE_EES3_EEEEE5firstB7v160006Ev, symObjAddr: 0x13B9C, symBinAddr: 0x100022464, symSize: 0x24 }
  - { offsetInCU: 0x227AA, offset: 0x44D32, size: 0x8, addend: 0x0, symName: __ZNSt3__16__treeINS_12__value_typeINS_12basic_stringIcNS_11char_traitsIcEENS_9allocatorIcEEEES7_EENS_19__map_value_compareIS7_S8_NS_4lessIS7_EELb1EEENS5_IS8_EEE12__find_equalIS7_EERPNS_16__tree_node_baseIPvEERPNS_15__tree_end_nodeISJ_EERKT_, symObjAddr: 0x13BC0, symBinAddr: 0x100022488, symSize: 0x184 }
  - { offsetInCU: 0x22816, offset: 0x44D9E, size: 0x8, addend: 0x0, symName: __ZNSt3__13mapINS_12basic_stringIcNS_11char_traitsIcEENS_9allocatorIcEEEES6_NS_4lessIS6_EENS4_INS_4pairIKS6_S6_EEEEE25__construct_node_with_keyERSA_, symObjAddr: 0x13D44, symBinAddr: 0x10002260C, symSize: 0x154 }
  - { offsetInCU: 0x2286B, offset: 0x44DF3, size: 0x8, addend: 0x0, symName: __ZNSt3__16__treeINS_12__value_typeINS_12basic_stringIcNS_11char_traitsIcEENS_9allocatorIcEEEES7_EENS_19__map_value_compareIS7_S8_NS_4lessIS7_EELb1EEENS5_IS8_EEE16__insert_node_atEPNS_15__tree_end_nodeIPNS_16__tree_node_baseIPvEEEERSJ_SJ_, symObjAddr: 0x13E98, symBinAddr: 0x100022760, symSize: 0xCC }
  - { offsetInCU: 0x228BF, offset: 0x44E47, size: 0x8, addend: 0x0, symName: __ZNKSt3__110unique_ptrINS_11__tree_nodeINS_12__value_typeINS_12basic_stringIcNS_11char_traitsIcEENS_9allocatorIcEEEES8_EEPvEENS_21__map_node_destructorINS6_ISB_EEEEE3getB7v160006Ev, symObjAddr: 0x13F64, symBinAddr: 0x10002282C, symSize: 0x28 }
  - { offsetInCU: 0x228E5, offset: 0x44E6D, size: 0x8, addend: 0x0, symName: __ZNSt3__110unique_ptrINS_11__tree_nodeINS_12__value_typeINS_12basic_stringIcNS_11char_traitsIcEENS_9allocatorIcEEEES8_EEPvEENS_21__map_node_destructorINS6_ISB_EEEEE7releaseB7v160006Ev, symObjAddr: 0x13F8C, symBinAddr: 0x100022854, symSize: 0x44 }
  - { offsetInCU: 0x2291A, offset: 0x44EA2, size: 0x8, addend: 0x0, symName: __ZNSt3__110unique_ptrINS_11__tree_nodeINS_12__value_typeINS_12basic_stringIcNS_11char_traitsIcEENS_9allocatorIcEEEES8_EEPvEENS_21__map_node_destructorINS6_ISB_EEEEED1B7v160006Ev, symObjAddr: 0x13FD0, symBinAddr: 0x100022898, symSize: 0x2C }
  - { offsetInCU: 0x22944, offset: 0x44ECC, size: 0x8, addend: 0x0, symName: __ZNSt3__112__value_typeINS_12basic_stringIcNS_11char_traitsIcEENS_9allocatorIcEEEES6_E11__get_valueB7v160006Ev, symObjAddr: 0x13FFC, symBinAddr: 0x1000228C4, symSize: 0x14 }
  - { offsetInCU: 0x2296A, offset: 0x44EF2, size: 0x8, addend: 0x0, symName: __ZNKSt3__16__treeINS_12__value_typeINS_12basic_stringIcNS_11char_traitsIcEENS_9allocatorIcEEEES7_EENS_19__map_value_compareIS7_S8_NS_4lessIS7_EELb1EEENS5_IS8_EEE6__rootB7v160006Ev, symObjAddr: 0x14010, symBinAddr: 0x1000228D8, symSize: 0x28 }
  - { offsetInCU: 0x22990, offset: 0x44F18, size: 0x8, addend: 0x0, symName: __ZNKSt3__16__treeINS_12__value_typeINS_12basic_stringIcNS_11char_traitsIcEENS_9allocatorIcEEEES7_EENS_19__map_value_compareIS7_S8_NS_4lessIS7_EELb1EEENS5_IS8_EEE10__root_ptrEv, symObjAddr: 0x14038, symBinAddr: 0x100022900, symSize: 0x24 }
  - { offsetInCU: 0x229B6, offset: 0x44F3E, size: 0x8, addend: 0x0, symName: __ZNSt3__16__treeINS_12__value_typeINS_12basic_stringIcNS_11char_traitsIcEENS_9allocatorIcEEEES7_EENS_19__map_value_compareIS7_S8_NS_4lessIS7_EELb1EEENS5_IS8_EEE10value_compB7v160006Ev, symObjAddr: 0x1405C, symBinAddr: 0x100022924, symSize: 0x28 }
  - { offsetInCU: 0x229DC, offset: 0x44F64, size: 0x8, addend: 0x0, symName: __ZNKSt3__119__map_value_compareINS_12basic_stringIcNS_11char_traitsIcEENS_9allocatorIcEEEENS_12__value_typeIS6_S6_EENS_4lessIS6_EELb1EEclB7v160006ERKS6_RKS8_, symObjAddr: 0x14084, symBinAddr: 0x10002294C, symSize: 0x50 }
  - { offsetInCU: 0x22A20, offset: 0x44FA8, size: 0x8, addend: 0x0, symName: __ZNKSt3__119__map_value_compareINS_12basic_stringIcNS_11char_traitsIcEENS_9allocatorIcEEEENS_12__value_typeIS6_S6_EENS_4lessIS6_EELb1EEclB7v160006ERKS8_RKS6_, symObjAddr: 0x140D4, symBinAddr: 0x10002299C, symSize: 0x48 }
  - { offsetInCU: 0x22A64, offset: 0x44FEC, size: 0x8, addend: 0x0, symName: __ZNKSt3__16__treeINS_12__value_typeINS_12basic_stringIcNS_11char_traitsIcEENS_9allocatorIcEEEES7_EENS_19__map_value_compareIS7_S8_NS_4lessIS7_EELb1EEENS5_IS8_EEE10__end_nodeB7v160006Ev, symObjAddr: 0x1411C, symBinAddr: 0x1000229E4, symSize: 0x2C }
  - { offsetInCU: 0x22A8A, offset: 0x45012, size: 0x8, addend: 0x0, symName: __ZNKSt3__117__compressed_pairINS_15__tree_end_nodeIPNS_16__tree_node_baseIPvEEEENS_9allocatorINS_11__tree_nodeINS_12__value_typeINS_12basic_stringIcNS_11char_traitsIcEENS7_IcEEEESE_EES3_EEEEE5firstB7v160006Ev, symObjAddr: 0x14148, symBinAddr: 0x100022A10, symSize: 0x24 }
  - { offsetInCU: 0x22AB0, offset: 0x45038, size: 0x8, addend: 0x0, symName: __ZNSt3__117__compressed_pairImNS_19__map_value_compareINS_12basic_stringIcNS_11char_traitsIcEENS_9allocatorIcEEEENS_12__value_typeIS7_S7_EENS_4lessIS7_EELb1EEEE6secondB7v160006Ev, symObjAddr: 0x1416C, symBinAddr: 0x100022A34, symSize: 0x24 }
  - { offsetInCU: 0x22AD6, offset: 0x4505E, size: 0x8, addend: 0x0, symName: __ZNSt3__122__compressed_pair_elemINS_19__map_value_compareINS_12basic_stringIcNS_11char_traitsIcEENS_9allocatorIcEEEENS_12__value_typeIS7_S7_EENS_4lessIS7_EELb1EEELi1ELb1EE5__getB7v160006Ev, symObjAddr: 0x14190, symBinAddr: 0x100022A58, symSize: 0x14 }
  - { offsetInCU: 0x22AFC, offset: 0x45084, size: 0x8, addend: 0x0, symName: __ZNKSt3__112__value_typeINS_12basic_stringIcNS_11char_traitsIcEENS_9allocatorIcEEEES6_E11__get_valueB7v160006Ev, symObjAddr: 0x141A4, symBinAddr: 0x100022A6C, symSize: 0x14 }
  - { offsetInCU: 0x22B22, offset: 0x450AA, size: 0x8, addend: 0x0, symName: __ZNSt3__16__treeINS_12__value_typeINS_12basic_stringIcNS_11char_traitsIcEENS_9allocatorIcEEEES7_EENS_19__map_value_compareIS7_S8_NS_4lessIS7_EELb1EEENS5_IS8_EEE12__node_allocB7v160006Ev, symObjAddr: 0x141B8, symBinAddr: 0x100022A80, symSize: 0x28 }
  - { offsetInCU: 0x22B48, offset: 0x450D0, size: 0x8, addend: 0x0, symName: __ZNSt3__116allocator_traitsINS_9allocatorINS_11__tree_nodeINS_12__value_typeINS_12basic_stringIcNS_11char_traitsIcEENS1_IcEEEES8_EEPvEEEEE8allocateB7v160006ERSC_m, symObjAddr: 0x141E0, symBinAddr: 0x100022AA8, symSize: 0x2C }
  - { offsetInCU: 0x22B7B, offset: 0x45103, size: 0x8, addend: 0x0, symName: __ZNSt3__121__map_node_destructorINS_9allocatorINS_11__tree_nodeINS_12__value_typeINS_12basic_stringIcNS_11char_traitsIcEENS1_IcEEEES8_EEPvEEEEEC1B7v160006ERSC_, symObjAddr: 0x1420C, symBinAddr: 0x100022AD4, symSize: 0x34 }
  - { offsetInCU: 0x22BB9, offset: 0x45141, size: 0x8, addend: 0x0, symName: __ZNSt3__110unique_ptrINS_11__tree_nodeINS_12__value_typeINS_12basic_stringIcNS_11char_traitsIcEENS_9allocatorIcEEEES8_EEPvEENS_21__map_node_destructorINS6_ISB_EEEEEC1B7v160006ILb1EvEEPSB_NS_16__dependent_typeINS_27__unique_ptr_deleter_sfinaeISE_EEXT_EE20__good_rval_ref_typeE, symObjAddr: 0x14240, symBinAddr: 0x100022B08, symSize: 0x3C }
  - { offsetInCU: 0x22C0A, offset: 0x45192, size: 0x8, addend: 0x0, symName: __ZNSt3__116allocator_traitsINS_9allocatorINS_11__tree_nodeINS_12__value_typeINS_12basic_stringIcNS_11char_traitsIcEENS1_IcEEEES8_EEPvEEEEE9constructB7v160006IKS8_JRSF_EvEEvRSC_PT_DpOT0_, symObjAddr: 0x1427C, symBinAddr: 0x100022B44, symSize: 0x34 }
  - { offsetInCU: 0x22C61, offset: 0x451E9, size: 0x8, addend: 0x0, symName: __ZNKSt3__110unique_ptrINS_11__tree_nodeINS_12__value_typeINS_12basic_stringIcNS_11char_traitsIcEENS_9allocatorIcEEEES8_EEPvEENS_21__map_node_destructorINS6_ISB_EEEEEptB7v160006Ev, symObjAddr: 0x142B0, symBinAddr: 0x100022B78, symSize: 0x28 }
  - { offsetInCU: 0x22C87, offset: 0x4520F, size: 0x8, addend: 0x0, symName: __ZNSt3__110unique_ptrINS_11__tree_nodeINS_12__value_typeINS_12basic_stringIcNS_11char_traitsIcEENS_9allocatorIcEEEES8_EEPvEENS_21__map_node_destructorINS6_ISB_EEEEE11get_deleterB7v160006Ev, symObjAddr: 0x142D8, symBinAddr: 0x100022BA0, symSize: 0x24 }
  - { offsetInCU: 0x22CAD, offset: 0x45235, size: 0x8, addend: 0x0, symName: __ZNSt3__116allocator_traitsINS_9allocatorINS_11__tree_nodeINS_12__value_typeINS_12basic_stringIcNS_11char_traitsIcEENS1_IcEEEES8_EEPvEEEEE9constructB7v160006IS8_JEvEEvRSC_PT_DpOT0_, symObjAddr: 0x142FC, symBinAddr: 0x100022BC4, symSize: 0x2C }
  - { offsetInCU: 0x22CEF, offset: 0x45277, size: 0x8, addend: 0x0, symName: __ZNSt3__117__compressed_pairINS_15__tree_end_nodeIPNS_16__tree_node_baseIPvEEEENS_9allocatorINS_11__tree_nodeINS_12__value_typeINS_12basic_stringIcNS_11char_traitsIcEENS7_IcEEEESE_EES3_EEEEE6secondB7v160006Ev, symObjAddr: 0x14328, symBinAddr: 0x100022BF0, symSize: 0x24 }
  - { offsetInCU: 0x22D15, offset: 0x4529D, size: 0x8, addend: 0x0, symName: __ZNSt3__122__compressed_pair_elemINS_9allocatorINS_11__tree_nodeINS_12__value_typeINS_12basic_stringIcNS_11char_traitsIcEENS1_IcEEEES8_EEPvEEEELi1ELb1EE5__getB7v160006Ev, symObjAddr: 0x1434C, symBinAddr: 0x100022C14, symSize: 0x14 }
  - { offsetInCU: 0x22D3B, offset: 0x452C3, size: 0x8, addend: 0x0, symName: __ZNSt3__19allocatorINS_11__tree_nodeINS_12__value_typeINS_12basic_stringIcNS_11char_traitsIcEENS0_IcEEEES7_EEPvEEE8allocateB7v160006Em, symObjAddr: 0x14360, symBinAddr: 0x100022C28, symSize: 0x8C }
  - { offsetInCU: 0x22D79, offset: 0x45301, size: 0x8, addend: 0x0, symName: __ZNSt3__116allocator_traitsINS_9allocatorINS_11__tree_nodeINS_12__value_typeINS_12basic_stringIcNS_11char_traitsIcEENS1_IcEEEES8_EEPvEEEEE8max_sizeB7v160006ISC_vEEmRKSC_, symObjAddr: 0x143EC, symBinAddr: 0x100022CB4, symSize: 0x24 }
  - { offsetInCU: 0x22DA7, offset: 0x4532F, size: 0x8, addend: 0x0, symName: __ZNKSt3__19allocatorINS_11__tree_nodeINS_12__value_typeINS_12basic_stringIcNS_11char_traitsIcEENS0_IcEEEES7_EEPvEEE8max_sizeB7v160006Ev, symObjAddr: 0x14410, symBinAddr: 0x100022CD8, symSize: 0x18 }
  - { offsetInCU: 0x22DCD, offset: 0x45355, size: 0x8, addend: 0x0, symName: __ZNSt3__121__map_node_destructorINS_9allocatorINS_11__tree_nodeINS_12__value_typeINS_12basic_stringIcNS_11char_traitsIcEENS1_IcEEEES8_EEPvEEEEEC2B7v160006ERSC_, symObjAddr: 0x14428, symBinAddr: 0x100022CF0, symSize: 0x28 }
  - { offsetInCU: 0x22E06, offset: 0x4538E, size: 0x8, addend: 0x0, symName: __ZNSt3__110unique_ptrINS_11__tree_nodeINS_12__value_typeINS_12basic_stringIcNS_11char_traitsIcEENS_9allocatorIcEEEES8_EEPvEENS_21__map_node_destructorINS6_ISB_EEEEEC2B7v160006ILb1EvEEPSB_NS_16__dependent_typeINS_27__unique_ptr_deleter_sfinaeISE_EEXT_EE20__good_rval_ref_typeE, symObjAddr: 0x14450, symBinAddr: 0x100022D18, symSize: 0x5C }
  - { offsetInCU: 0x22E57, offset: 0x453DF, size: 0x8, addend: 0x0, symName: __ZNSt3__117__compressed_pairIPNS_11__tree_nodeINS_12__value_typeINS_12basic_stringIcNS_11char_traitsIcEENS_9allocatorIcEEEES8_EEPvEENS_21__map_node_destructorINS6_ISB_EEEEEC1B7v160006IRSC_SF_EEOT_OT0_, symObjAddr: 0x144AC, symBinAddr: 0x100022D74, symSize: 0x3C }
  - { offsetInCU: 0x22EAF, offset: 0x45437, size: 0x8, addend: 0x0, symName: __ZNSt3__117__compressed_pairIPNS_11__tree_nodeINS_12__value_typeINS_12basic_stringIcNS_11char_traitsIcEENS_9allocatorIcEEEES8_EEPvEENS_21__map_node_destructorINS6_ISB_EEEEEC2B7v160006IRSC_SF_EEOT_OT0_, symObjAddr: 0x144E8, symBinAddr: 0x100022DB0, symSize: 0x48 }
  - { offsetInCU: 0x22F07, offset: 0x4548F, size: 0x8, addend: 0x0, symName: __ZNSt3__122__compressed_pair_elemIPNS_11__tree_nodeINS_12__value_typeINS_12basic_stringIcNS_11char_traitsIcEENS_9allocatorIcEEEES8_EEPvEELi0ELb0EEC2B7v160006IRSC_vEEOT_, symObjAddr: 0x14530, symBinAddr: 0x100022DF8, symSize: 0x24 }
  - { offsetInCU: 0x22F49, offset: 0x454D1, size: 0x8, addend: 0x0, symName: __ZNSt3__122__compressed_pair_elemINS_21__map_node_destructorINS_9allocatorINS_11__tree_nodeINS_12__value_typeINS_12basic_stringIcNS_11char_traitsIcEENS2_IcEEEES9_EEPvEEEEEELi1ELb0EEC2B7v160006ISE_vEEOT_, symObjAddr: 0x14554, symBinAddr: 0x100022E1C, symSize: 0x24 }
  - { offsetInCU: 0x22F8B, offset: 0x45513, size: 0x8, addend: 0x0, symName: __ZNSt3__19allocatorINS_11__tree_nodeINS_12__value_typeINS_12basic_stringIcNS_11char_traitsIcEENS0_IcEEEES7_EEPvEEE9constructB7v160006IKS7_JRSD_EEEvPT_DpOT0_, symObjAddr: 0x14578, symBinAddr: 0x100022E40, symSize: 0x30 }
  - { offsetInCU: 0x22FE1, offset: 0x45569, size: 0x8, addend: 0x0, symName: __ZNKSt3__117__compressed_pairIPNS_11__tree_nodeINS_12__value_typeINS_12basic_stringIcNS_11char_traitsIcEENS_9allocatorIcEEEES8_EEPvEENS_21__map_node_destructorINS6_ISB_EEEEE5firstB7v160006Ev, symObjAddr: 0x145A8, symBinAddr: 0x100022E70, symSize: 0x24 }
  - { offsetInCU: 0x23007, offset: 0x4558F, size: 0x8, addend: 0x0, symName: __ZNKSt3__122__compressed_pair_elemIPNS_11__tree_nodeINS_12__value_typeINS_12basic_stringIcNS_11char_traitsIcEENS_9allocatorIcEEEES8_EEPvEELi0ELb0EE5__getB7v160006Ev, symObjAddr: 0x145CC, symBinAddr: 0x100022E94, symSize: 0x14 }
  - { offsetInCU: 0x2302D, offset: 0x455B5, size: 0x8, addend: 0x0, symName: __ZNSt3__117__compressed_pairIPNS_11__tree_nodeINS_12__value_typeINS_12basic_stringIcNS_11char_traitsIcEENS_9allocatorIcEEEES8_EEPvEENS_21__map_node_destructorINS6_ISB_EEEEE6secondB7v160006Ev, symObjAddr: 0x145E0, symBinAddr: 0x100022EA8, symSize: 0x28 }
  - { offsetInCU: 0x23053, offset: 0x455DB, size: 0x8, addend: 0x0, symName: __ZNSt3__122__compressed_pair_elemINS_21__map_node_destructorINS_9allocatorINS_11__tree_nodeINS_12__value_typeINS_12basic_stringIcNS_11char_traitsIcEENS2_IcEEEES9_EEPvEEEEEELi1ELb0EE5__getB7v160006Ev, symObjAddr: 0x14608, symBinAddr: 0x100022ED0, symSize: 0x14 }
  - { offsetInCU: 0x23079, offset: 0x45601, size: 0x8, addend: 0x0, symName: __ZNSt3__19allocatorINS_11__tree_nodeINS_12__value_typeINS_12basic_stringIcNS_11char_traitsIcEENS0_IcEEEES7_EEPvEEE9constructB7v160006IS7_JEEEvPT_DpOT0_, symObjAddr: 0x1461C, symBinAddr: 0x100022EE4, symSize: 0x28 }
  - { offsetInCU: 0x230BB, offset: 0x45643, size: 0x8, addend: 0x0, symName: __ZNSt3__16__treeINS_12__value_typeINS_12basic_stringIcNS_11char_traitsIcEENS_9allocatorIcEEEES7_EENS_19__map_value_compareIS7_S8_NS_4lessIS7_EELb1EEENS5_IS8_EEE4sizeB7v160006Ev, symObjAddr: 0x14644, symBinAddr: 0x100022F0C, symSize: 0x28 }
  - { offsetInCU: 0x230E1, offset: 0x45669, size: 0x8, addend: 0x0, symName: __ZNSt3__117__compressed_pairImNS_19__map_value_compareINS_12basic_stringIcNS_11char_traitsIcEENS_9allocatorIcEEEENS_12__value_typeIS7_S7_EENS_4lessIS7_EELb1EEEE5firstB7v160006Ev, symObjAddr: 0x1466C, symBinAddr: 0x100022F34, symSize: 0x24 }
  - { offsetInCU: 0x23107, offset: 0x4568F, size: 0x8, addend: 0x0, symName: __ZNSt3__117__compressed_pairIPNS_11__tree_nodeINS_12__value_typeINS_12basic_stringIcNS_11char_traitsIcEENS_9allocatorIcEEEES8_EEPvEENS_21__map_node_destructorINS6_ISB_EEEEE5firstB7v160006Ev, symObjAddr: 0x14690, symBinAddr: 0x100022F58, symSize: 0x24 }
  - { offsetInCU: 0x2312D, offset: 0x456B5, size: 0x8, addend: 0x0, symName: __ZNSt3__122__compressed_pair_elemIPNS_11__tree_nodeINS_12__value_typeINS_12basic_stringIcNS_11char_traitsIcEENS_9allocatorIcEEEES8_EEPvEELi0ELb0EE5__getB7v160006Ev, symObjAddr: 0x146B4, symBinAddr: 0x100022F7C, symSize: 0x14 }
  - { offsetInCU: 0x23153, offset: 0x456DB, size: 0x8, addend: 0x0, symName: __ZNSt3__110unique_ptrINS_11__tree_nodeINS_12__value_typeINS_12basic_stringIcNS_11char_traitsIcEENS_9allocatorIcEEEES8_EEPvEENS_21__map_node_destructorINS6_ISB_EEEEED2B7v160006Ev, symObjAddr: 0x146C8, symBinAddr: 0x100022F90, symSize: 0x30 }
  - { offsetInCU: 0x2317D, offset: 0x45705, size: 0x8, addend: 0x0, symName: __ZNSt3__110unique_ptrINS_11__tree_nodeINS_12__value_typeINS_12basic_stringIcNS_11char_traitsIcEENS_9allocatorIcEEEES8_EEPvEENS_21__map_node_destructorINS6_ISB_EEEEE5resetB7v160006EPSB_, symObjAddr: 0x146F8, symBinAddr: 0x100022FC0, symSize: 0x78 }
  - { offsetInCU: 0x231C1, offset: 0x45749, size: 0x8, addend: 0x0, symName: __ZNSt3__121__map_node_destructorINS_9allocatorINS_11__tree_nodeINS_12__value_typeINS_12basic_stringIcNS_11char_traitsIcEENS1_IcEEEES8_EEPvEEEEEclB7v160006EPSB_, symObjAddr: 0x14770, symBinAddr: 0x100023038, symSize: 0xF4 }
  - { offsetInCU: 0x231F6, offset: 0x4577E, size: 0x8, addend: 0x0, symName: __ZNSt3__116allocator_traitsINS_9allocatorINS_11__tree_nodeINS_12__value_typeINS_12basic_stringIcNS_11char_traitsIcEENS1_IcEEEES8_EEPvEEEEE7destroyB7v160006IS8_vvEEvRSC_PT_, symObjAddr: 0x14864, symBinAddr: 0x10002312C, symSize: 0x28 }
  - { offsetInCU: 0x23231, offset: 0x457B9, size: 0x8, addend: 0x0, symName: __ZNSt3__116allocator_traitsINS_9allocatorINS_11__tree_nodeINS_12__value_typeINS_12basic_stringIcNS_11char_traitsIcEENS1_IcEEEES8_EEPvEEEEE7destroyB7v160006IKS8_vvEEvRSC_PT_, symObjAddr: 0x1488C, symBinAddr: 0x100023154, symSize: 0x28 }
  - { offsetInCU: 0x2326C, offset: 0x457F4, size: 0x8, addend: 0x0, symName: __ZNSt3__116allocator_traitsINS_9allocatorINS_11__tree_nodeINS_12__value_typeINS_12basic_stringIcNS_11char_traitsIcEENS1_IcEEEES8_EEPvEEEEE10deallocateB7v160006ERSC_PSB_m, symObjAddr: 0x148B4, symBinAddr: 0x10002317C, symSize: 0x34 }
  - { offsetInCU: 0x232AE, offset: 0x45836, size: 0x8, addend: 0x0, symName: __ZNSt3__19allocatorINS_11__tree_nodeINS_12__value_typeINS_12basic_stringIcNS_11char_traitsIcEENS0_IcEEEES7_EEPvEEE10deallocateB7v160006EPSA_m, symObjAddr: 0x148E8, symBinAddr: 0x1000231B0, symSize: 0x74 }
  - { offsetInCU: 0x232F0, offset: 0x45878, size: 0x8, addend: 0x0, symName: __ZNSt3__13mapINS_12basic_stringIcNS_11char_traitsIcEENS_9allocatorIcEEEES6_NS_4lessIS6_EENS4_INS_4pairIKS6_S6_EEEEED2B7v160006Ev, symObjAddr: 0x1495C, symBinAddr: 0x100023224, symSize: 0x2C }
  - { offsetInCU: 0x2331A, offset: 0x458A2, size: 0x8, addend: 0x0, symName: __ZNSt3__16__treeINS_12__value_typeINS_12basic_stringIcNS_11char_traitsIcEENS_9allocatorIcEEEES7_EENS_19__map_value_compareIS7_S8_NS_4lessIS7_EELb1EEENS5_IS8_EEED1Ev, symObjAddr: 0x14988, symBinAddr: 0x100023250, symSize: 0x2C }
  - { offsetInCU: 0x23346, offset: 0x458CE, size: 0x8, addend: 0x0, symName: __ZNSt3__16__treeINS_12__value_typeINS_12basic_stringIcNS_11char_traitsIcEENS_9allocatorIcEEEES7_EENS_19__map_value_compareIS7_S8_NS_4lessIS7_EELb1EEENS5_IS8_EEED2Ev, symObjAddr: 0x149B4, symBinAddr: 0x10002327C, symSize: 0x38 }
  - { offsetInCU: 0x23372, offset: 0x458FA, size: 0x8, addend: 0x0, symName: __ZNSt3__16__treeINS_12__value_typeINS_12basic_stringIcNS_11char_traitsIcEENS_9allocatorIcEEEES7_EENS_19__map_value_compareIS7_S8_NS_4lessIS7_EELb1EEENS5_IS8_EEE7destroyEPNS_11__tree_nodeIS8_PvEE, symObjAddr: 0x149EC, symBinAddr: 0x1000232B4, symSize: 0xC0 }
  - { offsetInCU: 0x233C6, offset: 0x4594E, size: 0x8, addend: 0x0, symName: __ZNSt3__116allocator_traitsINS_9allocatorINS_11__tree_nodeINS_12__value_typeINS_12basic_stringIcNS_11char_traitsIcEENS1_IcEEEES8_EEPvEEEEE7destroyB7v160006INS_4pairIKS8_S8_EEvvEEvRSC_PT_, symObjAddr: 0x14AAC, symBinAddr: 0x100023374, symSize: 0x28 }
  - { offsetInCU: 0x23401, offset: 0x45989, size: 0x8, addend: 0x0, symName: __ZNSt3__122__tree_key_value_typesINS_12__value_typeINS_12basic_stringIcNS_11char_traitsIcEENS_9allocatorIcEEEES7_EEE9__get_ptrB7v160006ERS8_, symObjAddr: 0x14AD4, symBinAddr: 0x10002339C, symSize: 0x24 }
  - { offsetInCU: 0x23425, offset: 0x459AD, size: 0x8, addend: 0x0, symName: __ZNSt3__14pairIKNS_12basic_stringIcNS_11char_traitsIcEENS_9allocatorIcEEEES6_ED1Ev, symObjAddr: 0x14AF8, symBinAddr: 0x1000233C0, symSize: 0x2C }
  - { offsetInCU: 0x23451, offset: 0x459D9, size: 0x8, addend: 0x0, symName: __ZNSt3__14pairIKNS_12basic_stringIcNS_11char_traitsIcEENS_9allocatorIcEEEES6_ED2Ev, symObjAddr: 0x14B24, symBinAddr: 0x1000233EC, symSize: 0x68 }
  - { offsetInCU: 0x2347D, offset: 0x45A05, size: 0x8, addend: 0x0, symName: __ZN5GraphINSt3__112basic_stringIcNS0_11char_traitsIcEENS0_9allocatorIcEEEE13BitacoraLineaE6searchERKS6_, symObjAddr: 0x14B8C, symBinAddr: 0x100023454, symSize: 0xC8 }
  - { offsetInCU: 0x23505, offset: 0x45A8D, size: 0x8, addend: 0x0, symName: __ZN6VertexINSt3__112basic_stringIcNS0_11char_traitsIcEENS0_9allocatorIcEEEE13BitacoraLineaEC1ES6_, symObjAddr: 0x14C54, symBinAddr: 0x10002351C, symSize: 0x34 }
  - { offsetInCU: 0x2353E, offset: 0x45AC6, size: 0x8, addend: 0x0, symName: __ZN5GraphINSt3__112basic_stringIcNS0_11char_traitsIcEENS0_9allocatorIcEEEE13BitacoraLineaE9addVertexEP6VertexIS6_S7_E, symObjAddr: 0x14C88, symBinAddr: 0x100023550, symSize: 0x30 }
  - { offsetInCU: 0x23573, offset: 0x45AFB, size: 0x8, addend: 0x0, symName: __ZN5GraphINSt3__112basic_stringIcNS0_11char_traitsIcEENS0_9allocatorIcEEEE13BitacoraLineaE12addEdgeFechaEP6VertexIS6_S7_ESB_RKS7_RKS6_, symObjAddr: 0x14CB8, symBinAddr: 0x100023580, symSize: 0x84 }
  - { offsetInCU: 0x235E0, offset: 0x45B68, size: 0x8, addend: 0x0, symName: __ZN5GraphINSt3__112basic_stringIcNS0_11char_traitsIcEENS0_9allocatorIcEEEE13BitacoraLineaE8imprimirEv, symObjAddr: 0x14D3C, symBinAddr: 0x100023604, symSize: 0xF0 }
  - { offsetInCU: 0x23648, offset: 0x45BD0, size: 0x8, addend: 0x0, symName: __ZNK6VertexINSt3__112basic_stringIcNS0_11char_traitsIcEENS0_9allocatorIcEEEE13BitacoraLineaE7getInfoEv, symObjAddr: 0x14E2C, symBinAddr: 0x1000236F4, symSize: 0x38 }
  - { offsetInCU: 0x2366F, offset: 0x45BF7, size: 0x8, addend: 0x0, symName: __ZN6VertexINSt3__112basic_stringIcNS0_11char_traitsIcEENS0_9allocatorIcEEEE13BitacoraLineaEC2ES6_, symObjAddr: 0x14E64, symBinAddr: 0x10002372C, symSize: 0x74 }
  - { offsetInCU: 0x236A8, offset: 0x45C30, size: 0x8, addend: 0x0, symName: __ZNSt3__16vectorIP4EdgeINS_12basic_stringIcNS_11char_traitsIcEENS_9allocatorIcEEEE13BitacoraLineaENS5_ISA_EEEC1B7v160006Ev, symObjAddr: 0x14ED8, symBinAddr: 0x1000237A0, symSize: 0x2C }
  - { offsetInCU: 0x236D2, offset: 0x45C5A, size: 0x8, addend: 0x0, symName: __ZNSt3__16vectorIP4EdgeINS_12basic_stringIcNS_11char_traitsIcEENS_9allocatorIcEEEE13BitacoraLineaENS5_ISA_EEEC2B7v160006Ev, symObjAddr: 0x14F04, symBinAddr: 0x1000237CC, symSize: 0x4C }
  - { offsetInCU: 0x236FC, offset: 0x45C84, size: 0x8, addend: 0x0, symName: __ZNSt3__117__compressed_pairIPP4EdgeINS_12basic_stringIcNS_11char_traitsIcEENS_9allocatorIcEEEE13BitacoraLineaENS5_ISA_EEEC1B7v160006IDnNS_18__default_init_tagEEEOT_OT0_, symObjAddr: 0x14F50, symBinAddr: 0x100023818, symSize: 0x3C }
  - { offsetInCU: 0x23754, offset: 0x45CDC, size: 0x8, addend: 0x0, symName: __ZNSt3__117__compressed_pairIPP4EdgeINS_12basic_stringIcNS_11char_traitsIcEENS_9allocatorIcEEEE13BitacoraLineaENS5_ISA_EEEC2B7v160006IDnNS_18__default_init_tagEEEOT_OT0_, symObjAddr: 0x14F9C, symBinAddr: 0x100023864, symSize: 0x40 }
  - { offsetInCU: 0x237AC, offset: 0x45D34, size: 0x8, addend: 0x0, symName: __ZNSt3__122__compressed_pair_elemIPP4EdgeINS_12basic_stringIcNS_11char_traitsIcEENS_9allocatorIcEEEE13BitacoraLineaELi0ELb0EEC2B7v160006IDnvEEOT_, symObjAddr: 0x14FDC, symBinAddr: 0x1000238A4, symSize: 0x1C }
  - { offsetInCU: 0x237EE, offset: 0x45D76, size: 0x8, addend: 0x0, symName: __ZNSt3__122__compressed_pair_elemINS_9allocatorIP4EdgeINS_12basic_stringIcNS_11char_traitsIcEENS1_IcEEEE13BitacoraLineaEEELi1ELb1EEC2B7v160006ENS_18__default_init_tagE, symObjAddr: 0x14FF8, symBinAddr: 0x1000238C0, symSize: 0x2C }
  - { offsetInCU: 0x23823, offset: 0x45DAB, size: 0x8, addend: 0x0, symName: __ZNSt3__19allocatorIP4EdgeINS_12basic_stringIcNS_11char_traitsIcEENS0_IcEEEE13BitacoraLineaEEC2B7v160006Ev, symObjAddr: 0x15024, symBinAddr: 0x1000238EC, symSize: 0x2C }
  - { offsetInCU: 0x2384D, offset: 0x45DD5, size: 0x8, addend: 0x0, symName: __ZNSt3__116__non_trivial_ifILb1ENS_9allocatorIP4EdgeINS_12basic_stringIcNS_11char_traitsIcEENS1_IcEEEE13BitacoraLineaEEEEC2B7v160006Ev, symObjAddr: 0x15050, symBinAddr: 0x100023918, symSize: 0x14 }
  - { offsetInCU: 0x23877, offset: 0x45DFF, size: 0x8, addend: 0x0, symName: __ZNSt3__16vectorIP6VertexINS_12basic_stringIcNS_11char_traitsIcEENS_9allocatorIcEEEE13BitacoraLineaENS5_ISA_EEE9push_backB7v160006ERKSA_, symObjAddr: 0x15064, symBinAddr: 0x10002392C, symSize: 0x6C }
  - { offsetInCU: 0x238AD, offset: 0x45E35, size: 0x8, addend: 0x0, symName: __ZNSt3__16vectorIP6VertexINS_12basic_stringIcNS_11char_traitsIcEENS_9allocatorIcEEEE13BitacoraLineaENS5_ISA_EEE9__end_capB7v160006Ev, symObjAddr: 0x150D0, symBinAddr: 0x100023998, symSize: 0x28 }
  - { offsetInCU: 0x238D3, offset: 0x45E5B, size: 0x8, addend: 0x0, symName: __ZNSt3__16vectorIP6VertexINS_12basic_stringIcNS_11char_traitsIcEENS_9allocatorIcEEEE13BitacoraLineaENS5_ISA_EEE22__construct_one_at_endB7v160006IJRKSA_EEEvDpOT_, symObjAddr: 0x150F8, symBinAddr: 0x1000239C0, symSize: 0x98 }
  - { offsetInCU: 0x23922, offset: 0x45EAA, size: 0x8, addend: 0x0, symName: __ZNSt3__16vectorIP6VertexINS_12basic_stringIcNS_11char_traitsIcEENS_9allocatorIcEEEE13BitacoraLineaENS5_ISA_EEE21__push_back_slow_pathIRKSA_EEvOT_, symObjAddr: 0x15190, symBinAddr: 0x100023A58, symSize: 0xE0 }
  - { offsetInCU: 0x2397F, offset: 0x45F07, size: 0x8, addend: 0x0, symName: __ZNSt3__117__compressed_pairIPP6VertexINS_12basic_stringIcNS_11char_traitsIcEENS_9allocatorIcEEEE13BitacoraLineaENS5_ISA_EEE5firstB7v160006Ev, symObjAddr: 0x15270, symBinAddr: 0x100023B38, symSize: 0x24 }
  - { offsetInCU: 0x239A5, offset: 0x45F2D, size: 0x8, addend: 0x0, symName: __ZNSt3__122__compressed_pair_elemIPP6VertexINS_12basic_stringIcNS_11char_traitsIcEENS_9allocatorIcEEEE13BitacoraLineaELi0ELb0EE5__getB7v160006Ev, symObjAddr: 0x15294, symBinAddr: 0x100023B5C, symSize: 0x14 }
  - { offsetInCU: 0x239E4, offset: 0x45F6C, size: 0x8, addend: 0x0, symName: __ZNSt3__16vectorIP6VertexINS_12basic_stringIcNS_11char_traitsIcEENS_9allocatorIcEEEE13BitacoraLineaENS5_ISA_EEE21_ConstructTransactionC1B7v160006ERSC_m, symObjAddr: 0x152A8, symBinAddr: 0x100023B70, symSize: 0x3C }
  - { offsetInCU: 0x23A2C, offset: 0x45FB4, size: 0x8, addend: 0x0, symName: __ZNSt3__116allocator_traitsINS_9allocatorIP6VertexINS_12basic_stringIcNS_11char_traitsIcEENS1_IcEEEE13BitacoraLineaEEEE9constructB7v160006ISA_JRKSA_EvEEvRSB_PT_DpOT0_, symObjAddr: 0x152E4, symBinAddr: 0x100023BAC, symSize: 0x34 }
  - { offsetInCU: 0x23A83, offset: 0x4600B, size: 0x8, addend: 0x0, symName: __ZNSt3__16vectorIP6VertexINS_12basic_stringIcNS_11char_traitsIcEENS_9allocatorIcEEEE13BitacoraLineaENS5_ISA_EEE21_ConstructTransactionD1B7v160006Ev, symObjAddr: 0x15318, symBinAddr: 0x100023BE0, symSize: 0x2C }
  - { offsetInCU: 0x23AAD, offset: 0x46035, size: 0x8, addend: 0x0, symName: __ZNSt3__16vectorIP6VertexINS_12basic_stringIcNS_11char_traitsIcEENS_9allocatorIcEEEE13BitacoraLineaENS5_ISA_EEE21_ConstructTransactionC2B7v160006ERSC_m, symObjAddr: 0x15344, symBinAddr: 0x100023C0C, symSize: 0x44 }
  - { offsetInCU: 0x23AF5, offset: 0x4607D, size: 0x8, addend: 0x0, symName: __ZNSt3__19allocatorIP6VertexINS_12basic_stringIcNS_11char_traitsIcEENS0_IcEEEE13BitacoraLineaEE9constructB7v160006IS9_JRKS9_EEEvPT_DpOT0_, symObjAddr: 0x15388, symBinAddr: 0x100023C50, symSize: 0x28 }
  - { offsetInCU: 0x23B4B, offset: 0x460D3, size: 0x8, addend: 0x0, symName: __ZNSt3__16vectorIP6VertexINS_12basic_stringIcNS_11char_traitsIcEENS_9allocatorIcEEEE13BitacoraLineaENS5_ISA_EEE21_ConstructTransactionD2B7v160006Ev, symObjAddr: 0x153B0, symBinAddr: 0x100023C78, symSize: 0x20 }
  - { offsetInCU: 0x23B75, offset: 0x460FD, size: 0x8, addend: 0x0, symName: __ZNKSt3__16vectorIP6VertexINS_12basic_stringIcNS_11char_traitsIcEENS_9allocatorIcEEEE13BitacoraLineaENS5_ISA_EEE11__recommendB7v160006Em, symObjAddr: 0x153D0, symBinAddr: 0x100023C98, symSize: 0xB4 }
  - { offsetInCU: 0x23BC9, offset: 0x46151, size: 0x8, addend: 0x0, symName: __ZNSt3__114__split_bufferIP6VertexINS_12basic_stringIcNS_11char_traitsIcEENS_9allocatorIcEEEE13BitacoraLineaERNS5_ISA_EEEC1EmmSC_, symObjAddr: 0x15484, symBinAddr: 0x100023D4C, symSize: 0x44 }
  - { offsetInCU: 0x23C1F, offset: 0x461A7, size: 0x8, addend: 0x0, symName: __ZNSt3__114__split_bufferIP6VertexINS_12basic_stringIcNS_11char_traitsIcEENS_9allocatorIcEEEE13BitacoraLineaERNS5_ISA_EEED1Ev, symObjAddr: 0x155E0, symBinAddr: 0x100023EA8, symSize: 0x2C }
  - { offsetInCU: 0x23C4B, offset: 0x461D3, size: 0x8, addend: 0x0, symName: __ZNKSt3__16vectorIP6VertexINS_12basic_stringIcNS_11char_traitsIcEENS_9allocatorIcEEEE13BitacoraLineaENS5_ISA_EEE8max_sizeEv, symObjAddr: 0x1560C, symBinAddr: 0x100023ED4, symSize: 0x74 }
  - { offsetInCU: 0x23C72, offset: 0x461FA, size: 0x8, addend: 0x0, symName: __ZNKSt3__16vectorIP6VertexINS_12basic_stringIcNS_11char_traitsIcEENS_9allocatorIcEEEE13BitacoraLineaENS5_ISA_EEE20__throw_length_errorB7v160006Ev, symObjAddr: 0x15680, symBinAddr: 0x100023F48, symSize: 0x1C }
  - { offsetInCU: 0x23CA2, offset: 0x4622A, size: 0x8, addend: 0x0, symName: __ZNSt3__116allocator_traitsINS_9allocatorIP6VertexINS_12basic_stringIcNS_11char_traitsIcEENS1_IcEEEE13BitacoraLineaEEEE8max_sizeB7v160006ISB_vEEmRKSB_, symObjAddr: 0x1569C, symBinAddr: 0x100023F64, symSize: 0x24 }
  - { offsetInCU: 0x23CD0, offset: 0x46258, size: 0x8, addend: 0x0, symName: __ZNKSt3__16vectorIP6VertexINS_12basic_stringIcNS_11char_traitsIcEENS_9allocatorIcEEEE13BitacoraLineaENS5_ISA_EEE7__allocB7v160006Ev, symObjAddr: 0x156C0, symBinAddr: 0x100023F88, symSize: 0x28 }
  - { offsetInCU: 0x23CF6, offset: 0x4627E, size: 0x8, addend: 0x0, symName: __ZNKSt3__19allocatorIP6VertexINS_12basic_stringIcNS_11char_traitsIcEENS0_IcEEEE13BitacoraLineaEE8max_sizeB7v160006Ev, symObjAddr: 0x156E8, symBinAddr: 0x100023FB0, symSize: 0x14 }
  - { offsetInCU: 0x23D1C, offset: 0x462A4, size: 0x8, addend: 0x0, symName: __ZNKSt3__117__compressed_pairIPP6VertexINS_12basic_stringIcNS_11char_traitsIcEENS_9allocatorIcEEEE13BitacoraLineaENS5_ISA_EEE6secondB7v160006Ev, symObjAddr: 0x156FC, symBinAddr: 0x100023FC4, symSize: 0x24 }
  - { offsetInCU: 0x23D42, offset: 0x462CA, size: 0x8, addend: 0x0, symName: __ZNKSt3__122__compressed_pair_elemINS_9allocatorIP6VertexINS_12basic_stringIcNS_11char_traitsIcEENS1_IcEEEE13BitacoraLineaEEELi1ELb1EE5__getB7v160006Ev, symObjAddr: 0x15720, symBinAddr: 0x100023FE8, symSize: 0x14 }
  - { offsetInCU: 0x23D68, offset: 0x462F0, size: 0x8, addend: 0x0, symName: __ZNSt3__114__split_bufferIP6VertexINS_12basic_stringIcNS_11char_traitsIcEENS_9allocatorIcEEEE13BitacoraLineaERNS5_ISA_EEEC2EmmSC_, symObjAddr: 0x15734, symBinAddr: 0x100023FFC, symSize: 0xD4 }
  - { offsetInCU: 0x23DDC, offset: 0x46364, size: 0x8, addend: 0x0, symName: __ZNSt3__117__compressed_pairIPP6VertexINS_12basic_stringIcNS_11char_traitsIcEENS_9allocatorIcEEEE13BitacoraLineaERNS5_ISA_EEEC1B7v160006IDnSD_EEOT_OT0_, symObjAddr: 0x15808, symBinAddr: 0x1000240D0, symSize: 0x3C }
  - { offsetInCU: 0x23E34, offset: 0x463BC, size: 0x8, addend: 0x0, symName: __ZNSt3__114__split_bufferIP6VertexINS_12basic_stringIcNS_11char_traitsIcEENS_9allocatorIcEEEE13BitacoraLineaERNS5_ISA_EEE7__allocB7v160006Ev, symObjAddr: 0x15884, symBinAddr: 0x10002414C, symSize: 0x28 }
  - { offsetInCU: 0x23E5A, offset: 0x463E2, size: 0x8, addend: 0x0, symName: __ZNSt3__114__split_bufferIP6VertexINS_12basic_stringIcNS_11char_traitsIcEENS_9allocatorIcEEEE13BitacoraLineaERNS5_ISA_EEE9__end_capB7v160006Ev, symObjAddr: 0x158AC, symBinAddr: 0x100024174, symSize: 0x28 }
  - { offsetInCU: 0x23E80, offset: 0x46408, size: 0x8, addend: 0x0, symName: __ZNSt3__117__compressed_pairIPP6VertexINS_12basic_stringIcNS_11char_traitsIcEENS_9allocatorIcEEEE13BitacoraLineaERNS5_ISA_EEEC2B7v160006IDnSD_EEOT_OT0_, symObjAddr: 0x158D4, symBinAddr: 0x10002419C, symSize: 0x48 }
  - { offsetInCU: 0x23ED8, offset: 0x46460, size: 0x8, addend: 0x0, symName: __ZNSt3__122__compressed_pair_elemIRNS_9allocatorIP6VertexINS_12basic_stringIcNS_11char_traitsIcEENS1_IcEEEE13BitacoraLineaEEELi1ELb0EEC2B7v160006ISC_vEEOT_, symObjAddr: 0x1591C, symBinAddr: 0x1000241E4, symSize: 0x20 }
  - { offsetInCU: 0x23F1A, offset: 0x464A2, size: 0x8, addend: 0x0, symName: __ZNSt3__19allocatorIP6VertexINS_12basic_stringIcNS_11char_traitsIcEENS0_IcEEEE13BitacoraLineaEE8allocateB7v160006Em, symObjAddr: 0x1593C, symBinAddr: 0x100024204, symSize: 0x84 }
  - { offsetInCU: 0x23F4E, offset: 0x464D6, size: 0x8, addend: 0x0, symName: __ZNSt3__117__compressed_pairIPP6VertexINS_12basic_stringIcNS_11char_traitsIcEENS_9allocatorIcEEEE13BitacoraLineaERNS5_ISA_EEE6secondB7v160006Ev, symObjAddr: 0x159C0, symBinAddr: 0x100024288, symSize: 0x28 }
  - { offsetInCU: 0x23F74, offset: 0x464FC, size: 0x8, addend: 0x0, symName: __ZNSt3__122__compressed_pair_elemIRNS_9allocatorIP6VertexINS_12basic_stringIcNS_11char_traitsIcEENS1_IcEEEE13BitacoraLineaEEELi1ELb0EE5__getB7v160006Ev, symObjAddr: 0x159E8, symBinAddr: 0x1000242B0, symSize: 0x18 }
  - { offsetInCU: 0x23F9A, offset: 0x46522, size: 0x8, addend: 0x0, symName: __ZNSt3__117__compressed_pairIPP6VertexINS_12basic_stringIcNS_11char_traitsIcEENS_9allocatorIcEEEE13BitacoraLineaERNS5_ISA_EEE5firstB7v160006Ev, symObjAddr: 0x15A00, symBinAddr: 0x1000242C8, symSize: 0x24 }
  - { offsetInCU: 0x23FC0, offset: 0x46548, size: 0x8, addend: 0x0, symName: __ZNSt3__116reverse_iteratorIPP6VertexINS_12basic_stringIcNS_11char_traitsIcEENS_9allocatorIcEEEE13BitacoraLineaEEC1B7v160006ESB_, symObjAddr: 0x15B0C, symBinAddr: 0x1000243D4, symSize: 0x34 }
  - { offsetInCU: 0x23FF8, offset: 0x46580, size: 0x8, addend: 0x0, symName: __ZNKSt3__116reverse_iteratorIPP6VertexINS_12basic_stringIcNS_11char_traitsIcEENS_9allocatorIcEEEE13BitacoraLineaEE4baseB7v160006Ev, symObjAddr: 0x15B40, symBinAddr: 0x100024408, symSize: 0x18 }
  - { offsetInCU: 0x2401E, offset: 0x465A6, size: 0x8, addend: 0x0, symName: __ZNKSt3__16vectorIP6VertexINS_12basic_stringIcNS_11char_traitsIcEENS_9allocatorIcEEEE13BitacoraLineaENS5_ISA_EEE14__annotate_newB7v160006Em, symObjAddr: 0x15B94, symBinAddr: 0x10002445C, symSize: 0xAC }
  - { offsetInCU: 0x24053, offset: 0x465DB, size: 0x8, addend: 0x0, symName: __ZNKSt3__116reverse_iteratorIPP6VertexINS_12basic_stringIcNS_11char_traitsIcEENS_9allocatorIcEEEE13BitacoraLineaEEdeB7v160006Ev, symObjAddr: 0x15CD8, symBinAddr: 0x1000245A0, symSize: 0x28 }
  - { offsetInCU: 0x24087, offset: 0x4660F, size: 0x8, addend: 0x0, symName: __ZNSt3__116reverse_iteratorIPP6VertexINS_12basic_stringIcNS_11char_traitsIcEENS_9allocatorIcEEEE13BitacoraLineaEEppB7v160006Ev, symObjAddr: 0x15D00, symBinAddr: 0x1000245C8, symSize: 0x20 }
  - { offsetInCU: 0x240B2, offset: 0x4663A, size: 0x8, addend: 0x0, symName: __ZNSt3__119__to_address_helperINS_16reverse_iteratorIPP6VertexINS_12basic_stringIcNS_11char_traitsIcEENS_9allocatorIcEEEE13BitacoraLineaEEEvE6__callB7v160006ERKSD_, symObjAddr: 0x15D98, symBinAddr: 0x100024660, symSize: 0x4C }
  - { offsetInCU: 0x240D5, offset: 0x4665D, size: 0x8, addend: 0x0, symName: __ZNKSt3__116reverse_iteratorIPP6VertexINS_12basic_stringIcNS_11char_traitsIcEENS_9allocatorIcEEEE13BitacoraLineaEEptB7v160006Ev, symObjAddr: 0x15DE4, symBinAddr: 0x1000246AC, symSize: 0x24 }
  - { offsetInCU: 0x2411E, offset: 0x466A6, size: 0x8, addend: 0x0, symName: __ZNKSt3__111__move_loopINS_17_ClassicAlgPolicyEEclB7v160006INS_16reverse_iteratorIPP6VertexINS_12basic_stringIcNS_11char_traitsIcEENS_9allocatorIcEEEE13BitacoraLineaEEESG_SG_EENS_4pairIT_T1_EESI_T0_SJ_, symObjAddr: 0x16098, symBinAddr: 0x100024960, symSize: 0xA0 }
  - { offsetInCU: 0x2418E, offset: 0x46716, size: 0x8, addend: 0x0, symName: __ZNSt3__18_IterOpsINS_17_ClassicAlgPolicyEE11__iter_moveB7v160006IRNS_16reverse_iteratorIPP6VertexINS_12basic_stringIcNS_11char_traitsIcEENS_9allocatorIcEEEE13BitacoraLineaEEEEENS_9enable_ifIXsr12is_referenceIDTdeclsr3stdE7declvalIRT_EEEEE5valueEDTclsr3stdE4movedeclsr3stdE7declvalISK_EEEEE4typeEOSJ_, symObjAddr: 0x16298, symBinAddr: 0x100024B60, symSize: 0x28 }
  - { offsetInCU: 0x241BA, offset: 0x46742, size: 0x8, addend: 0x0, symName: __ZNSt3__18_IterOpsINS_17_ClassicAlgPolicyEE25__validate_iter_referenceB7v160006IRNS_16reverse_iteratorIPP6VertexINS_12basic_stringIcNS_11char_traitsIcEENS_9allocatorIcEEEE13BitacoraLineaEEEEEvv, symObjAddr: 0x162C0, symBinAddr: 0x100024B88, symSize: 0x4 }
  - { offsetInCU: 0x241D8, offset: 0x46760, size: 0x8, addend: 0x0, symName: __ZNSt3__118__unwrap_iter_implINS_16reverse_iteratorIPP6VertexINS_12basic_stringIcNS_11char_traitsIcEENS_9allocatorIcEEEE13BitacoraLineaEEELb0EE8__unwrapB7v160006ESD_, symObjAddr: 0x162C4, symBinAddr: 0x100024B8C, symSize: 0x24 }
  - { offsetInCU: 0x241FB, offset: 0x46783, size: 0x8, addend: 0x0, symName: __ZNSt3__14pairINS_16reverse_iteratorIPP6VertexINS_12basic_stringIcNS_11char_traitsIcEENS_9allocatorIcEEEE13BitacoraLineaEEESD_EC1B7v160006ERKSD_SG_, symObjAddr: 0x162E8, symBinAddr: 0x100024BB0, symSize: 0x3C }
  - { offsetInCU: 0x24241, offset: 0x467C9, size: 0x8, addend: 0x0, symName: __ZNSt3__14pairINS_16reverse_iteratorIPP6VertexINS_12basic_stringIcNS_11char_traitsIcEENS_9allocatorIcEEEE13BitacoraLineaEEESD_EC2B7v160006ERKSD_SG_, symObjAddr: 0x16324, symBinAddr: 0x100024BEC, symSize: 0x34 }
  - { offsetInCU: 0x24287, offset: 0x4680F, size: 0x8, addend: 0x0, symName: __ZNSt3__118__unwrap_iter_implINS_16reverse_iteratorIPP6VertexINS_12basic_stringIcNS_11char_traitsIcEENS_9allocatorIcEEEE13BitacoraLineaEEELb0EE8__rewrapB7v160006ESD_SD_, symObjAddr: 0x16358, symBinAddr: 0x100024C20, symSize: 0x2C }
  - { offsetInCU: 0x242B5, offset: 0x4683D, size: 0x8, addend: 0x0, symName: __ZNSt3__116reverse_iteratorIPP6VertexINS_12basic_stringIcNS_11char_traitsIcEENS_9allocatorIcEEEE13BitacoraLineaEEC2B7v160006ESB_, symObjAddr: 0x16384, symBinAddr: 0x100024C4C, symSize: 0x28 }
  - { offsetInCU: 0x242ED, offset: 0x46875, size: 0x8, addend: 0x0, symName: __ZNSt3__114__split_bufferIP6VertexINS_12basic_stringIcNS_11char_traitsIcEENS_9allocatorIcEEEE13BitacoraLineaERNS5_ISA_EEED2Ev, symObjAddr: 0x163AC, symBinAddr: 0x100024C74, symSize: 0x80 }
  - { offsetInCU: 0x24319, offset: 0x468A1, size: 0x8, addend: 0x0, symName: __ZNSt3__114__split_bufferIP6VertexINS_12basic_stringIcNS_11char_traitsIcEENS_9allocatorIcEEEE13BitacoraLineaERNS5_ISA_EEE5clearB7v160006Ev, symObjAddr: 0x1642C, symBinAddr: 0x100024CF4, symSize: 0x28 }
  - { offsetInCU: 0x2433F, offset: 0x468C7, size: 0x8, addend: 0x0, symName: __ZNKSt3__114__split_bufferIP6VertexINS_12basic_stringIcNS_11char_traitsIcEENS_9allocatorIcEEEE13BitacoraLineaERNS5_ISA_EEE8capacityB7v160006Ev, symObjAddr: 0x16454, symBinAddr: 0x100024D1C, symSize: 0x40 }
  - { offsetInCU: 0x24365, offset: 0x468ED, size: 0x8, addend: 0x0, symName: __ZNSt3__114__split_bufferIP6VertexINS_12basic_stringIcNS_11char_traitsIcEENS_9allocatorIcEEEE13BitacoraLineaERNS5_ISA_EEE17__destruct_at_endB7v160006EPSA_, symObjAddr: 0x16494, symBinAddr: 0x100024D5C, symSize: 0x2C }
  - { offsetInCU: 0x24399, offset: 0x46921, size: 0x8, addend: 0x0, symName: __ZNSt3__114__split_bufferIP6VertexINS_12basic_stringIcNS_11char_traitsIcEENS_9allocatorIcEEEE13BitacoraLineaERNS5_ISA_EEE17__destruct_at_endB7v160006EPSA_NS_17integral_constantIbLb0EEE, symObjAddr: 0x164C0, symBinAddr: 0x100024D88, symSize: 0x94 }
  - { offsetInCU: 0x243D9, offset: 0x46961, size: 0x8, addend: 0x0, symName: __ZNKSt3__114__split_bufferIP6VertexINS_12basic_stringIcNS_11char_traitsIcEENS_9allocatorIcEEEE13BitacoraLineaERNS5_ISA_EEE9__end_capB7v160006Ev, symObjAddr: 0x16554, symBinAddr: 0x100024E1C, symSize: 0x28 }
  - { offsetInCU: 0x243FF, offset: 0x46987, size: 0x8, addend: 0x0, symName: __ZNKSt3__117__compressed_pairIPP6VertexINS_12basic_stringIcNS_11char_traitsIcEENS_9allocatorIcEEEE13BitacoraLineaERNS5_ISA_EEE5firstB7v160006Ev, symObjAddr: 0x1657C, symBinAddr: 0x100024E44, symSize: 0x24 }
  - { offsetInCU: 0x24425, offset: 0x469AD, size: 0x8, addend: 0x0, symName: __ZN4EdgeINSt3__112basic_stringIcNS0_11char_traitsIcEENS0_9allocatorIcEEEE13BitacoraLineaEC1ERKS7_P6VertexIS6_S7_ERKS6_, symObjAddr: 0x165A0, symBinAddr: 0x100024E68, symSize: 0x44 }
  - { offsetInCU: 0x24479, offset: 0x46A01, size: 0x8, addend: 0x0, symName: __ZN6VertexINSt3__112basic_stringIcNS0_11char_traitsIcEENS0_9allocatorIcEEEE13BitacoraLineaE7addEdgeEP4EdgeIS6_S7_E, symObjAddr: 0x165E4, symBinAddr: 0x100024EAC, symSize: 0x40 }
  - { offsetInCU: 0x244AE, offset: 0x46A36, size: 0x8, addend: 0x0, symName: __ZN4EdgeINSt3__112basic_stringIcNS0_11char_traitsIcEENS0_9allocatorIcEEEE13BitacoraLineaEC2ERKS7_P6VertexIS6_S7_ERKS6_, symObjAddr: 0x16624, symBinAddr: 0x100024EEC, symSize: 0x84 }
  - { offsetInCU: 0x24502, offset: 0x46A8A, size: 0x8, addend: 0x0, symName: __ZNSt3__16vectorIP4EdgeINS_12basic_stringIcNS_11char_traitsIcEENS_9allocatorIcEEEE13BitacoraLineaENS5_ISA_EEE9push_backB7v160006ERKSA_, symObjAddr: 0x166A8, symBinAddr: 0x100024F70, symSize: 0x6C }
  - { offsetInCU: 0x24538, offset: 0x46AC0, size: 0x8, addend: 0x0, symName: __ZNK4EdgeINSt3__112basic_stringIcNS0_11char_traitsIcEENS0_9allocatorIcEEEE13BitacoraLineaE9getTargetEv, symObjAddr: 0x16714, symBinAddr: 0x100024FDC, symSize: 0x18 }
  - { offsetInCU: 0x2455F, offset: 0x46AE7, size: 0x8, addend: 0x0, symName: __ZN6VertexINSt3__112basic_stringIcNS0_11char_traitsIcEENS0_9allocatorIcEEEE13BitacoraLineaE20incIncidentesEntradaEv, symObjAddr: 0x1672C, symBinAddr: 0x100024FF4, symSize: 0x20 }
  - { offsetInCU: 0x24586, offset: 0x46B0E, size: 0x8, addend: 0x0, symName: __ZNSt3__16vectorIP4EdgeINS_12basic_stringIcNS_11char_traitsIcEENS_9allocatorIcEEEE13BitacoraLineaENS5_ISA_EEE9__end_capB7v160006Ev, symObjAddr: 0x1674C, symBinAddr: 0x100025014, symSize: 0x28 }
  - { offsetInCU: 0x245AC, offset: 0x46B34, size: 0x8, addend: 0x0, symName: __ZNSt3__16vectorIP4EdgeINS_12basic_stringIcNS_11char_traitsIcEENS_9allocatorIcEEEE13BitacoraLineaENS5_ISA_EEE22__construct_one_at_endB7v160006IJRKSA_EEEvDpOT_, symObjAddr: 0x16774, symBinAddr: 0x10002503C, symSize: 0x98 }
  - { offsetInCU: 0x245FB, offset: 0x46B83, size: 0x8, addend: 0x0, symName: __ZNSt3__16vectorIP4EdgeINS_12basic_stringIcNS_11char_traitsIcEENS_9allocatorIcEEEE13BitacoraLineaENS5_ISA_EEE21__push_back_slow_pathIRKSA_EEvOT_, symObjAddr: 0x1680C, symBinAddr: 0x1000250D4, symSize: 0xE0 }
  - { offsetInCU: 0x24658, offset: 0x46BE0, size: 0x8, addend: 0x0, symName: __ZNSt3__117__compressed_pairIPP4EdgeINS_12basic_stringIcNS_11char_traitsIcEENS_9allocatorIcEEEE13BitacoraLineaENS5_ISA_EEE5firstB7v160006Ev, symObjAddr: 0x168EC, symBinAddr: 0x1000251B4, symSize: 0x24 }
  - { offsetInCU: 0x2467E, offset: 0x46C06, size: 0x8, addend: 0x0, symName: __ZNSt3__122__compressed_pair_elemIPP4EdgeINS_12basic_stringIcNS_11char_traitsIcEENS_9allocatorIcEEEE13BitacoraLineaELi0ELb0EE5__getB7v160006Ev, symObjAddr: 0x16910, symBinAddr: 0x1000251D8, symSize: 0x14 }
  - { offsetInCU: 0x246BD, offset: 0x46C45, size: 0x8, addend: 0x0, symName: __ZNSt3__16vectorIP4EdgeINS_12basic_stringIcNS_11char_traitsIcEENS_9allocatorIcEEEE13BitacoraLineaENS5_ISA_EEE21_ConstructTransactionC1B7v160006ERSC_m, symObjAddr: 0x16924, symBinAddr: 0x1000251EC, symSize: 0x3C }
  - { offsetInCU: 0x24705, offset: 0x46C8D, size: 0x8, addend: 0x0, symName: __ZNSt3__116allocator_traitsINS_9allocatorIP4EdgeINS_12basic_stringIcNS_11char_traitsIcEENS1_IcEEEE13BitacoraLineaEEEE9constructB7v160006ISA_JRKSA_EvEEvRSB_PT_DpOT0_, symObjAddr: 0x16960, symBinAddr: 0x100025228, symSize: 0x34 }
  - { offsetInCU: 0x2475C, offset: 0x46CE4, size: 0x8, addend: 0x0, symName: __ZNSt3__16vectorIP4EdgeINS_12basic_stringIcNS_11char_traitsIcEENS_9allocatorIcEEEE13BitacoraLineaENS5_ISA_EEE21_ConstructTransactionD1B7v160006Ev, symObjAddr: 0x16994, symBinAddr: 0x10002525C, symSize: 0x2C }
  - { offsetInCU: 0x24786, offset: 0x46D0E, size: 0x8, addend: 0x0, symName: __ZNSt3__16vectorIP4EdgeINS_12basic_stringIcNS_11char_traitsIcEENS_9allocatorIcEEEE13BitacoraLineaENS5_ISA_EEE21_ConstructTransactionC2B7v160006ERSC_m, symObjAddr: 0x169C0, symBinAddr: 0x100025288, symSize: 0x44 }
  - { offsetInCU: 0x247CE, offset: 0x46D56, size: 0x8, addend: 0x0, symName: __ZNSt3__19allocatorIP4EdgeINS_12basic_stringIcNS_11char_traitsIcEENS0_IcEEEE13BitacoraLineaEE9constructB7v160006IS9_JRKS9_EEEvPT_DpOT0_, symObjAddr: 0x16A04, symBinAddr: 0x1000252CC, symSize: 0x28 }
  - { offsetInCU: 0x24824, offset: 0x46DAC, size: 0x8, addend: 0x0, symName: __ZNSt3__16vectorIP4EdgeINS_12basic_stringIcNS_11char_traitsIcEENS_9allocatorIcEEEE13BitacoraLineaENS5_ISA_EEE21_ConstructTransactionD2B7v160006Ev, symObjAddr: 0x16A2C, symBinAddr: 0x1000252F4, symSize: 0x20 }
  - { offsetInCU: 0x2484E, offset: 0x46DD6, size: 0x8, addend: 0x0, symName: __ZNKSt3__16vectorIP4EdgeINS_12basic_stringIcNS_11char_traitsIcEENS_9allocatorIcEEEE13BitacoraLineaENS5_ISA_EEE11__recommendB7v160006Em, symObjAddr: 0x16A4C, symBinAddr: 0x100025314, symSize: 0xB4 }
  - { offsetInCU: 0x248A2, offset: 0x46E2A, size: 0x8, addend: 0x0, symName: __ZNSt3__114__split_bufferIP4EdgeINS_12basic_stringIcNS_11char_traitsIcEENS_9allocatorIcEEEE13BitacoraLineaERNS5_ISA_EEEC1EmmSC_, symObjAddr: 0x16B00, symBinAddr: 0x1000253C8, symSize: 0x44 }
  - { offsetInCU: 0x248F8, offset: 0x46E80, size: 0x8, addend: 0x0, symName: __ZNSt3__114__split_bufferIP4EdgeINS_12basic_stringIcNS_11char_traitsIcEENS_9allocatorIcEEEE13BitacoraLineaERNS5_ISA_EEED1Ev, symObjAddr: 0x16C5C, symBinAddr: 0x100025524, symSize: 0x2C }
  - { offsetInCU: 0x24924, offset: 0x46EAC, size: 0x8, addend: 0x0, symName: __ZNKSt3__16vectorIP4EdgeINS_12basic_stringIcNS_11char_traitsIcEENS_9allocatorIcEEEE13BitacoraLineaENS5_ISA_EEE8max_sizeEv, symObjAddr: 0x16C88, symBinAddr: 0x100025550, symSize: 0x74 }
  - { offsetInCU: 0x2494B, offset: 0x46ED3, size: 0x8, addend: 0x0, symName: __ZNKSt3__16vectorIP4EdgeINS_12basic_stringIcNS_11char_traitsIcEENS_9allocatorIcEEEE13BitacoraLineaENS5_ISA_EEE20__throw_length_errorB7v160006Ev, symObjAddr: 0x16CFC, symBinAddr: 0x1000255C4, symSize: 0x1C }
  - { offsetInCU: 0x2497B, offset: 0x46F03, size: 0x8, addend: 0x0, symName: __ZNSt3__116allocator_traitsINS_9allocatorIP4EdgeINS_12basic_stringIcNS_11char_traitsIcEENS1_IcEEEE13BitacoraLineaEEEE8max_sizeB7v160006ISB_vEEmRKSB_, symObjAddr: 0x16D18, symBinAddr: 0x1000255E0, symSize: 0x24 }
  - { offsetInCU: 0x249A9, offset: 0x46F31, size: 0x8, addend: 0x0, symName: __ZNKSt3__16vectorIP4EdgeINS_12basic_stringIcNS_11char_traitsIcEENS_9allocatorIcEEEE13BitacoraLineaENS5_ISA_EEE7__allocB7v160006Ev, symObjAddr: 0x16D3C, symBinAddr: 0x100025604, symSize: 0x28 }
  - { offsetInCU: 0x249CF, offset: 0x46F57, size: 0x8, addend: 0x0, symName: __ZNKSt3__19allocatorIP4EdgeINS_12basic_stringIcNS_11char_traitsIcEENS0_IcEEEE13BitacoraLineaEE8max_sizeB7v160006Ev, symObjAddr: 0x16D64, symBinAddr: 0x10002562C, symSize: 0x14 }
  - { offsetInCU: 0x249F5, offset: 0x46F7D, size: 0x8, addend: 0x0, symName: __ZNKSt3__117__compressed_pairIPP4EdgeINS_12basic_stringIcNS_11char_traitsIcEENS_9allocatorIcEEEE13BitacoraLineaENS5_ISA_EEE6secondB7v160006Ev, symObjAddr: 0x16D78, symBinAddr: 0x100025640, symSize: 0x24 }
  - { offsetInCU: 0x24A1B, offset: 0x46FA3, size: 0x8, addend: 0x0, symName: __ZNKSt3__122__compressed_pair_elemINS_9allocatorIP4EdgeINS_12basic_stringIcNS_11char_traitsIcEENS1_IcEEEE13BitacoraLineaEEELi1ELb1EE5__getB7v160006Ev, symObjAddr: 0x16D9C, symBinAddr: 0x100025664, symSize: 0x14 }
  - { offsetInCU: 0x24A41, offset: 0x46FC9, size: 0x8, addend: 0x0, symName: __ZNSt3__114__split_bufferIP4EdgeINS_12basic_stringIcNS_11char_traitsIcEENS_9allocatorIcEEEE13BitacoraLineaERNS5_ISA_EEEC2EmmSC_, symObjAddr: 0x16DB0, symBinAddr: 0x100025678, symSize: 0xD4 }
  - { offsetInCU: 0x24AB5, offset: 0x4703D, size: 0x8, addend: 0x0, symName: __ZNSt3__117__compressed_pairIPP4EdgeINS_12basic_stringIcNS_11char_traitsIcEENS_9allocatorIcEEEE13BitacoraLineaERNS5_ISA_EEEC1B7v160006IDnSD_EEOT_OT0_, symObjAddr: 0x16E84, symBinAddr: 0x10002574C, symSize: 0x3C }
  - { offsetInCU: 0x24B0D, offset: 0x47095, size: 0x8, addend: 0x0, symName: __ZNSt3__114__split_bufferIP4EdgeINS_12basic_stringIcNS_11char_traitsIcEENS_9allocatorIcEEEE13BitacoraLineaERNS5_ISA_EEE7__allocB7v160006Ev, symObjAddr: 0x16F00, symBinAddr: 0x1000257C8, symSize: 0x28 }
  - { offsetInCU: 0x24B33, offset: 0x470BB, size: 0x8, addend: 0x0, symName: __ZNSt3__114__split_bufferIP4EdgeINS_12basic_stringIcNS_11char_traitsIcEENS_9allocatorIcEEEE13BitacoraLineaERNS5_ISA_EEE9__end_capB7v160006Ev, symObjAddr: 0x16F28, symBinAddr: 0x1000257F0, symSize: 0x28 }
  - { offsetInCU: 0x24B59, offset: 0x470E1, size: 0x8, addend: 0x0, symName: __ZNSt3__117__compressed_pairIPP4EdgeINS_12basic_stringIcNS_11char_traitsIcEENS_9allocatorIcEEEE13BitacoraLineaERNS5_ISA_EEEC2B7v160006IDnSD_EEOT_OT0_, symObjAddr: 0x16F50, symBinAddr: 0x100025818, symSize: 0x48 }
  - { offsetInCU: 0x24BB1, offset: 0x47139, size: 0x8, addend: 0x0, symName: __ZNSt3__122__compressed_pair_elemIRNS_9allocatorIP4EdgeINS_12basic_stringIcNS_11char_traitsIcEENS1_IcEEEE13BitacoraLineaEEELi1ELb0EEC2B7v160006ISC_vEEOT_, symObjAddr: 0x16F98, symBinAddr: 0x100025860, symSize: 0x20 }
  - { offsetInCU: 0x24BF3, offset: 0x4717B, size: 0x8, addend: 0x0, symName: __ZNSt3__19allocatorIP4EdgeINS_12basic_stringIcNS_11char_traitsIcEENS0_IcEEEE13BitacoraLineaEE8allocateB7v160006Em, symObjAddr: 0x16FB8, symBinAddr: 0x100025880, symSize: 0x84 }
  - { offsetInCU: 0x24C27, offset: 0x471AF, size: 0x8, addend: 0x0, symName: __ZNSt3__117__compressed_pairIPP4EdgeINS_12basic_stringIcNS_11char_traitsIcEENS_9allocatorIcEEEE13BitacoraLineaERNS5_ISA_EEE6secondB7v160006Ev, symObjAddr: 0x1703C, symBinAddr: 0x100025904, symSize: 0x28 }
  - { offsetInCU: 0x24C4D, offset: 0x471D5, size: 0x8, addend: 0x0, symName: __ZNSt3__122__compressed_pair_elemIRNS_9allocatorIP4EdgeINS_12basic_stringIcNS_11char_traitsIcEENS1_IcEEEE13BitacoraLineaEEELi1ELb0EE5__getB7v160006Ev, symObjAddr: 0x17064, symBinAddr: 0x10002592C, symSize: 0x18 }
  - { offsetInCU: 0x24C73, offset: 0x471FB, size: 0x8, addend: 0x0, symName: __ZNSt3__117__compressed_pairIPP4EdgeINS_12basic_stringIcNS_11char_traitsIcEENS_9allocatorIcEEEE13BitacoraLineaERNS5_ISA_EEE5firstB7v160006Ev, symObjAddr: 0x1707C, symBinAddr: 0x100025944, symSize: 0x24 }
  - { offsetInCU: 0x24C99, offset: 0x47221, size: 0x8, addend: 0x0, symName: __ZNSt3__116reverse_iteratorIPP4EdgeINS_12basic_stringIcNS_11char_traitsIcEENS_9allocatorIcEEEE13BitacoraLineaEEC1B7v160006ESB_, symObjAddr: 0x17188, symBinAddr: 0x100025A50, symSize: 0x34 }
  - { offsetInCU: 0x24CD1, offset: 0x47259, size: 0x8, addend: 0x0, symName: __ZNKSt3__116reverse_iteratorIPP4EdgeINS_12basic_stringIcNS_11char_traitsIcEENS_9allocatorIcEEEE13BitacoraLineaEE4baseB7v160006Ev, symObjAddr: 0x171BC, symBinAddr: 0x100025A84, symSize: 0x18 }
  - { offsetInCU: 0x24CF7, offset: 0x4727F, size: 0x8, addend: 0x0, symName: __ZNKSt3__16vectorIP4EdgeINS_12basic_stringIcNS_11char_traitsIcEENS_9allocatorIcEEEE13BitacoraLineaENS5_ISA_EEE14__annotate_newB7v160006Em, symObjAddr: 0x17210, symBinAddr: 0x100025AD8, symSize: 0xAC }
  - { offsetInCU: 0x24D2C, offset: 0x472B4, size: 0x8, addend: 0x0, symName: __ZNKSt3__116reverse_iteratorIPP4EdgeINS_12basic_stringIcNS_11char_traitsIcEENS_9allocatorIcEEEE13BitacoraLineaEEdeB7v160006Ev, symObjAddr: 0x17354, symBinAddr: 0x100025C1C, symSize: 0x28 }
  - { offsetInCU: 0x24D60, offset: 0x472E8, size: 0x8, addend: 0x0, symName: __ZNSt3__116reverse_iteratorIPP4EdgeINS_12basic_stringIcNS_11char_traitsIcEENS_9allocatorIcEEEE13BitacoraLineaEEppB7v160006Ev, symObjAddr: 0x1737C, symBinAddr: 0x100025C44, symSize: 0x20 }
  - { offsetInCU: 0x24D8B, offset: 0x47313, size: 0x8, addend: 0x0, symName: __ZNSt3__119__to_address_helperINS_16reverse_iteratorIPP4EdgeINS_12basic_stringIcNS_11char_traitsIcEENS_9allocatorIcEEEE13BitacoraLineaEEEvE6__callB7v160006ERKSD_, symObjAddr: 0x17414, symBinAddr: 0x100025CDC, symSize: 0x4C }
  - { offsetInCU: 0x24DAE, offset: 0x47336, size: 0x8, addend: 0x0, symName: __ZNKSt3__116reverse_iteratorIPP4EdgeINS_12basic_stringIcNS_11char_traitsIcEENS_9allocatorIcEEEE13BitacoraLineaEEptB7v160006Ev, symObjAddr: 0x17460, symBinAddr: 0x100025D28, symSize: 0x24 }
  - { offsetInCU: 0x24DED, offset: 0x47375, size: 0x8, addend: 0x0, symName: __ZNKSt3__111__move_loopINS_17_ClassicAlgPolicyEEclB7v160006INS_16reverse_iteratorIPP4EdgeINS_12basic_stringIcNS_11char_traitsIcEENS_9allocatorIcEEEE13BitacoraLineaEEESG_SG_EENS_4pairIT_T1_EESI_T0_SJ_, symObjAddr: 0x17714, symBinAddr: 0x100025FDC, symSize: 0xA0 }
  - { offsetInCU: 0x24E5D, offset: 0x473E5, size: 0x8, addend: 0x0, symName: __ZNSt3__18_IterOpsINS_17_ClassicAlgPolicyEE11__iter_moveB7v160006IRNS_16reverse_iteratorIPP4EdgeINS_12basic_stringIcNS_11char_traitsIcEENS_9allocatorIcEEEE13BitacoraLineaEEEEENS_9enable_ifIXsr12is_referenceIDTdeclsr3stdE7declvalIRT_EEEEE5valueEDTclsr3stdE4movedeclsr3stdE7declvalISK_EEEEE4typeEOSJ_, symObjAddr: 0x17914, symBinAddr: 0x1000261DC, symSize: 0x28 }
  - { offsetInCU: 0x24E89, offset: 0x47411, size: 0x8, addend: 0x0, symName: __ZNSt3__18_IterOpsINS_17_ClassicAlgPolicyEE25__validate_iter_referenceB7v160006IRNS_16reverse_iteratorIPP4EdgeINS_12basic_stringIcNS_11char_traitsIcEENS_9allocatorIcEEEE13BitacoraLineaEEEEEvv, symObjAddr: 0x1793C, symBinAddr: 0x100026204, symSize: 0x4 }
  - { offsetInCU: 0x24EA7, offset: 0x4742F, size: 0x8, addend: 0x0, symName: __ZNSt3__118__unwrap_iter_implINS_16reverse_iteratorIPP4EdgeINS_12basic_stringIcNS_11char_traitsIcEENS_9allocatorIcEEEE13BitacoraLineaEEELb0EE8__unwrapB7v160006ESD_, symObjAddr: 0x17940, symBinAddr: 0x100026208, symSize: 0x24 }
  - { offsetInCU: 0x24ECA, offset: 0x47452, size: 0x8, addend: 0x0, symName: __ZNSt3__14pairINS_16reverse_iteratorIPP4EdgeINS_12basic_stringIcNS_11char_traitsIcEENS_9allocatorIcEEEE13BitacoraLineaEEESD_EC1B7v160006ERKSD_SG_, symObjAddr: 0x17964, symBinAddr: 0x10002622C, symSize: 0x3C }
  - { offsetInCU: 0x24F10, offset: 0x47498, size: 0x8, addend: 0x0, symName: __ZNSt3__14pairINS_16reverse_iteratorIPP4EdgeINS_12basic_stringIcNS_11char_traitsIcEENS_9allocatorIcEEEE13BitacoraLineaEEESD_EC2B7v160006ERKSD_SG_, symObjAddr: 0x179A0, symBinAddr: 0x100026268, symSize: 0x34 }
  - { offsetInCU: 0x24F56, offset: 0x474DE, size: 0x8, addend: 0x0, symName: __ZNSt3__118__unwrap_iter_implINS_16reverse_iteratorIPP4EdgeINS_12basic_stringIcNS_11char_traitsIcEENS_9allocatorIcEEEE13BitacoraLineaEEELb0EE8__rewrapB7v160006ESD_SD_, symObjAddr: 0x179D4, symBinAddr: 0x10002629C, symSize: 0x2C }
  - { offsetInCU: 0x24F84, offset: 0x4750C, size: 0x8, addend: 0x0, symName: __ZNSt3__116reverse_iteratorIPP4EdgeINS_12basic_stringIcNS_11char_traitsIcEENS_9allocatorIcEEEE13BitacoraLineaEEC2B7v160006ESB_, symObjAddr: 0x17A00, symBinAddr: 0x1000262C8, symSize: 0x28 }
  - { offsetInCU: 0x24FBC, offset: 0x47544, size: 0x8, addend: 0x0, symName: __ZNSt3__114__split_bufferIP4EdgeINS_12basic_stringIcNS_11char_traitsIcEENS_9allocatorIcEEEE13BitacoraLineaERNS5_ISA_EEED2Ev, symObjAddr: 0x17A28, symBinAddr: 0x1000262F0, symSize: 0x80 }
  - { offsetInCU: 0x24FE8, offset: 0x47570, size: 0x8, addend: 0x0, symName: __ZNSt3__114__split_bufferIP4EdgeINS_12basic_stringIcNS_11char_traitsIcEENS_9allocatorIcEEEE13BitacoraLineaERNS5_ISA_EEE5clearB7v160006Ev, symObjAddr: 0x17AA8, symBinAddr: 0x100026370, symSize: 0x28 }
  - { offsetInCU: 0x2500E, offset: 0x47596, size: 0x8, addend: 0x0, symName: __ZNKSt3__114__split_bufferIP4EdgeINS_12basic_stringIcNS_11char_traitsIcEENS_9allocatorIcEEEE13BitacoraLineaERNS5_ISA_EEE8capacityB7v160006Ev, symObjAddr: 0x17AD0, symBinAddr: 0x100026398, symSize: 0x40 }
  - { offsetInCU: 0x25034, offset: 0x475BC, size: 0x8, addend: 0x0, symName: __ZNSt3__114__split_bufferIP4EdgeINS_12basic_stringIcNS_11char_traitsIcEENS_9allocatorIcEEEE13BitacoraLineaERNS5_ISA_EEE17__destruct_at_endB7v160006EPSA_, symObjAddr: 0x17B10, symBinAddr: 0x1000263D8, symSize: 0x2C }
  - { offsetInCU: 0x25068, offset: 0x475F0, size: 0x8, addend: 0x0, symName: __ZNSt3__114__split_bufferIP4EdgeINS_12basic_stringIcNS_11char_traitsIcEENS_9allocatorIcEEEE13BitacoraLineaERNS5_ISA_EEE17__destruct_at_endB7v160006EPSA_NS_17integral_constantIbLb0EEE, symObjAddr: 0x17B3C, symBinAddr: 0x100026404, symSize: 0x94 }
  - { offsetInCU: 0x250A8, offset: 0x47630, size: 0x8, addend: 0x0, symName: __ZNKSt3__114__split_bufferIP4EdgeINS_12basic_stringIcNS_11char_traitsIcEENS_9allocatorIcEEEE13BitacoraLineaERNS5_ISA_EEE9__end_capB7v160006Ev, symObjAddr: 0x17BD0, symBinAddr: 0x100026498, symSize: 0x28 }
  - { offsetInCU: 0x250CE, offset: 0x47656, size: 0x8, addend: 0x0, symName: __ZNKSt3__117__compressed_pairIPP4EdgeINS_12basic_stringIcNS_11char_traitsIcEENS_9allocatorIcEEEE13BitacoraLineaERNS5_ISA_EEE5firstB7v160006Ev, symObjAddr: 0x17BF8, symBinAddr: 0x1000264C0, symSize: 0x24 }
  - { offsetInCU: 0x250F4, offset: 0x4767C, size: 0x8, addend: 0x0, symName: __ZNK5GraphINSt3__112basic_stringIcNS0_11char_traitsIcEENS0_9allocatorIcEEEE13BitacoraLineaE8getNodesEv, symObjAddr: 0x17C1C, symBinAddr: 0x1000264E4, symSize: 0x14 }
  - { offsetInCU: 0x2511B, offset: 0x476A3, size: 0x8, addend: 0x0, symName: __ZNKSt3__16vectorIP6VertexINS_12basic_stringIcNS_11char_traitsIcEENS_9allocatorIcEEEE13BitacoraLineaENS5_ISA_EEE5beginB7v160006Ev, symObjAddr: 0x17C30, symBinAddr: 0x1000264F8, symSize: 0x30 }
  - { offsetInCU: 0x25142, offset: 0x476CA, size: 0x8, addend: 0x0, symName: __ZNKSt3__16vectorIP6VertexINS_12basic_stringIcNS_11char_traitsIcEENS_9allocatorIcEEEE13BitacoraLineaENS5_ISA_EEE3endB7v160006Ev, symObjAddr: 0x17C60, symBinAddr: 0x100026528, symSize: 0x30 }
  - { offsetInCU: 0x25169, offset: 0x476F1, size: 0x8, addend: 0x0, symName: __ZNKSt3__111__wrap_iterIPKP6VertexINS_12basic_stringIcNS_11char_traitsIcEENS_9allocatorIcEEEE13BitacoraLineaEEdeB7v160006Ev, symObjAddr: 0x17CC4, symBinAddr: 0x10002658C, symSize: 0x18 }
  - { offsetInCU: 0x2518F, offset: 0x47717, size: 0x8, addend: 0x0, symName: __ZN6VertexINSt3__112basic_stringIcNS0_11char_traitsIcEENS0_9allocatorIcEEEE13BitacoraLineaE8getEdgesEv, symObjAddr: 0x17CDC, symBinAddr: 0x1000265A4, symSize: 0x18 }
  - { offsetInCU: 0x251B6, offset: 0x4773E, size: 0x8, addend: 0x0, symName: __ZNKSt3__16vectorIP4EdgeINS_12basic_stringIcNS_11char_traitsIcEENS_9allocatorIcEEEE13BitacoraLineaENS5_ISA_EEE5beginB7v160006Ev, symObjAddr: 0x17CF4, symBinAddr: 0x1000265BC, symSize: 0x30 }
  - { offsetInCU: 0x251DD, offset: 0x47765, size: 0x8, addend: 0x0, symName: __ZNKSt3__16vectorIP4EdgeINS_12basic_stringIcNS_11char_traitsIcEENS_9allocatorIcEEEE13BitacoraLineaENS5_ISA_EEE3endB7v160006Ev, symObjAddr: 0x17D24, symBinAddr: 0x1000265EC, symSize: 0x30 }
  - { offsetInCU: 0x25204, offset: 0x4778C, size: 0x8, addend: 0x0, symName: __ZNKSt3__111__wrap_iterIPKP4EdgeINS_12basic_stringIcNS_11char_traitsIcEENS_9allocatorIcEEEE13BitacoraLineaEEdeB7v160006Ev, symObjAddr: 0x17D88, symBinAddr: 0x100026650, symSize: 0x18 }
  - { offsetInCU: 0x2522A, offset: 0x477B2, size: 0x8, addend: 0x0, symName: __ZNK4EdgeINSt3__112basic_stringIcNS0_11char_traitsIcEENS0_9allocatorIcEEEE13BitacoraLineaE7getDateEv, symObjAddr: 0x17DA0, symBinAddr: 0x100026668, symSize: 0x18 }
  - { offsetInCU: 0x25250, offset: 0x477D8, size: 0x8, addend: 0x0, symName: __ZNSt3__111__wrap_iterIPKP4EdgeINS_12basic_stringIcNS_11char_traitsIcEENS_9allocatorIcEEEE13BitacoraLineaEEppB7v160006Ev, symObjAddr: 0x17DB8, symBinAddr: 0x100026680, symSize: 0x20 }
  - { offsetInCU: 0x25276, offset: 0x477FE, size: 0x8, addend: 0x0, symName: __ZNSt3__111__wrap_iterIPKP6VertexINS_12basic_stringIcNS_11char_traitsIcEENS_9allocatorIcEEEE13BitacoraLineaEEppB7v160006Ev, symObjAddr: 0x17DD8, symBinAddr: 0x1000266A0, symSize: 0x20 }
  - { offsetInCU: 0x2529C, offset: 0x47824, size: 0x8, addend: 0x0, symName: __ZNKSt3__16vectorIP6VertexINS_12basic_stringIcNS_11char_traitsIcEENS_9allocatorIcEEEE13BitacoraLineaENS5_ISA_EEE11__make_iterB7v160006EPKSA_, symObjAddr: 0x17DF8, symBinAddr: 0x1000266C0, symSize: 0x34 }
  - { offsetInCU: 0x252D1, offset: 0x47859, size: 0x8, addend: 0x0, symName: __ZNSt3__111__wrap_iterIPKP6VertexINS_12basic_stringIcNS_11char_traitsIcEENS_9allocatorIcEEEE13BitacoraLineaEEC1B7v160006EPKvSC_, symObjAddr: 0x17E2C, symBinAddr: 0x1000266F4, symSize: 0x3C }
  - { offsetInCU: 0x25317, offset: 0x4789F, size: 0x8, addend: 0x0, symName: __ZNSt3__111__wrap_iterIPKP6VertexINS_12basic_stringIcNS_11char_traitsIcEENS_9allocatorIcEEEE13BitacoraLineaEEC2B7v160006EPKvSC_, symObjAddr: 0x17E68, symBinAddr: 0x100026730, symSize: 0x24 }
  - { offsetInCU: 0x2535D, offset: 0x478E5, size: 0x8, addend: 0x0, symName: __ZNKSt3__111__wrap_iterIPKP6VertexINS_12basic_stringIcNS_11char_traitsIcEENS_9allocatorIcEEEE13BitacoraLineaEE4baseB7v160006Ev, symObjAddr: 0x17ED4, symBinAddr: 0x10002679C, symSize: 0x18 }
  - { offsetInCU: 0x25383, offset: 0x4790B, size: 0x8, addend: 0x0, symName: __ZNKSt3__16vectorIP4EdgeINS_12basic_stringIcNS_11char_traitsIcEENS_9allocatorIcEEEE13BitacoraLineaENS5_ISA_EEE11__make_iterB7v160006EPKSA_, symObjAddr: 0x17EEC, symBinAddr: 0x1000267B4, symSize: 0x34 }
  - { offsetInCU: 0x253B8, offset: 0x47940, size: 0x8, addend: 0x0, symName: __ZNSt3__111__wrap_iterIPKP4EdgeINS_12basic_stringIcNS_11char_traitsIcEENS_9allocatorIcEEEE13BitacoraLineaEEC1B7v160006EPKvSC_, symObjAddr: 0x17F20, symBinAddr: 0x1000267E8, symSize: 0x3C }
  - { offsetInCU: 0x253FE, offset: 0x47986, size: 0x8, addend: 0x0, symName: __ZNSt3__111__wrap_iterIPKP4EdgeINS_12basic_stringIcNS_11char_traitsIcEENS_9allocatorIcEEEE13BitacoraLineaEEC2B7v160006EPKvSC_, symObjAddr: 0x17F5C, symBinAddr: 0x100026824, symSize: 0x24 }
  - { offsetInCU: 0x25444, offset: 0x479CC, size: 0x8, addend: 0x0, symName: __ZNKSt3__111__wrap_iterIPKP4EdgeINS_12basic_stringIcNS_11char_traitsIcEENS_9allocatorIcEEEE13BitacoraLineaEE4baseB7v160006Ev, symObjAddr: 0x17FC8, symBinAddr: 0x100026890, symSize: 0x18 }
  - { offsetInCU: 0x2546A, offset: 0x479F2, size: 0x8, addend: 0x0, symName: __ZNSt3__16__treeINS_12__value_typeINS_12basic_stringIcNS_11char_traitsIcEENS_9allocatorIcEEEEiEENS_19__map_value_compareIS7_S8_NS_4lessIS7_EELb1EEENS5_IS8_EEE5beginB7v160006Ev, symObjAddr: 0x17FE0, symBinAddr: 0x1000268A8, symSize: 0x34 }
  - { offsetInCU: 0x25490, offset: 0x47A18, size: 0x8, addend: 0x0, symName: __ZNSt3__114__map_iteratorINS_15__tree_iteratorINS_12__value_typeINS_12basic_stringIcNS_11char_traitsIcEENS_9allocatorIcEEEEiEEPNS_11__tree_nodeIS9_PvEElEEEC1B7v160006ESE_, symObjAddr: 0x18014, symBinAddr: 0x1000268DC, symSize: 0x34 }
  - { offsetInCU: 0x254C9, offset: 0x47A51, size: 0x8, addend: 0x0, symName: __ZNSt3__115__tree_iteratorINS_12__value_typeINS_12basic_stringIcNS_11char_traitsIcEENS_9allocatorIcEEEEiEEPNS_11__tree_nodeIS8_PvEElEC1B7v160006EPNS_15__tree_end_nodeIPNS_16__tree_node_baseISA_EEEE, symObjAddr: 0x18048, symBinAddr: 0x100026910, symSize: 0x34 }
  - { offsetInCU: 0x25502, offset: 0x47A8A, size: 0x8, addend: 0x0, symName: __ZNSt3__115__tree_iteratorINS_12__value_typeINS_12basic_stringIcNS_11char_traitsIcEENS_9allocatorIcEEEEiEEPNS_11__tree_nodeIS8_PvEElEC2B7v160006EPNS_15__tree_end_nodeIPNS_16__tree_node_baseISA_EEEE, symObjAddr: 0x1807C, symBinAddr: 0x100026944, symSize: 0x20 }
  - { offsetInCU: 0x2553B, offset: 0x47AC3, size: 0x8, addend: 0x0, symName: __ZNSt3__114__map_iteratorINS_15__tree_iteratorINS_12__value_typeINS_12basic_stringIcNS_11char_traitsIcEENS_9allocatorIcEEEEiEEPNS_11__tree_nodeIS9_PvEElEEEC2B7v160006ESE_, symObjAddr: 0x1809C, symBinAddr: 0x100026964, symSize: 0x20 }
  - { offsetInCU: 0x25574, offset: 0x47AFC, size: 0x8, addend: 0x0, symName: __ZNSt3__16__treeINS_12__value_typeINS_12basic_stringIcNS_11char_traitsIcEENS_9allocatorIcEEEEiEENS_19__map_value_compareIS7_S8_NS_4lessIS7_EELb1EEENS5_IS8_EEE3endB7v160006Ev, symObjAddr: 0x180BC, symBinAddr: 0x100026984, symSize: 0x34 }
  - { offsetInCU: 0x2559A, offset: 0x47B22, size: 0x8, addend: 0x0, symName: __ZNSt3__115__tree_iteratorINS_12__value_typeINS_12basic_stringIcNS_11char_traitsIcEENS_9allocatorIcEEEEiEEPNS_11__tree_nodeIS8_PvEElEppB7v160006Ev, symObjAddr: 0x18154, symBinAddr: 0x100026A1C, symSize: 0x38 }
  - { offsetInCU: 0x255C0, offset: 0x47B48, size: 0x8, addend: 0x0, symName: __ZNKSt3__115__tree_iteratorINS_12__value_typeINS_12basic_stringIcNS_11char_traitsIcEENS_9allocatorIcEEEEiEEPNS_11__tree_nodeIS8_PvEElEptB7v160006Ev, symObjAddr: 0x1818C, symBinAddr: 0x100026A54, symSize: 0x2C }
  - { offsetInCU: 0x255E6, offset: 0x47B6E, size: 0x8, addend: 0x0, symName: __ZNSt3__114pointer_traitsIPNS_12__value_typeINS_12basic_stringIcNS_11char_traitsIcEENS_9allocatorIcEEEEiEEE10pointer_toB7v160006ERS8_, symObjAddr: 0x181B8, symBinAddr: 0x100026A80, symSize: 0x14 }
  - { offsetInCU: 0x25609, offset: 0x47B91, size: 0x8, addend: 0x0, symName: __ZNKSt3__115__tree_iteratorINS_12__value_typeINS_12basic_stringIcNS_11char_traitsIcEENS_9allocatorIcEEEEiEEPNS_11__tree_nodeIS8_PvEElE8__get_npB7v160006Ev, symObjAddr: 0x181CC, symBinAddr: 0x100026A94, symSize: 0x18 }
  - { offsetInCU: 0x2562F, offset: 0x47BB7, size: 0x8, addend: 0x0, symName: __ZN6VertexINSt3__112basic_stringIcNS0_11char_traitsIcEENS0_9allocatorIcEEEE13BitacoraLineaE20getIncidentesEntradaEv, symObjAddr: 0x181E4, symBinAddr: 0x100026AAC, symSize: 0x18 }
  - { offsetInCU: 0x25656, offset: 0x47BDE, size: 0x8, addend: 0x0, symName: __ZNSt3__13mapINS_12basic_stringIcNS_11char_traitsIcEENS_9allocatorIcEEEE13BitacoraLineaNS_4lessIS6_EENS4_INS_4pairIKS6_S7_EEEEEC1B7v160006Ev, symObjAddr: 0x181FC, symBinAddr: 0x100026AC4, symSize: 0x2C }
  - { offsetInCU: 0x25680, offset: 0x47C08, size: 0x8, addend: 0x0, symName: __ZN5GraphINSt3__112basic_stringIcNS0_11char_traitsIcEENS0_9allocatorIcEEEE13BitacoraLineaE29getIncidentesEntradaporVertexEv, symObjAddr: 0x18228, symBinAddr: 0x100026AF0, symSize: 0x110 }
  - { offsetInCU: 0x256E8, offset: 0x47C70, size: 0x8, addend: 0x0, symName: __ZNSt3__13mapINS_12basic_stringIcNS_11char_traitsIcEENS_9allocatorIcEEEE13BitacoraLineaNS_4lessIS6_EENS4_INS_4pairIKS6_S7_EEEEED1B7v160006Ev, symObjAddr: 0x18338, symBinAddr: 0x100026C00, symSize: 0x2C }
  - { offsetInCU: 0x25712, offset: 0x47C9A, size: 0x8, addend: 0x0, symName: __ZNSt3__13mapINS_12basic_stringIcNS_11char_traitsIcEENS_9allocatorIcEEEE13BitacoraLineaNS_4lessIS6_EENS4_INS_4pairIKS6_S7_EEEEEC2B7v160006Ev, symObjAddr: 0x18364, symBinAddr: 0x100026C2C, symSize: 0x40 }
  - { offsetInCU: 0x2573C, offset: 0x47CC4, size: 0x8, addend: 0x0, symName: __ZNSt3__119__map_value_compareINS_12basic_stringIcNS_11char_traitsIcEENS_9allocatorIcEEEENS_12__value_typeIS6_13BitacoraLineaEENS_4lessIS6_EELb1EEC1B7v160006ESB_, symObjAddr: 0x183A4, symBinAddr: 0x100026C6C, symSize: 0x2C }
  - { offsetInCU: 0x25775, offset: 0x47CFD, size: 0x8, addend: 0x0, symName: __ZNSt3__16__treeINS_12__value_typeINS_12basic_stringIcNS_11char_traitsIcEENS_9allocatorIcEEEE13BitacoraLineaEENS_19__map_value_compareIS7_S9_NS_4lessIS7_EELb1EEENS5_IS9_EEEC1ERKSD_, symObjAddr: 0x183D0, symBinAddr: 0x100026C98, symSize: 0x34 }
  - { offsetInCU: 0x257B0, offset: 0x47D38, size: 0x8, addend: 0x0, symName: __ZNSt3__119__map_value_compareINS_12basic_stringIcNS_11char_traitsIcEENS_9allocatorIcEEEENS_12__value_typeIS6_13BitacoraLineaEENS_4lessIS6_EELb1EEC2B7v160006ESB_, symObjAddr: 0x18404, symBinAddr: 0x100026CCC, symSize: 0x14 }
  - { offsetInCU: 0x257E9, offset: 0x47D71, size: 0x8, addend: 0x0, symName: __ZNSt3__16__treeINS_12__value_typeINS_12basic_stringIcNS_11char_traitsIcEENS_9allocatorIcEEEE13BitacoraLineaEENS_19__map_value_compareIS7_S9_NS_4lessIS7_EELb1EEENS5_IS9_EEEC2ERKSD_, symObjAddr: 0x18418, symBinAddr: 0x100026CE0, symSize: 0x70 }
  - { offsetInCU: 0x25824, offset: 0x47DAC, size: 0x8, addend: 0x0, symName: __ZNSt3__117__compressed_pairINS_15__tree_end_nodeIPNS_16__tree_node_baseIPvEEEENS_9allocatorINS_11__tree_nodeINS_12__value_typeINS_12basic_stringIcNS_11char_traitsIcEENS7_IcEEEE13BitacoraLineaEES3_EEEEEC1B7v160006ILb1EvEEv, symObjAddr: 0x18488, symBinAddr: 0x100026D50, symSize: 0x2C }
  - { offsetInCU: 0x25859, offset: 0x47DE1, size: 0x8, addend: 0x0, symName: __ZNSt3__117__compressed_pairImNS_19__map_value_compareINS_12basic_stringIcNS_11char_traitsIcEENS_9allocatorIcEEEENS_12__value_typeIS7_13BitacoraLineaEENS_4lessIS7_EELb1EEEEC1B7v160006IiRKSD_EEOT_OT0_, symObjAddr: 0x184B4, symBinAddr: 0x100026D7C, symSize: 0x3C }
  - { offsetInCU: 0x258B1, offset: 0x47E39, size: 0x8, addend: 0x0, symName: __ZNSt3__16__treeINS_12__value_typeINS_12basic_stringIcNS_11char_traitsIcEENS_9allocatorIcEEEE13BitacoraLineaEENS_19__map_value_compareIS7_S9_NS_4lessIS7_EELb1EEENS5_IS9_EEE10__end_nodeB7v160006Ev, symObjAddr: 0x184F0, symBinAddr: 0x100026DB8, symSize: 0x2C }
  - { offsetInCU: 0x258D7, offset: 0x47E5F, size: 0x8, addend: 0x0, symName: __ZNSt3__16__treeINS_12__value_typeINS_12basic_stringIcNS_11char_traitsIcEENS_9allocatorIcEEEE13BitacoraLineaEENS_19__map_value_compareIS7_S9_NS_4lessIS7_EELb1EEENS5_IS9_EEE12__begin_nodeB7v160006Ev, symObjAddr: 0x1851C, symBinAddr: 0x100026DE4, symSize: 0x14 }
  - { offsetInCU: 0x258FD, offset: 0x47E85, size: 0x8, addend: 0x0, symName: __ZNSt3__117__compressed_pairINS_15__tree_end_nodeIPNS_16__tree_node_baseIPvEEEENS_9allocatorINS_11__tree_nodeINS_12__value_typeINS_12basic_stringIcNS_11char_traitsIcEENS7_IcEEEE13BitacoraLineaEES3_EEEEEC2B7v160006ILb1EvEEv, symObjAddr: 0x18530, symBinAddr: 0x100026DF8, symSize: 0x34 }
  - { offsetInCU: 0x25932, offset: 0x47EBA, size: 0x8, addend: 0x0, symName: __ZNSt3__122__compressed_pair_elemINS_9allocatorINS_11__tree_nodeINS_12__value_typeINS_12basic_stringIcNS_11char_traitsIcEENS1_IcEEEE13BitacoraLineaEEPvEEEELi1ELb1EEC2B7v160006ENS_16__value_init_tagE, symObjAddr: 0x18564, symBinAddr: 0x100026E2C, symSize: 0x2C }
  - { offsetInCU: 0x25967, offset: 0x47EEF, size: 0x8, addend: 0x0, symName: __ZNSt3__19allocatorINS_11__tree_nodeINS_12__value_typeINS_12basic_stringIcNS_11char_traitsIcEENS0_IcEEEE13BitacoraLineaEEPvEEEC2B7v160006Ev, symObjAddr: 0x18590, symBinAddr: 0x100026E58, symSize: 0x2C }
  - { offsetInCU: 0x25991, offset: 0x47F19, size: 0x8, addend: 0x0, symName: __ZNSt3__116__non_trivial_ifILb1ENS_9allocatorINS_11__tree_nodeINS_12__value_typeINS_12basic_stringIcNS_11char_traitsIcEENS1_IcEEEE13BitacoraLineaEEPvEEEEEC2B7v160006Ev, symObjAddr: 0x185BC, symBinAddr: 0x100026E84, symSize: 0x14 }
  - { offsetInCU: 0x259BB, offset: 0x47F43, size: 0x8, addend: 0x0, symName: __ZNSt3__117__compressed_pairImNS_19__map_value_compareINS_12basic_stringIcNS_11char_traitsIcEENS_9allocatorIcEEEENS_12__value_typeIS7_13BitacoraLineaEENS_4lessIS7_EELb1EEEEC2B7v160006IiRKSD_EEOT_OT0_, symObjAddr: 0x185D0, symBinAddr: 0x100026E98, symSize: 0x44 }
  - { offsetInCU: 0x25A13, offset: 0x47F9B, size: 0x8, addend: 0x0, symName: __ZNSt3__122__compressed_pair_elemINS_19__map_value_compareINS_12basic_stringIcNS_11char_traitsIcEENS_9allocatorIcEEEENS_12__value_typeIS7_13BitacoraLineaEENS_4lessIS7_EELb1EEELi1ELb1EEC2B7v160006IRKSD_vEEOT_, symObjAddr: 0x18614, symBinAddr: 0x100026EDC, symSize: 0x18 }
  - { offsetInCU: 0x25A55, offset: 0x47FDD, size: 0x8, addend: 0x0, symName: __ZNSt3__117__compressed_pairINS_15__tree_end_nodeIPNS_16__tree_node_baseIPvEEEENS_9allocatorINS_11__tree_nodeINS_12__value_typeINS_12basic_stringIcNS_11char_traitsIcEENS7_IcEEEE13BitacoraLineaEES3_EEEEE5firstB7v160006Ev, symObjAddr: 0x1862C, symBinAddr: 0x100026EF4, symSize: 0x24 }
  - { offsetInCU: 0x25A7B, offset: 0x48003, size: 0x8, addend: 0x0, symName: __ZNSt3__13mapINS_12basic_stringIcNS_11char_traitsIcEENS_9allocatorIcEEEE13BitacoraLineaNS_4lessIS6_EENS4_INS_4pairIKS6_S7_EEEEED2B7v160006Ev, symObjAddr: 0x18650, symBinAddr: 0x100026F18, symSize: 0x2C }
  - { offsetInCU: 0x25AA5, offset: 0x4802D, size: 0x8, addend: 0x0, symName: __ZNSt3__16__treeINS_12__value_typeINS_12basic_stringIcNS_11char_traitsIcEENS_9allocatorIcEEEE13BitacoraLineaEENS_19__map_value_compareIS7_S9_NS_4lessIS7_EELb1EEENS5_IS9_EEED1Ev, symObjAddr: 0x1867C, symBinAddr: 0x100026F44, symSize: 0x2C }
  - { offsetInCU: 0x25AD1, offset: 0x48059, size: 0x8, addend: 0x0, symName: __ZNSt3__16__treeINS_12__value_typeINS_12basic_stringIcNS_11char_traitsIcEENS_9allocatorIcEEEE13BitacoraLineaEENS_19__map_value_compareIS7_S9_NS_4lessIS7_EELb1EEENS5_IS9_EEED2Ev, symObjAddr: 0x186A8, symBinAddr: 0x100026F70, symSize: 0x38 }
  - { offsetInCU: 0x25AFD, offset: 0x48085, size: 0x8, addend: 0x0, symName: __ZNSt3__16__treeINS_12__value_typeINS_12basic_stringIcNS_11char_traitsIcEENS_9allocatorIcEEEE13BitacoraLineaEENS_19__map_value_compareIS7_S9_NS_4lessIS7_EELb1EEENS5_IS9_EEE7destroyEPNS_11__tree_nodeIS9_PvEE, symObjAddr: 0x186E0, symBinAddr: 0x100026FA8, symSize: 0xC0 }
  - { offsetInCU: 0x25B51, offset: 0x480D9, size: 0x8, addend: 0x0, symName: __ZNKSt3__16__treeINS_12__value_typeINS_12basic_stringIcNS_11char_traitsIcEENS_9allocatorIcEEEE13BitacoraLineaEENS_19__map_value_compareIS7_S9_NS_4lessIS7_EELb1EEENS5_IS9_EEE6__rootB7v160006Ev, symObjAddr: 0x187A0, symBinAddr: 0x100027068, symSize: 0x28 }
  - { offsetInCU: 0x25B77, offset: 0x480FF, size: 0x8, addend: 0x0, symName: __ZNSt3__16__treeINS_12__value_typeINS_12basic_stringIcNS_11char_traitsIcEENS_9allocatorIcEEEE13BitacoraLineaEENS_19__map_value_compareIS7_S9_NS_4lessIS7_EELb1EEENS5_IS9_EEE12__node_allocB7v160006Ev, symObjAddr: 0x187C8, symBinAddr: 0x100027090, symSize: 0x28 }
  - { offsetInCU: 0x25BA2, offset: 0x4812A, size: 0x8, addend: 0x0, symName: __ZNSt3__116allocator_traitsINS_9allocatorINS_11__tree_nodeINS_12__value_typeINS_12basic_stringIcNS_11char_traitsIcEENS1_IcEEEE13BitacoraLineaEEPvEEEEE7destroyB7v160006INS_4pairIKS8_S9_EEvvEEvRSD_PT_, symObjAddr: 0x187F0, symBinAddr: 0x1000270B8, symSize: 0x28 }
  - { offsetInCU: 0x25BDD, offset: 0x48165, size: 0x8, addend: 0x0, symName: __ZNSt3__122__tree_key_value_typesINS_12__value_typeINS_12basic_stringIcNS_11char_traitsIcEENS_9allocatorIcEEEE13BitacoraLineaEEE9__get_ptrB7v160006ERS9_, symObjAddr: 0x18818, symBinAddr: 0x1000270E0, symSize: 0x24 }
  - { offsetInCU: 0x25C01, offset: 0x48189, size: 0x8, addend: 0x0, symName: __ZNSt3__116allocator_traitsINS_9allocatorINS_11__tree_nodeINS_12__value_typeINS_12basic_stringIcNS_11char_traitsIcEENS1_IcEEEE13BitacoraLineaEEPvEEEEE10deallocateB7v160006ERSD_PSC_m, symObjAddr: 0x1883C, symBinAddr: 0x100027104, symSize: 0x34 }
  - { offsetInCU: 0x25C43, offset: 0x481CB, size: 0x8, addend: 0x0, symName: __ZNSt3__117__compressed_pairINS_15__tree_end_nodeIPNS_16__tree_node_baseIPvEEEENS_9allocatorINS_11__tree_nodeINS_12__value_typeINS_12basic_stringIcNS_11char_traitsIcEENS7_IcEEEE13BitacoraLineaEES3_EEEEE6secondB7v160006Ev, symObjAddr: 0x18870, symBinAddr: 0x100027138, symSize: 0x24 }
  - { offsetInCU: 0x25C69, offset: 0x481F1, size: 0x8, addend: 0x0, symName: __ZNSt3__122__compressed_pair_elemINS_9allocatorINS_11__tree_nodeINS_12__value_typeINS_12basic_stringIcNS_11char_traitsIcEENS1_IcEEEE13BitacoraLineaEEPvEEEELi1ELb1EE5__getB7v160006Ev, symObjAddr: 0x18894, symBinAddr: 0x10002715C, symSize: 0x14 }
  - { offsetInCU: 0x25C8F, offset: 0x48217, size: 0x8, addend: 0x0, symName: __ZNSt3__14pairIKNS_12basic_stringIcNS_11char_traitsIcEENS_9allocatorIcEEEE13BitacoraLineaED1Ev, symObjAddr: 0x188A8, symBinAddr: 0x100027170, symSize: 0x2C }
  - { offsetInCU: 0x25CBB, offset: 0x48243, size: 0x8, addend: 0x0, symName: __ZNSt3__14pairIKNS_12basic_stringIcNS_11char_traitsIcEENS_9allocatorIcEEEE13BitacoraLineaED2Ev, symObjAddr: 0x188D4, symBinAddr: 0x10002719C, symSize: 0x68 }
  - { offsetInCU: 0x25CE7, offset: 0x4826F, size: 0x8, addend: 0x0, symName: __ZNSt3__112__value_typeINS_12basic_stringIcNS_11char_traitsIcEENS_9allocatorIcEEEE13BitacoraLineaE11__get_valueB7v160006Ev, symObjAddr: 0x1893C, symBinAddr: 0x100027204, symSize: 0x14 }
  - { offsetInCU: 0x25D0D, offset: 0x48295, size: 0x8, addend: 0x0, symName: __ZNSt3__19allocatorINS_11__tree_nodeINS_12__value_typeINS_12basic_stringIcNS_11char_traitsIcEENS0_IcEEEE13BitacoraLineaEEPvEEE10deallocateB7v160006EPSB_m, symObjAddr: 0x18950, symBinAddr: 0x100027218, symSize: 0x74 }
  - { offsetInCU: 0x25D4F, offset: 0x482D7, size: 0x8, addend: 0x0, symName: __ZNKSt3__16__treeINS_12__value_typeINS_12basic_stringIcNS_11char_traitsIcEENS_9allocatorIcEEEE13BitacoraLineaEENS_19__map_value_compareIS7_S9_NS_4lessIS7_EELb1EEENS5_IS9_EEE10__end_nodeB7v160006Ev, symObjAddr: 0x189C4, symBinAddr: 0x10002728C, symSize: 0x2C }
  - { offsetInCU: 0x25D75, offset: 0x482FD, size: 0x8, addend: 0x0, symName: __ZNKSt3__117__compressed_pairINS_15__tree_end_nodeIPNS_16__tree_node_baseIPvEEEENS_9allocatorINS_11__tree_nodeINS_12__value_typeINS_12basic_stringIcNS_11char_traitsIcEENS7_IcEEEE13BitacoraLineaEES3_EEEEE5firstB7v160006Ev, symObjAddr: 0x189F0, symBinAddr: 0x1000272B8, symSize: 0x24 }
  - { offsetInCU: 0x25D9B, offset: 0x48323, size: 0x8, addend: 0x0, symName: __ZNK10LinkedListI13BitacoraLineaE4sizeEv, symObjAddr: 0x18D78, symBinAddr: 0x1000272DC, symSize: 0x18 }
  - { offsetInCU: 0x25DC2, offset: 0x4834A, size: 0x8, addend: 0x0, symName: __ZNSt3__16vectorIN21ConexionesComputadoraI13BitacoraLineaE3SitENS_9allocatorIS4_EEE5clearB7v160006Ev, symObjAddr: 0x18D90, symBinAddr: 0x1000272F4, symSize: 0x4C }
  - { offsetInCU: 0x25DF7, offset: 0x4837F, size: 0x8, addend: 0x0, symName: __ZNK10BinaryTreeIN21ConexionesComputadoraI13BitacoraLineaE3SitEE5emptyEv, symObjAddr: 0x18DDC, symBinAddr: 0x100027340, symSize: 0x24 }
  - { offsetInCU: 0x25E1E, offset: 0x483A6, size: 0x8, addend: 0x0, symName: __ZNKSt3__16vectorIN21ConexionesComputadoraI13BitacoraLineaE3SitENS_9allocatorIS4_EEE17__annotate_shrinkB7v160006Em, symObjAddr: 0x18E00, symBinAddr: 0x100027364, symSize: 0xB4 }
  - { offsetInCU: 0x25E53, offset: 0x483DB, size: 0x8, addend: 0x0, symName: __ZNSt3__16vectorINS_12basic_stringIcNS_11char_traitsIcEENS_9allocatorIcEEEENS4_IS6_EEE11__make_iterB7v160006EPS6_, symObjAddr: 0x18EB4, symBinAddr: 0x100027418, symSize: 0x34 }
  - { offsetInCU: 0x25E88, offset: 0x48410, size: 0x8, addend: 0x0, symName: __ZNSt3__111__wrap_iterIPNS_12basic_stringIcNS_11char_traitsIcEENS_9allocatorIcEEEEEC1B7v160006EPKvS7_, symObjAddr: 0x18EE8, symBinAddr: 0x10002744C, symSize: 0x3C }
  - { offsetInCU: 0x25ECE, offset: 0x48456, size: 0x8, addend: 0x0, symName: __ZNSt3__111__wrap_iterIPNS_12basic_stringIcNS_11char_traitsIcEENS_9allocatorIcEEEEEC2B7v160006EPKvS7_, symObjAddr: 0x18F24, symBinAddr: 0x100027488, symSize: 0x24 }
  - { offsetInCU: 0x25F14, offset: 0x4849C, size: 0x8, addend: 0x0, symName: __ZNKSt3__111__wrap_iterIPNS_12basic_stringIcNS_11char_traitsIcEENS_9allocatorIcEEEEE4baseB7v160006Ev, symObjAddr: 0x18F90, symBinAddr: 0x1000274F4, symSize: 0x18 }
...
